SF:C:\Users\luigi\College\Spring 2023\Capstone\EricGrandizio\rge\src\lib.rs
FN:1,_RNvCs8U4dboVazbn_3rge4main
FNDA:2,_RNvCs8U4dboVazbn_3rge4main
FNF:1
FNH:1
DA:1,2
BRF:0
BRH:0
LF:1
LH:1
end_of_record
SF:C:\Users\luigi\College\Spring 2023\Capstone\EricGrandizio\wyn\src\common\tasks.rs
FN:145,_RNvMs_NtNtCs4h6wGsnYX5y_3wyn6common5tasksINtB4_10SyncFuturepE6notifyB8_
FN:173,_RNvMs_NtNtCs4h6wGsnYX5y_3wyn6common5tasksINtB4_10SyncFuturepE13wait_deadlineB8_
FN:254,_RNCNvMs0_NtNtCs4h6wGsnYX5y_3wyn6common5tasksINtB7_11AsyncFuturepE13wait_deadline0Bb_
FN:74,_RNvMNtNtCs4h6wGsnYX5y_3wyn6common5tasksINtB2_10ExecFuturepE6notifyB6_
FN:217,_RNvMs0_NtNtCs4h6wGsnYX5y_3wyn6common5tasksINtB5_11AsyncFuturepE4takeB9_
FN:111,_RNvMNtNtCs4h6wGsnYX5y_3wyn6common5tasksINtB2_10ExecFuturepE13wait_deadlineB6_
FN:264,_RNvMs0_NtNtCs4h6wGsnYX5y_3wyn6common5tasksINtB5_11AsyncFuturepE4pollB9_
FN:178,_RNvMs_NtNtCs4h6wGsnYX5y_3wyn6common5tasksINtB4_10SyncFuturepE4pollB8_
FN:250,_RNvMs0_NtNtCs4h6wGsnYX5y_3wyn6common5tasksINtB5_11AsyncFuturepE13wait_deadlineB9_
FN:236,_RNvMs0_NtNtCs4h6wGsnYX5y_3wyn6common5tasksINtB5_11AsyncFuturepE12wait_timeoutB9_
FN:102,_RNvMNtNtCs4h6wGsnYX5y_3wyn6common5tasksINtB2_10ExecFuturepE12wait_timeoutB6_
FN:83,_RNvMNtNtCs4h6wGsnYX5y_3wyn6common5tasksINtB2_10ExecFuturepE4takeB6_
FN:119,_RNvMNtNtCs4h6wGsnYX5y_3wyn6common5tasksINtB2_10ExecFuturepE4pollB6_
FN:166,_RNvMs_NtNtCs4h6wGsnYX5y_3wyn6common5tasksINtB4_10SyncFuturepE12wait_timeoutB8_
FN:239,_RNCNvMs0_NtNtCs4h6wGsnYX5y_3wyn6common5tasksINtB7_11AsyncFuturepE12wait_timeout0Bb_
FN:207,_RNvMs0_NtNtCs4h6wGsnYX5y_3wyn6common5tasksINtB5_11AsyncFutureINtNtCs5WRdNqmsn7B_4core6result6ResultuNtNtNtB9_5win326errors8WinErrorEE6notifyB9_
FN:225,_RNvMs0_NtNtCs4h6wGsnYX5y_3wyn6common5tasksINtB5_11AsyncFutureINtNtCs5WRdNqmsn7B_4core6result6ResultuNtNtNtB9_5win326errors8WinErrorEE4waitB9_
FN:93,_RNvMNtNtCs4h6wGsnYX5y_3wyn6common5tasksINtB2_10ExecFutureINtNtCs5WRdNqmsn7B_4core6result6ResultuNtNtNtB6_5win326errors8WinErrorEE4waitB6_
FN:62,_RNvMNtNtCs4h6wGsnYX5y_3wyn6common5tasksINtB2_10ExecFutureINtNtCs5WRdNqmsn7B_4core6result6ResultuNtNtNtB6_5win326errors8WinErrorEE9new_asyncB6_
FN:159,_RNvMs_NtNtCs4h6wGsnYX5y_3wyn6common5tasksINtB4_10SyncFutureINtNtCs5WRdNqmsn7B_4core6result6ResultuNtNtNtB8_5win326errors8WinErrorEE4waitB8_
FN:207,_RNvMs0_NtNtCs4h6wGsnYX5y_3wyn6common5tasksINtB5_11AsyncFutureINtNtCs5WRdNqmsn7B_4core6result6ResultNtNtNtB9_5win326window6WindowNtNtB1D_6errors8WinErrorEE6notifyB9_
FN:138,_RNvMs_NtNtCs4h6wGsnYX5y_3wyn6common5tasksINtB4_10SyncFutureINtNtCs5WRdNqmsn7B_4core6result6ResultuNtNtNtB8_5win326errors8WinErrorEE3newB8_
FN:62,_RNvMNtNtCs4h6wGsnYX5y_3wyn6common5tasksINtB2_10ExecFutureINtNtCs5WRdNqmsn7B_4core6result6ResultNtNtNtB6_5win326window6WindowNtNtB1z_6errors8WinErrorEE9new_asyncB6_
FN:200,_RNvMs0_NtNtCs4h6wGsnYX5y_3wyn6common5tasksINtB5_11AsyncFutureINtNtCs5WRdNqmsn7B_4core6result6ResultNtNtNtB9_5win326window6WindowNtNtB1D_6errors8WinErrorEE3newB9_
FN:228,_RNCNvMs0_NtNtCs4h6wGsnYX5y_3wyn6common5tasksINtB7_11AsyncFutureINtNtCs5WRdNqmsn7B_4core6result6ResultuNtNtNtBb_5win326errors8WinErrorEE4wait0Bb_
FN:54,_RNvMNtNtCs4h6wGsnYX5y_3wyn6common5tasksINtB2_10ExecFutureINtNtCs5WRdNqmsn7B_4core6result6ResultuNtNtNtB6_5win326errors8WinErrorEE8new_syncB6_
FN:138,_RNvMs_NtNtCs4h6wGsnYX5y_3wyn6common5tasksINtB4_10SyncFutureINtNtCs5WRdNqmsn7B_4core6result6ResultNtNtNtB8_5win326window6WindowNtNtB1B_6errors8WinErrorEE3newB8_
FN:150,_RNvMs_NtNtCs4h6wGsnYX5y_3wyn6common5tasksINtB4_10SyncFutureINtNtCs5WRdNqmsn7B_4core6result6ResultNtNtNtB8_5win326window6WindowNtNtB1B_6errors8WinErrorEE4takeB8_
FN:200,_RNvMs0_NtNtCs4h6wGsnYX5y_3wyn6common5tasksINtB5_11AsyncFutureINtNtCs5WRdNqmsn7B_4core6result6ResultuNtNtNtB9_5win326errors8WinErrorEE3newB9_
FN:54,_RNvMNtNtCs4h6wGsnYX5y_3wyn6common5tasksINtB2_10ExecFutureINtNtCs5WRdNqmsn7B_4core6result6ResultNtNtNtB6_5win326window6WindowNtNtB1z_6errors8WinErrorEE8new_syncB6_
FN:225,_RNvMs0_NtNtCs4h6wGsnYX5y_3wyn6common5tasksINtB5_11AsyncFutureINtNtCs5WRdNqmsn7B_4core6result6ResultNtNtNtB9_5win326window6WindowNtNtB1D_6errors8WinErrorEE4waitB9_
FN:93,_RNvMNtNtCs4h6wGsnYX5y_3wyn6common5tasksINtB2_10ExecFutureINtNtCs5WRdNqmsn7B_4core6result6ResultNtNtNtB6_5win326window6WindowNtNtB1z_6errors8WinErrorEE4waitB6_
FN:150,_RNvMs_NtNtCs4h6wGsnYX5y_3wyn6common5tasksINtB4_10SyncFutureINtNtCs5WRdNqmsn7B_4core6result6ResultuNtNtNtB8_5win326errors8WinErrorEE4takeB8_
FN:228,_RNCNvMs0_NtNtCs4h6wGsnYX5y_3wyn6common5tasksINtB7_11AsyncFutureINtNtCs5WRdNqmsn7B_4core6result6ResultNtNtNtBb_5win326window6WindowNtNtB1F_6errors8WinErrorEE4wait0Bb_
FN:159,_RNvMs_NtNtCs4h6wGsnYX5y_3wyn6common5tasksINtB4_10SyncFutureINtNtCs5WRdNqmsn7B_4core6result6ResultNtNtNtB8_5win326window6WindowNtNtB1B_6errors8WinErrorEE4waitB8_
FN:119,_RNvMNtNtCs4h6wGsnYX5y_3wyn6common5tasksINtB2_10ExecFutureuE4pollCsi1CHggj87bF_7execute
FN:111,_RNvMNtNtCs4h6wGsnYX5y_3wyn6common5tasksINtB2_10ExecFutureuE13wait_deadlineCsi1CHggj87bF_7execute
FN:93,_RNvMNtNtCs4h6wGsnYX5y_3wyn6common5tasksINtB2_10ExecFutureuE4waitCsi1CHggj87bF_7execute
FN:178,_RNvMs_NtNtCs4h6wGsnYX5y_3wyn6common5tasksINtB4_10SyncFutureuE4pollCsi1CHggj87bF_7execute
FN:62,_RNvMNtNtCs4h6wGsnYX5y_3wyn6common5tasksINtB2_10ExecFutureuE9new_asyncCsi1CHggj87bF_7execute
FN:138,_RNvMs_NtNtCs4h6wGsnYX5y_3wyn6common5tasksINtB4_10SyncFutureuE3newCsi1CHggj87bF_7execute
FN:250,_RNvMs0_NtNtCs4h6wGsnYX5y_3wyn6common5tasksINtB5_11AsyncFutureuE13wait_deadlineCsi1CHggj87bF_7execute
FN:207,_RNvMs0_NtNtCs4h6wGsnYX5y_3wyn6common5tasksINtB5_11AsyncFutureuE6notifyCsi1CHggj87bF_7execute
FN:102,_RNvMNtNtCs4h6wGsnYX5y_3wyn6common5tasksINtB2_10ExecFutureuE12wait_timeoutCsi1CHggj87bF_7execute
FN:159,_RNvMs_NtNtCs4h6wGsnYX5y_3wyn6common5tasksINtB4_10SyncFutureuE4waitCsi1CHggj87bF_7execute
FN:236,_RNvMs0_NtNtCs4h6wGsnYX5y_3wyn6common5tasksINtB5_11AsyncFutureuE12wait_timeoutCsi1CHggj87bF_7execute
FN:225,_RNvMs0_NtNtCs4h6wGsnYX5y_3wyn6common5tasksINtB5_11AsyncFutureuE4waitCsi1CHggj87bF_7execute
FN:239,_RNCNvMs0_NtNtCs4h6wGsnYX5y_3wyn6common5tasksINtB7_11AsyncFutureuE12wait_timeout0Csi1CHggj87bF_7execute
FN:228,_RNCNvMs0_NtNtCs4h6wGsnYX5y_3wyn6common5tasksINtB7_11AsyncFutureuE4wait0Csi1CHggj87bF_7execute
FN:200,_RNvMs0_NtNtCs4h6wGsnYX5y_3wyn6common5tasksINtB5_11AsyncFutureuE3newCsi1CHggj87bF_7execute
FN:254,_RNCNvMs0_NtNtCs4h6wGsnYX5y_3wyn6common5tasksINtB7_11AsyncFutureuE13wait_deadline0Csi1CHggj87bF_7execute
FN:173,_RNvMs_NtNtCs4h6wGsnYX5y_3wyn6common5tasksINtB4_10SyncFutureuE13wait_deadlineCsi1CHggj87bF_7execute
FN:54,_RNvMNtNtCs4h6wGsnYX5y_3wyn6common5tasksINtB2_10ExecFutureuE8new_syncCsi1CHggj87bF_7execute
FN:264,_RNvMs0_NtNtCs4h6wGsnYX5y_3wyn6common5tasksINtB5_11AsyncFutureuE4pollCsi1CHggj87bF_7execute
FN:150,_RNvMs_NtNtCs4h6wGsnYX5y_3wyn6common5tasksINtB4_10SyncFutureuE4takeCsi1CHggj87bF_7execute
FN:166,_RNvMs_NtNtCs4h6wGsnYX5y_3wyn6common5tasksINtB4_10SyncFutureuE12wait_timeoutCsi1CHggj87bF_7execute
FN:228,_RNCNvMs0_NtNtCs3vY6VOeawRw_3wyn6common5tasksINtB7_11AsyncFuturepE4wait0Bb_
FN:93,_RNvMNtNtCs3vY6VOeawRw_3wyn6common5tasksINtB2_10ExecFuturepE4waitB6_
FN:236,_RNvMs0_NtNtCs3vY6VOeawRw_3wyn6common5tasksINtB5_11AsyncFuturepE12wait_timeoutB9_
FN:254,_RNCNvMs0_NtNtCs3vY6VOeawRw_3wyn6common5tasksINtB7_11AsyncFuturepE13wait_deadline0Bb_
FN:217,_RNvMs0_NtNtCs3vY6VOeawRw_3wyn6common5tasksINtB5_11AsyncFuturepE4takeB9_
FN:62,_RNvMNtNtCs3vY6VOeawRw_3wyn6common5tasksINtB2_10ExecFuturepE9new_asyncB6_
FN:159,_RNvMs_NtNtCs3vY6VOeawRw_3wyn6common5tasksINtB4_10SyncFuturepE4waitB8_
FN:83,_RNvMNtNtCs3vY6VOeawRw_3wyn6common5tasksINtB2_10ExecFuturepE4takeB6_
FN:119,_RNvMNtNtCs3vY6VOeawRw_3wyn6common5tasksINtB2_10ExecFuturepE4pollB6_
FN:250,_RNvMs0_NtNtCs3vY6VOeawRw_3wyn6common5tasksINtB5_11AsyncFuturepE13wait_deadlineB9_
FN:138,_RNvMs_NtNtCs3vY6VOeawRw_3wyn6common5tasksINtB4_10SyncFuturepE3newB8_
FN:54,_RNvMNtNtCs3vY6VOeawRw_3wyn6common5tasksINtB2_10ExecFuturepE8new_syncB6_
FN:111,_RNvMNtNtCs3vY6VOeawRw_3wyn6common5tasksINtB2_10ExecFuturepE13wait_deadlineB6_
FN:200,_RNvMs0_NtNtCs3vY6VOeawRw_3wyn6common5tasksINtB5_11AsyncFuturepE3newB9_
FN:145,_RNvMs_NtNtCs3vY6VOeawRw_3wyn6common5tasksINtB4_10SyncFuturepE6notifyB8_
FN:102,_RNvMNtNtCs3vY6VOeawRw_3wyn6common5tasksINtB2_10ExecFuturepE12wait_timeoutB6_
FN:225,_RNvMs0_NtNtCs3vY6VOeawRw_3wyn6common5tasksINtB5_11AsyncFuturepE4waitB9_
FN:166,_RNvMs_NtNtCs3vY6VOeawRw_3wyn6common5tasksINtB4_10SyncFuturepE12wait_timeoutB8_
FN:74,_RNvMNtNtCs3vY6VOeawRw_3wyn6common5tasksINtB2_10ExecFuturepE6notifyB6_
FN:264,_RNvMs0_NtNtCs3vY6VOeawRw_3wyn6common5tasksINtB5_11AsyncFuturepE4pollB9_
FN:239,_RNCNvMs0_NtNtCs3vY6VOeawRw_3wyn6common5tasksINtB7_11AsyncFuturepE12wait_timeout0Bb_
FN:207,_RNvMs0_NtNtCs3vY6VOeawRw_3wyn6common5tasksINtB5_11AsyncFuturepE6notifyB9_
FN:150,_RNvMs_NtNtCs3vY6VOeawRw_3wyn6common5tasksINtB4_10SyncFuturepE4takeB8_
FN:178,_RNvMs_NtNtCs3vY6VOeawRw_3wyn6common5tasksINtB4_10SyncFuturepE4pollB8_
FN:173,_RNvMs_NtNtCs3vY6VOeawRw_3wyn6common5tasksINtB4_10SyncFuturepE13wait_deadlineB8_
FNDA:0,_RNvMs_NtNtCs4h6wGsnYX5y_3wyn6common5tasksINtB4_10SyncFuturepE6notifyB8_
FNDA:0,_RNvMs_NtNtCs4h6wGsnYX5y_3wyn6common5tasksINtB4_10SyncFuturepE13wait_deadlineB8_
FNDA:0,_RNCNvMs0_NtNtCs4h6wGsnYX5y_3wyn6common5tasksINtB7_11AsyncFuturepE13wait_deadline0Bb_
FNDA:0,_RNvMNtNtCs4h6wGsnYX5y_3wyn6common5tasksINtB2_10ExecFuturepE6notifyB6_
FNDA:0,_RNvMs0_NtNtCs4h6wGsnYX5y_3wyn6common5tasksINtB5_11AsyncFuturepE4takeB9_
FNDA:0,_RNvMNtNtCs4h6wGsnYX5y_3wyn6common5tasksINtB2_10ExecFuturepE13wait_deadlineB6_
FNDA:0,_RNvMs0_NtNtCs4h6wGsnYX5y_3wyn6common5tasksINtB5_11AsyncFuturepE4pollB9_
FNDA:0,_RNvMs_NtNtCs4h6wGsnYX5y_3wyn6common5tasksINtB4_10SyncFuturepE4pollB8_
FNDA:0,_RNvMs0_NtNtCs4h6wGsnYX5y_3wyn6common5tasksINtB5_11AsyncFuturepE13wait_deadlineB9_
FNDA:0,_RNvMs0_NtNtCs4h6wGsnYX5y_3wyn6common5tasksINtB5_11AsyncFuturepE12wait_timeoutB9_
FNDA:0,_RNvMNtNtCs4h6wGsnYX5y_3wyn6common5tasksINtB2_10ExecFuturepE12wait_timeoutB6_
FNDA:0,_RNvMNtNtCs4h6wGsnYX5y_3wyn6common5tasksINtB2_10ExecFuturepE4takeB6_
FNDA:0,_RNvMNtNtCs4h6wGsnYX5y_3wyn6common5tasksINtB2_10ExecFuturepE4pollB6_
FNDA:0,_RNvMs_NtNtCs4h6wGsnYX5y_3wyn6common5tasksINtB4_10SyncFuturepE12wait_timeoutB8_
FNDA:0,_RNCNvMs0_NtNtCs4h6wGsnYX5y_3wyn6common5tasksINtB7_11AsyncFuturepE12wait_timeout0Bb_
FNDA:0,_RNvMs0_NtNtCs4h6wGsnYX5y_3wyn6common5tasksINtB5_11AsyncFutureINtNtCs5WRdNqmsn7B_4core6result6ResultuNtNtNtB9_5win326errors8WinErrorEE6notifyB9_
FNDA:0,_RNvMs0_NtNtCs4h6wGsnYX5y_3wyn6common5tasksINtB5_11AsyncFutureINtNtCs5WRdNqmsn7B_4core6result6ResultuNtNtNtB9_5win326errors8WinErrorEE4waitB9_
FNDA:3,_RNvMNtNtCs4h6wGsnYX5y_3wyn6common5tasksINtB2_10ExecFutureINtNtCs5WRdNqmsn7B_4core6result6ResultuNtNtNtB6_5win326errors8WinErrorEE4waitB6_
FNDA:0,_RNvMNtNtCs4h6wGsnYX5y_3wyn6common5tasksINtB2_10ExecFutureINtNtCs5WRdNqmsn7B_4core6result6ResultuNtNtNtB6_5win326errors8WinErrorEE9new_asyncB6_
FNDA:3,_RNvMs_NtNtCs4h6wGsnYX5y_3wyn6common5tasksINtB4_10SyncFutureINtNtCs5WRdNqmsn7B_4core6result6ResultuNtNtNtB8_5win326errors8WinErrorEE4waitB8_
FNDA:0,_RNvMs0_NtNtCs4h6wGsnYX5y_3wyn6common5tasksINtB5_11AsyncFutureINtNtCs5WRdNqmsn7B_4core6result6ResultNtNtNtB9_5win326window6WindowNtNtB1D_6errors8WinErrorEE6notifyB9_
FNDA:3,_RNvMs_NtNtCs4h6wGsnYX5y_3wyn6common5tasksINtB4_10SyncFutureINtNtCs5WRdNqmsn7B_4core6result6ResultuNtNtNtB8_5win326errors8WinErrorEE3newB8_
FNDA:0,_RNvMNtNtCs4h6wGsnYX5y_3wyn6common5tasksINtB2_10ExecFutureINtNtCs5WRdNqmsn7B_4core6result6ResultNtNtNtB6_5win326window6WindowNtNtB1z_6errors8WinErrorEE9new_asyncB6_
FNDA:0,_RNvMs0_NtNtCs4h6wGsnYX5y_3wyn6common5tasksINtB5_11AsyncFutureINtNtCs5WRdNqmsn7B_4core6result6ResultNtNtNtB9_5win326window6WindowNtNtB1D_6errors8WinErrorEE3newB9_
FNDA:0,_RNCNvMs0_NtNtCs4h6wGsnYX5y_3wyn6common5tasksINtB7_11AsyncFutureINtNtCs5WRdNqmsn7B_4core6result6ResultuNtNtNtBb_5win326errors8WinErrorEE4wait0Bb_
FNDA:3,_RNvMNtNtCs4h6wGsnYX5y_3wyn6common5tasksINtB2_10ExecFutureINtNtCs5WRdNqmsn7B_4core6result6ResultuNtNtNtB6_5win326errors8WinErrorEE8new_syncB6_
FNDA:10,_RNvMs_NtNtCs4h6wGsnYX5y_3wyn6common5tasksINtB4_10SyncFutureINtNtCs5WRdNqmsn7B_4core6result6ResultNtNtNtB8_5win326window6WindowNtNtB1B_6errors8WinErrorEE3newB8_
FNDA:10,_RNvMs_NtNtCs4h6wGsnYX5y_3wyn6common5tasksINtB4_10SyncFutureINtNtCs5WRdNqmsn7B_4core6result6ResultNtNtNtB8_5win326window6WindowNtNtB1B_6errors8WinErrorEE4takeB8_
FNDA:0,_RNvMs0_NtNtCs4h6wGsnYX5y_3wyn6common5tasksINtB5_11AsyncFutureINtNtCs5WRdNqmsn7B_4core6result6ResultuNtNtNtB9_5win326errors8WinErrorEE3newB9_
FNDA:10,_RNvMNtNtCs4h6wGsnYX5y_3wyn6common5tasksINtB2_10ExecFutureINtNtCs5WRdNqmsn7B_4core6result6ResultNtNtNtB6_5win326window6WindowNtNtB1z_6errors8WinErrorEE8new_syncB6_
FNDA:0,_RNvMs0_NtNtCs4h6wGsnYX5y_3wyn6common5tasksINtB5_11AsyncFutureINtNtCs5WRdNqmsn7B_4core6result6ResultNtNtNtB9_5win326window6WindowNtNtB1D_6errors8WinErrorEE4waitB9_
FNDA:10,_RNvMNtNtCs4h6wGsnYX5y_3wyn6common5tasksINtB2_10ExecFutureINtNtCs5WRdNqmsn7B_4core6result6ResultNtNtNtB6_5win326window6WindowNtNtB1z_6errors8WinErrorEE4waitB6_
FNDA:3,_RNvMs_NtNtCs4h6wGsnYX5y_3wyn6common5tasksINtB4_10SyncFutureINtNtCs5WRdNqmsn7B_4core6result6ResultuNtNtNtB8_5win326errors8WinErrorEE4takeB8_
FNDA:0,_RNCNvMs0_NtNtCs4h6wGsnYX5y_3wyn6common5tasksINtB7_11AsyncFutureINtNtCs5WRdNqmsn7B_4core6result6ResultNtNtNtBb_5win326window6WindowNtNtB1F_6errors8WinErrorEE4wait0Bb_
FNDA:10,_RNvMs_NtNtCs4h6wGsnYX5y_3wyn6common5tasksINtB4_10SyncFutureINtNtCs5WRdNqmsn7B_4core6result6ResultNtNtNtB8_5win326window6WindowNtNtB1B_6errors8WinErrorEE4waitB8_
FNDA:2,_RNvMNtNtCs4h6wGsnYX5y_3wyn6common5tasksINtB2_10ExecFutureuE4pollCsi1CHggj87bF_7execute
FNDA:2,_RNvMNtNtCs4h6wGsnYX5y_3wyn6common5tasksINtB2_10ExecFutureuE13wait_deadlineCsi1CHggj87bF_7execute
FNDA:2,_RNvMNtNtCs4h6wGsnYX5y_3wyn6common5tasksINtB2_10ExecFutureuE4waitCsi1CHggj87bF_7execute
FNDA:3,_RNvMs_NtNtCs4h6wGsnYX5y_3wyn6common5tasksINtB4_10SyncFutureuE4pollCsi1CHggj87bF_7execute
FNDA:4,_RNvMNtNtCs4h6wGsnYX5y_3wyn6common5tasksINtB2_10ExecFutureuE9new_asyncCsi1CHggj87bF_7execute
FNDA:4,_RNvMs_NtNtCs4h6wGsnYX5y_3wyn6common5tasksINtB4_10SyncFutureuE3newCsi1CHggj87bF_7execute
FNDA:1,_RNvMs0_NtNtCs4h6wGsnYX5y_3wyn6common5tasksINtB5_11AsyncFutureuE13wait_deadlineCsi1CHggj87bF_7execute
FNDA:4,_RNvMs0_NtNtCs4h6wGsnYX5y_3wyn6common5tasksINtB5_11AsyncFutureuE6notifyCsi1CHggj87bF_7execute
FNDA:2,_RNvMNtNtCs4h6wGsnYX5y_3wyn6common5tasksINtB2_10ExecFutureuE12wait_timeoutCsi1CHggj87bF_7execute
FNDA:1,_RNvMs_NtNtCs4h6wGsnYX5y_3wyn6common5tasksINtB4_10SyncFutureuE4waitCsi1CHggj87bF_7execute
FNDA:1,_RNvMs0_NtNtCs4h6wGsnYX5y_3wyn6common5tasksINtB5_11AsyncFutureuE12wait_timeoutCsi1CHggj87bF_7execute
FNDA:1,_RNvMs0_NtNtCs4h6wGsnYX5y_3wyn6common5tasksINtB5_11AsyncFutureuE4waitCsi1CHggj87bF_7execute
FNDA:1,_RNCNvMs0_NtNtCs4h6wGsnYX5y_3wyn6common5tasksINtB7_11AsyncFutureuE12wait_timeout0Csi1CHggj87bF_7execute
FNDA:1,_RNCNvMs0_NtNtCs4h6wGsnYX5y_3wyn6common5tasksINtB7_11AsyncFutureuE4wait0Csi1CHggj87bF_7execute
FNDA:4,_RNvMs0_NtNtCs4h6wGsnYX5y_3wyn6common5tasksINtB5_11AsyncFutureuE3newCsi1CHggj87bF_7execute
FNDA:1,_RNCNvMs0_NtNtCs4h6wGsnYX5y_3wyn6common5tasksINtB7_11AsyncFutureuE13wait_deadline0Csi1CHggj87bF_7execute
FNDA:1,_RNvMs_NtNtCs4h6wGsnYX5y_3wyn6common5tasksINtB4_10SyncFutureuE13wait_deadlineCsi1CHggj87bF_7execute
FNDA:4,_RNvMNtNtCs4h6wGsnYX5y_3wyn6common5tasksINtB2_10ExecFutureuE8new_syncCsi1CHggj87bF_7execute
FNDA:1,_RNvMs0_NtNtCs4h6wGsnYX5y_3wyn6common5tasksINtB5_11AsyncFutureuE4pollCsi1CHggj87bF_7execute
FNDA:4,_RNvMs_NtNtCs4h6wGsnYX5y_3wyn6common5tasksINtB4_10SyncFutureuE4takeCsi1CHggj87bF_7execute
FNDA:1,_RNvMs_NtNtCs4h6wGsnYX5y_3wyn6common5tasksINtB4_10SyncFutureuE12wait_timeoutCsi1CHggj87bF_7execute
FNDA:0,_RNCNvMs0_NtNtCs3vY6VOeawRw_3wyn6common5tasksINtB7_11AsyncFuturepE4wait0Bb_
FNDA:0,_RNvMNtNtCs3vY6VOeawRw_3wyn6common5tasksINtB2_10ExecFuturepE4waitB6_
FNDA:0,_RNvMs0_NtNtCs3vY6VOeawRw_3wyn6common5tasksINtB5_11AsyncFuturepE12wait_timeoutB9_
FNDA:0,_RNCNvMs0_NtNtCs3vY6VOeawRw_3wyn6common5tasksINtB7_11AsyncFuturepE13wait_deadline0Bb_
FNDA:0,_RNvMs0_NtNtCs3vY6VOeawRw_3wyn6common5tasksINtB5_11AsyncFuturepE4takeB9_
FNDA:0,_RNvMNtNtCs3vY6VOeawRw_3wyn6common5tasksINtB2_10ExecFuturepE9new_asyncB6_
FNDA:0,_RNvMs_NtNtCs3vY6VOeawRw_3wyn6common5tasksINtB4_10SyncFuturepE4waitB8_
FNDA:0,_RNvMNtNtCs3vY6VOeawRw_3wyn6common5tasksINtB2_10ExecFuturepE4takeB6_
FNDA:0,_RNvMNtNtCs3vY6VOeawRw_3wyn6common5tasksINtB2_10ExecFuturepE4pollB6_
FNDA:0,_RNvMs0_NtNtCs3vY6VOeawRw_3wyn6common5tasksINtB5_11AsyncFuturepE13wait_deadlineB9_
FNDA:0,_RNvMs_NtNtCs3vY6VOeawRw_3wyn6common5tasksINtB4_10SyncFuturepE3newB8_
FNDA:0,_RNvMNtNtCs3vY6VOeawRw_3wyn6common5tasksINtB2_10ExecFuturepE8new_syncB6_
FNDA:0,_RNvMNtNtCs3vY6VOeawRw_3wyn6common5tasksINtB2_10ExecFuturepE13wait_deadlineB6_
FNDA:0,_RNvMs0_NtNtCs3vY6VOeawRw_3wyn6common5tasksINtB5_11AsyncFuturepE3newB9_
FNDA:0,_RNvMs_NtNtCs3vY6VOeawRw_3wyn6common5tasksINtB4_10SyncFuturepE6notifyB8_
FNDA:0,_RNvMNtNtCs3vY6VOeawRw_3wyn6common5tasksINtB2_10ExecFuturepE12wait_timeoutB6_
FNDA:0,_RNvMs0_NtNtCs3vY6VOeawRw_3wyn6common5tasksINtB5_11AsyncFuturepE4waitB9_
FNDA:0,_RNvMs_NtNtCs3vY6VOeawRw_3wyn6common5tasksINtB4_10SyncFuturepE12wait_timeoutB8_
FNDA:0,_RNvMNtNtCs3vY6VOeawRw_3wyn6common5tasksINtB2_10ExecFuturepE6notifyB6_
FNDA:0,_RNvMs0_NtNtCs3vY6VOeawRw_3wyn6common5tasksINtB5_11AsyncFuturepE4pollB9_
FNDA:0,_RNCNvMs0_NtNtCs3vY6VOeawRw_3wyn6common5tasksINtB7_11AsyncFuturepE12wait_timeout0Bb_
FNDA:0,_RNvMs0_NtNtCs3vY6VOeawRw_3wyn6common5tasksINtB5_11AsyncFuturepE6notifyB9_
FNDA:0,_RNvMs_NtNtCs3vY6VOeawRw_3wyn6common5tasksINtB4_10SyncFuturepE4takeB8_
FNDA:0,_RNvMs_NtNtCs3vY6VOeawRw_3wyn6common5tasksINtB4_10SyncFuturepE4pollB8_
FNDA:0,_RNvMs_NtNtCs3vY6VOeawRw_3wyn6common5tasksINtB4_10SyncFuturepE13wait_deadlineB8_
FNF:25
FNH:21
DA:54,17
DA:55,17
DA:56,17
DA:57,17
DA:58,17
DA:62,4
DA:63,4
DA:64,4
DA:65,4
DA:66,4
DA:67,4
DA:68,4
DA:69,4
DA:70,4
DA:74,0
DA:75,0
DA:76,0
DA:77,0
DA:79,0
DA:83,0
DA:84,0
DA:85,0
DA:86,0
DA:88,0
DA:93,15
DA:94,15
DA:95,14
DA:96,1
DA:98,15
DA:102,2
DA:103,2
DA:104,1
DA:105,1
DA:107,2
DA:111,2
DA:112,2
DA:113,1
DA:114,1
DA:116,2
DA:119,2
DA:120,2
DA:121,1
DA:122,1
DA:124,2
DA:138,17
DA:139,17
DA:140,17
DA:141,17
DA:145,0
DA:146,0
DA:147,0
DA:150,17
DA:151,17
DA:152,17
DA:159,14
DA:160,14
DA:161,14
DA:166,1
DA:167,1
DA:168,1
DA:173,1
DA:174,1
DA:175,1
DA:178,3
DA:179,3
DA:180,3
DA:181,0
DA:183,3
DA:200,4
DA:201,4
DA:202,4
DA:203,4
DA:204,4
DA:207,4
DA:208,4
DA:209,4
DA:210,4
DA:211,4
DA:212,4
DA:213,4
DA:217,0
DA:218,0
DA:219,0
DA:220,0
DA:225,1
DA:226,1
DA:227,1
DA:228,1
DA:229,1
DA:230,1
DA:231,1
DA:232,1
DA:236,1
DA:237,1
DA:238,1
DA:239,1
DA:240,1
DA:241,1
DA:242,1
DA:243,1
DA:244,0
DA:246,1
DA:250,1
DA:251,1
DA:252,1
DA:253,1
DA:254,1
DA:255,1
DA:256,1
DA:257,1
DA:258,0
DA:259,1
DA:261,1
DA:264,1
DA:265,1
DA:266,1
DA:267,1
DA:268,0
DA:269,1
DA:271,1
BRF:0
BRH:0
LF:123
LH:102
end_of_record
SF:C:\Users\luigi\College\Spring 2023\Capstone\EricGrandizio\wyn\src\common\types.rs
FN:55,_RNvXsi_NtNtCs4h6wGsnYX5y_3wyn6common5typesNtB5_4RectNtNtCs5WRdNqmsn7B_4core7default7Default7defaultB9_
FN:37,_RNvXs8_NtNtCs4h6wGsnYX5y_3wyn6common5typesNtB5_4SizeNtNtCs5WRdNqmsn7B_4core5clone5Clone5cloneB9_
FN:55,_RNvXsg_NtNtCs4h6wGsnYX5y_3wyn6common5typesNtB5_4RectNtNtCs5WRdNqmsn7B_4core3cmp9PartialEq2eqB9_
FN:19,_RNvXs6_NtNtCs4h6wGsnYX5y_3wyn6common5typesNtB5_5PointNtNtCs5WRdNqmsn7B_4core7default7Default7defaultB9_
FN:37,_RNvXsa_NtNtCs4h6wGsnYX5y_3wyn6common5typesNtB5_4SizeNtNtCs5WRdNqmsn7B_4core3cmp9PartialEq2eqB9_
FN:19,_RNvXs4_NtNtCs4h6wGsnYX5y_3wyn6common5typesNtB5_5PointNtNtCs5WRdNqmsn7B_4core3cmp9PartialEq2eqB9_
FN:37,_RNvXsc_NtNtCs4h6wGsnYX5y_3wyn6common5typesNtB5_4SizeNtNtCs5WRdNqmsn7B_4core7default7Default7defaultB9_
FN:19,_RNvXs2_NtNtCs4h6wGsnYX5y_3wyn6common5typesNtB5_5PointNtNtCs5WRdNqmsn7B_4core5clone5Clone5cloneB9_
FN:55,_RNvXse_NtNtCs4h6wGsnYX5y_3wyn6common5typesNtB5_4RectNtNtCs5WRdNqmsn7B_4core5clone5Clone5cloneB9_
FN:55,_RNvXsh_NtNtCs4h6wGsnYX5y_3wyn6common5typesNtB5_4RectNtNtCs5WRdNqmsn7B_4core3fmt5Debug3fmt
FN:29,_RNvMNtNtCs4h6wGsnYX5y_3wyn6common5typesNtB2_5Point3new
FN:37,_RNvXsb_NtNtCs4h6wGsnYX5y_3wyn6common5typesNtB5_4SizeNtNtCs5WRdNqmsn7B_4core3fmt5Debug3fmt
FN:65,_RNvMs0_NtNtCs4h6wGsnYX5y_3wyn6common5typesNtB5_4Rect3new
FN:47,_RNvMs_NtNtCs4h6wGsnYX5y_3wyn6common5typesNtB4_4Size3new
FN:19,_RNvXs5_NtNtCs4h6wGsnYX5y_3wyn6common5typesNtB5_5PointNtNtCs5WRdNqmsn7B_4core3fmt5Debug3fmt
FN:37,_RNvXsa_NtNtCs4h6wGsnYX5y_3wyn6common5typesNtB5_4SizeNtNtCs5WRdNqmsn7B_4core3cmp9PartialEq2eqCsiPyfK9tZqmJ_10reposition
FN:19,_RNvXs2_NtNtCs4h6wGsnYX5y_3wyn6common5typesNtB5_5PointNtNtCs5WRdNqmsn7B_4core5clone5Clone5cloneCsiPyfK9tZqmJ_10reposition
FN:55,_RNvXsg_NtNtCs4h6wGsnYX5y_3wyn6common5typesNtB5_4RectNtNtCs5WRdNqmsn7B_4core3cmp9PartialEq2eqCsiPyfK9tZqmJ_10reposition
FN:37,_RNvXs8_NtNtCs4h6wGsnYX5y_3wyn6common5typesNtB5_4SizeNtNtCs5WRdNqmsn7B_4core5clone5Clone5cloneCsiPyfK9tZqmJ_10reposition
FN:19,_RNvXs4_NtNtCs4h6wGsnYX5y_3wyn6common5typesNtB5_5PointNtNtCs5WRdNqmsn7B_4core3cmp9PartialEq2eqCsiPyfK9tZqmJ_10reposition
FN:55,_RNvXse_NtNtCs4h6wGsnYX5y_3wyn6common5typesNtB5_4RectNtNtCs5WRdNqmsn7B_4core5clone5Clone5cloneCsiPyfK9tZqmJ_10reposition
FN:65,_RNvMs0_NtNtCs3vY6VOeawRw_3wyn6common5typesNtB5_4Rect3new
FN:29,_RNvMNtNtCs3vY6VOeawRw_3wyn6common5typesNtB2_5Point3new
FN:19,_RNvXs6_NtNtCs3vY6VOeawRw_3wyn6common5typesNtB5_5PointNtNtCs5WRdNqmsn7B_4core7default7Default7defaultB9_
FN:55,_RNvXse_NtNtCs3vY6VOeawRw_3wyn6common5typesNtB5_4RectNtNtCs5WRdNqmsn7B_4core5clone5Clone5cloneB9_
FN:55,_RNvXsi_NtNtCs3vY6VOeawRw_3wyn6common5typesNtB5_4RectNtNtCs5WRdNqmsn7B_4core7default7Default7defaultB9_
FN:37,_RNvXs8_NtNtCs3vY6VOeawRw_3wyn6common5typesNtB5_4SizeNtNtCs5WRdNqmsn7B_4core5clone5Clone5cloneB9_
FN:19,_RNvXs4_NtNtCs3vY6VOeawRw_3wyn6common5typesNtB5_5PointNtNtCs5WRdNqmsn7B_4core3cmp9PartialEq2eqB9_
FN:55,_RNvXsh_NtNtCs3vY6VOeawRw_3wyn6common5typesNtB5_4RectNtNtCs5WRdNqmsn7B_4core3fmt5Debug3fmt
FN:37,_RNvXsb_NtNtCs3vY6VOeawRw_3wyn6common5typesNtB5_4SizeNtNtCs5WRdNqmsn7B_4core3fmt5Debug3fmt
FN:19,_RNvXs5_NtNtCs3vY6VOeawRw_3wyn6common5typesNtB5_5PointNtNtCs5WRdNqmsn7B_4core3fmt5Debug3fmt
FN:47,_RNvMs_NtNtCs3vY6VOeawRw_3wyn6common5typesNtB4_4Size3new
FN:55,_RNvXsg_NtNtCs3vY6VOeawRw_3wyn6common5typesNtB5_4RectNtNtCs5WRdNqmsn7B_4core3cmp9PartialEq2eqB9_
FN:37,_RNvXsa_NtNtCs3vY6VOeawRw_3wyn6common5typesNtB5_4SizeNtNtCs5WRdNqmsn7B_4core3cmp9PartialEq2eqB9_
FN:37,_RNvXsc_NtNtCs3vY6VOeawRw_3wyn6common5typesNtB5_4SizeNtNtCs5WRdNqmsn7B_4core7default7Default7defaultB9_
FN:19,_RNvXs2_NtNtCs3vY6VOeawRw_3wyn6common5typesNtB5_5PointNtNtCs5WRdNqmsn7B_4core5clone5Clone5cloneB9_
FNDA:0,_RNvXsi_NtNtCs4h6wGsnYX5y_3wyn6common5typesNtB5_4RectNtNtCs5WRdNqmsn7B_4core7default7Default7defaultB9_
FNDA:0,_RNvXs8_NtNtCs4h6wGsnYX5y_3wyn6common5typesNtB5_4SizeNtNtCs5WRdNqmsn7B_4core5clone5Clone5cloneB9_
FNDA:0,_RNvXsg_NtNtCs4h6wGsnYX5y_3wyn6common5typesNtB5_4RectNtNtCs5WRdNqmsn7B_4core3cmp9PartialEq2eqB9_
FNDA:0,_RNvXs6_NtNtCs4h6wGsnYX5y_3wyn6common5typesNtB5_5PointNtNtCs5WRdNqmsn7B_4core7default7Default7defaultB9_
FNDA:0,_RNvXsa_NtNtCs4h6wGsnYX5y_3wyn6common5typesNtB5_4SizeNtNtCs5WRdNqmsn7B_4core3cmp9PartialEq2eqB9_
FNDA:0,_RNvXs4_NtNtCs4h6wGsnYX5y_3wyn6common5typesNtB5_5PointNtNtCs5WRdNqmsn7B_4core3cmp9PartialEq2eqB9_
FNDA:0,_RNvXsc_NtNtCs4h6wGsnYX5y_3wyn6common5typesNtB5_4SizeNtNtCs5WRdNqmsn7B_4core7default7Default7defaultB9_
FNDA:0,_RNvXs2_NtNtCs4h6wGsnYX5y_3wyn6common5typesNtB5_5PointNtNtCs5WRdNqmsn7B_4core5clone5Clone5cloneB9_
FNDA:0,_RNvXse_NtNtCs4h6wGsnYX5y_3wyn6common5typesNtB5_4RectNtNtCs5WRdNqmsn7B_4core5clone5Clone5cloneB9_
FNDA:3045,_RNvXsh_NtNtCs4h6wGsnYX5y_3wyn6common5typesNtB5_4RectNtNtCs5WRdNqmsn7B_4core3fmt5Debug3fmt
FNDA:8213,_RNvMNtNtCs4h6wGsnYX5y_3wyn6common5typesNtB2_5Point3new
FNDA:3046,_RNvXsb_NtNtCs4h6wGsnYX5y_3wyn6common5typesNtB5_4SizeNtNtCs5WRdNqmsn7B_4core3fmt5Debug3fmt
FNDA:2,_RNvMs0_NtNtCs4h6wGsnYX5y_3wyn6common5typesNtB5_4Rect3new
FNDA:2,_RNvMs_NtNtCs4h6wGsnYX5y_3wyn6common5typesNtB4_4Size3new
FNDA:5434,_RNvXs5_NtNtCs4h6wGsnYX5y_3wyn6common5typesNtB5_5PointNtNtCs5WRdNqmsn7B_4core3fmt5Debug3fmt
FNDA:4,_RNvXsa_NtNtCs4h6wGsnYX5y_3wyn6common5typesNtB5_4SizeNtNtCs5WRdNqmsn7B_4core3cmp9PartialEq2eqCsiPyfK9tZqmJ_10reposition
FNDA:1,_RNvXs2_NtNtCs4h6wGsnYX5y_3wyn6common5typesNtB5_5PointNtNtCs5WRdNqmsn7B_4core5clone5Clone5cloneCsiPyfK9tZqmJ_10reposition
FNDA:3,_RNvXsg_NtNtCs4h6wGsnYX5y_3wyn6common5typesNtB5_4RectNtNtCs5WRdNqmsn7B_4core3cmp9PartialEq2eqCsiPyfK9tZqmJ_10reposition
FNDA:1,_RNvXs8_NtNtCs4h6wGsnYX5y_3wyn6common5typesNtB5_4SizeNtNtCs5WRdNqmsn7B_4core5clone5Clone5cloneCsiPyfK9tZqmJ_10reposition
FNDA:4,_RNvXs4_NtNtCs4h6wGsnYX5y_3wyn6common5typesNtB5_5PointNtNtCs5WRdNqmsn7B_4core3cmp9PartialEq2eqCsiPyfK9tZqmJ_10reposition
FNDA:1,_RNvXse_NtNtCs4h6wGsnYX5y_3wyn6common5typesNtB5_4RectNtNtCs5WRdNqmsn7B_4core5clone5Clone5cloneCsiPyfK9tZqmJ_10reposition
FNDA:0,_RNvMs0_NtNtCs3vY6VOeawRw_3wyn6common5typesNtB5_4Rect3new
FNDA:0,_RNvMNtNtCs3vY6VOeawRw_3wyn6common5typesNtB2_5Point3new
FNDA:0,_RNvXs6_NtNtCs3vY6VOeawRw_3wyn6common5typesNtB5_5PointNtNtCs5WRdNqmsn7B_4core7default7Default7defaultB9_
FNDA:0,_RNvXse_NtNtCs3vY6VOeawRw_3wyn6common5typesNtB5_4RectNtNtCs5WRdNqmsn7B_4core5clone5Clone5cloneB9_
FNDA:0,_RNvXsi_NtNtCs3vY6VOeawRw_3wyn6common5typesNtB5_4RectNtNtCs5WRdNqmsn7B_4core7default7Default7defaultB9_
FNDA:0,_RNvXs8_NtNtCs3vY6VOeawRw_3wyn6common5typesNtB5_4SizeNtNtCs5WRdNqmsn7B_4core5clone5Clone5cloneB9_
FNDA:0,_RNvXs4_NtNtCs3vY6VOeawRw_3wyn6common5typesNtB5_5PointNtNtCs5WRdNqmsn7B_4core3cmp9PartialEq2eqB9_
FNDA:0,_RNvXsh_NtNtCs3vY6VOeawRw_3wyn6common5typesNtB5_4RectNtNtCs5WRdNqmsn7B_4core3fmt5Debug3fmt
FNDA:0,_RNvXsb_NtNtCs3vY6VOeawRw_3wyn6common5typesNtB5_4SizeNtNtCs5WRdNqmsn7B_4core3fmt5Debug3fmt
FNDA:0,_RNvXs5_NtNtCs3vY6VOeawRw_3wyn6common5typesNtB5_5PointNtNtCs5WRdNqmsn7B_4core3fmt5Debug3fmt
FNDA:0,_RNvMs_NtNtCs3vY6VOeawRw_3wyn6common5typesNtB4_4Size3new
FNDA:0,_RNvXsg_NtNtCs3vY6VOeawRw_3wyn6common5typesNtB5_4RectNtNtCs5WRdNqmsn7B_4core3cmp9PartialEq2eqB9_
FNDA:0,_RNvXsa_NtNtCs3vY6VOeawRw_3wyn6common5typesNtB5_4SizeNtNtCs5WRdNqmsn7B_4core3cmp9PartialEq2eqB9_
FNDA:0,_RNvXsc_NtNtCs3vY6VOeawRw_3wyn6common5typesNtB5_4SizeNtNtCs5WRdNqmsn7B_4core7default7Default7defaultB9_
FNDA:0,_RNvXs2_NtNtCs3vY6VOeawRw_3wyn6common5typesNtB5_5PointNtNtCs5WRdNqmsn7B_4core5clone5Clone5cloneB9_
FNF:15
FNH:12
DA:19,5434
DA:29,8213
DA:30,8213
DA:31,8213
DA:37,3046
DA:47,2
DA:48,2
DA:49,2
DA:55,3045
DA:65,2
DA:66,2
DA:67,2
DA:68,2
DA:69,2
DA:70,2
BRF:0
BRH:0
LF:24
LH:21
end_of_record
SF:C:\Users\luigi\College\Spring 2023\Capstone\EricGrandizio\wyn\src\lib.rs
FN:1,_RNvCs3vY6VOeawRw_3wyn4main
FNDA:2,_RNvCs3vY6VOeawRw_3wyn4main
FNF:1
FNH:1
DA:1,2
BRF:0
BRH:0
LF:1
LH:1
end_of_record
SF:C:\Users\luigi\College\Spring 2023\Capstone\EricGrandizio\wyn\src\win32\errors.rs
FN:250,_RNvMs5_NtNtCs4h6wGsnYX5y_3wyn5win326errorsNtB5_15WinErrorMessage9os_string
FN:147,_RNvXs1_NtNtCs4h6wGsnYX5y_3wyn5win326errorsNtB5_8WinErrorNtNtCs5WRdNqmsn7B_4core3fmt5Debug3fmt
FN:63,_RNvNtNtCs4h6wGsnYX5y_3wyn5win326errors19resume_if_panicking
FN:36,_RNvNtNtCs4h6wGsnYX5y_3wyn5win326errors12is_panicking
FN:135,_RNvMs_NtNtCs4h6wGsnYX5y_3wyn5win326errorsNtB4_8WinError7message
FN:31,_RNvNtNtCs4h6wGsnYX5y_3wyn5win326errors21internal_is_panicking
FN:107,_RNvMNtNtCs4h6wGsnYX5y_3wyn5win326errorsNtB2_8WinError3new
FN:120,_RNvMNtNtCs4h6wGsnYX5y_3wyn5win326errorsNtB2_8WinError5clear
FN:130,_RNvMs_NtNtCs4h6wGsnYX5y_3wyn5win326errorsNtB4_8WinError4code
FN:155,_RNvXs2_NtNtCs4h6wGsnYX5y_3wyn5win326errorsNtB5_8WinErrorNtNtCs5WRdNqmsn7B_4core3fmt7Display3fmt
FN:183,_RNvMs3_NtNtCs4h6wGsnYX5y_3wyn5win326errorsNtB5_15WinErrorMessage3new
FN:44,_RNvNtNtCs4h6wGsnYX5y_3wyn5win326errors11store_panic
FN:112,_RNvMNtNtCs4h6wGsnYX5y_3wyn5win326errorsNtB2_8WinError7current
FN:242,_RNvMs5_NtNtCs4h6wGsnYX5y_3wyn5win326errorsNtB5_15WinErrorMessage8os_slice
FN:232,_RNvXs4_NtNtCs4h6wGsnYX5y_3wyn5win326errorsNtB5_15WinErrorMessageNtNtNtCs5WRdNqmsn7B_4core3ops4drop4Drop4drop
FN:63,_RNvNtNtCs3vY6VOeawRw_3wyn5win326errors19resume_if_panicking
FN:155,_RNvXs2_NtNtCs3vY6VOeawRw_3wyn5win326errorsNtB5_8WinErrorNtNtCs5WRdNqmsn7B_4core3fmt7Display3fmt
FN:135,_RNvMs_NtNtCs3vY6VOeawRw_3wyn5win326errorsNtB4_8WinError7message
FN:250,_RNvMs5_NtNtCs3vY6VOeawRw_3wyn5win326errorsNtB5_15WinErrorMessage9os_string
FN:130,_RNvMs_NtNtCs3vY6VOeawRw_3wyn5win326errorsNtB4_8WinError4code
FN:31,_RNvNtNtCs3vY6VOeawRw_3wyn5win326errors21internal_is_panicking
FN:107,_RNvMNtNtCs3vY6VOeawRw_3wyn5win326errorsNtB2_8WinError3new
FN:120,_RNvMNtNtCs3vY6VOeawRw_3wyn5win326errorsNtB2_8WinError5clear
FN:232,_RNvXs4_NtNtCs3vY6VOeawRw_3wyn5win326errorsNtB5_15WinErrorMessageNtNtNtCs5WRdNqmsn7B_4core3ops4drop4Drop4drop
FN:44,_RNvNtNtCs3vY6VOeawRw_3wyn5win326errors11store_panic
FN:242,_RNvMs5_NtNtCs3vY6VOeawRw_3wyn5win326errorsNtB5_15WinErrorMessage8os_slice
FN:112,_RNvMNtNtCs3vY6VOeawRw_3wyn5win326errorsNtB2_8WinError7current
FN:147,_RNvXs1_NtNtCs3vY6VOeawRw_3wyn5win326errorsNtB5_8WinErrorNtNtCs5WRdNqmsn7B_4core3fmt5Debug3fmt
FN:36,_RNvNtNtCs3vY6VOeawRw_3wyn5win326errors12is_panicking
FN:183,_RNvMs3_NtNtCs3vY6VOeawRw_3wyn5win326errorsNtB5_15WinErrorMessage3new
FNDA:2,_RNvMs5_NtNtCs4h6wGsnYX5y_3wyn5win326errorsNtB5_15WinErrorMessage9os_string
FNDA:1,_RNvXs1_NtNtCs4h6wGsnYX5y_3wyn5win326errorsNtB5_8WinErrorNtNtCs5WRdNqmsn7B_4core3fmt5Debug3fmt
FNDA:20172,_RNvNtNtCs4h6wGsnYX5y_3wyn5win326errors19resume_if_panicking
FNDA:20,_RNvNtNtCs4h6wGsnYX5y_3wyn5win326errors12is_panicking
FNDA:2,_RNvMs_NtNtCs4h6wGsnYX5y_3wyn5win326errorsNtB4_8WinError7message
FNDA:63001,_RNvNtNtCs4h6wGsnYX5y_3wyn5win326errors21internal_is_panicking
FNDA:505,_RNvMNtNtCs4h6wGsnYX5y_3wyn5win326errorsNtB2_8WinError3new
FNDA:14,_RNvMNtNtCs4h6wGsnYX5y_3wyn5win326errorsNtB2_8WinError5clear
FNDA:391,_RNvMs_NtNtCs4h6wGsnYX5y_3wyn5win326errorsNtB4_8WinError4code
FNDA:1,_RNvXs2_NtNtCs4h6wGsnYX5y_3wyn5win326errorsNtB5_8WinErrorNtNtCs5WRdNqmsn7B_4core3fmt7Display3fmt
FNDA:2,_RNvMs3_NtNtCs4h6wGsnYX5y_3wyn5win326errorsNtB5_15WinErrorMessage3new
FNDA:0,_RNvNtNtCs4h6wGsnYX5y_3wyn5win326errors11store_panic
FNDA:3,_RNvMNtNtCs4h6wGsnYX5y_3wyn5win326errorsNtB2_8WinError7current
FNDA:2,_RNvMs5_NtNtCs4h6wGsnYX5y_3wyn5win326errorsNtB5_15WinErrorMessage8os_slice
FNDA:2,_RNvXs4_NtNtCs4h6wGsnYX5y_3wyn5win326errorsNtB5_15WinErrorMessageNtNtNtCs5WRdNqmsn7B_4core3ops4drop4Drop4drop
FNDA:0,_RNvNtNtCs3vY6VOeawRw_3wyn5win326errors19resume_if_panicking
FNDA:0,_RNvXs2_NtNtCs3vY6VOeawRw_3wyn5win326errorsNtB5_8WinErrorNtNtCs5WRdNqmsn7B_4core3fmt7Display3fmt
FNDA:0,_RNvMs_NtNtCs3vY6VOeawRw_3wyn5win326errorsNtB4_8WinError7message
FNDA:0,_RNvMs5_NtNtCs3vY6VOeawRw_3wyn5win326errorsNtB5_15WinErrorMessage9os_string
FNDA:0,_RNvMs_NtNtCs3vY6VOeawRw_3wyn5win326errorsNtB4_8WinError4code
FNDA:0,_RNvNtNtCs3vY6VOeawRw_3wyn5win326errors21internal_is_panicking
FNDA:0,_RNvMNtNtCs3vY6VOeawRw_3wyn5win326errorsNtB2_8WinError3new
FNDA:0,_RNvMNtNtCs3vY6VOeawRw_3wyn5win326errorsNtB2_8WinError5clear
FNDA:0,_RNvXs4_NtNtCs3vY6VOeawRw_3wyn5win326errorsNtB5_15WinErrorMessageNtNtNtCs5WRdNqmsn7B_4core3ops4drop4Drop4drop
FNDA:0,_RNvNtNtCs3vY6VOeawRw_3wyn5win326errors11store_panic
FNDA:0,_RNvMs5_NtNtCs3vY6VOeawRw_3wyn5win326errorsNtB5_15WinErrorMessage8os_slice
FNDA:0,_RNvMNtNtCs3vY6VOeawRw_3wyn5win326errorsNtB2_8WinError7current
FNDA:0,_RNvXs1_NtNtCs3vY6VOeawRw_3wyn5win326errorsNtB5_8WinErrorNtNtCs5WRdNqmsn7B_4core3fmt5Debug3fmt
FNDA:0,_RNvNtNtCs3vY6VOeawRw_3wyn5win326errors12is_panicking
FNDA:0,_RNvMs3_NtNtCs3vY6VOeawRw_3wyn5win326errorsNtB5_15WinErrorMessage3new
FNF:15
FNH:14
DA:31,63001
DA:32,63001
DA:33,63001
DA:36,20
DA:37,20
DA:38,20
DA:44,0
DA:45,0
DA:48,0
DA:49,0
DA:51,0
DA:52,0
DA:53,0
DA:56,0
DA:58,0
DA:63,20172
DA:64,20172
DA:65,0
DA:66,20172
DA:67,20172
DA:107,505
DA:108,505
DA:109,505
DA:112,3
DA:113,3
DA:114,3
DA:115,3
DA:116,3
DA:120,14
DA:121,14
DA:122,14
DA:123,14
DA:130,391
DA:131,391
DA:132,391
DA:135,2
DA:136,2
DA:137,2
DA:138,2
DA:139,2
DA:147,1
DA:148,1
DA:149,1
DA:150,1
DA:151,1
DA:155,1
DA:156,1
DA:157,1
DA:158,1
DA:159,1
DA:183,2
DA:184,2
DA:185,2
DA:186,2
DA:187,2
DA:188,2
DA:189,2
DA:190,2
DA:191,2
DA:192,2
DA:193,2
DA:194,2
DA:195,2
DA:196,2
DA:197,2
DA:198,2
DA:199,2
DA:200,2
DA:201,2
DA:202,2
DA:203,2
DA:204,2
DA:205,2
DA:206,2
DA:207,2
DA:208,2
DA:212,2
DA:213,2
DA:214,2
DA:215,2
DA:216,2
DA:217,2
DA:218,2
DA:219,2
DA:220,2
DA:221,2
DA:222,2
DA:223,2
DA:224,2
DA:225,2
DA:226,2
DA:227,2
DA:228,2
DA:232,2
DA:233,2
DA:234,2
DA:235,2
DA:242,2
DA:243,2
DA:244,2
DA:245,2
DA:246,2
DA:247,2
DA:250,2
DA:251,2
DA:252,2
BRF:0
BRH:0
LF:106
LH:96
end_of_record
SF:C:\Users\luigi\College\Spring 2023\Capstone\EricGrandizio\wyn\src\win32\event_data.rs
FN:127,_RNvXs0_NtNtCs4h6wGsnYX5y_3wyn5win3210event_dataNtB5_8WinClassNtNtNtCs5WRdNqmsn7B_4core3ops4drop4Drop4drop
FN:151,_RNvXs2_NtNtCs4h6wGsnYX5y_3wyn5win3210event_dataNtB5_7WinHookNtNtNtCs5WRdNqmsn7B_4core3ops4drop4Drop4drop
FN:45,_RNvMNtNtCs4h6wGsnYX5y_3wyn5win3210event_dataNtB2_9EventData3new
FN:72,_RNvMNtNtCs4h6wGsnYX5y_3wyn5win3210event_dataNtB2_9EventData11set_running
FN:96,_RNvMs_NtNtCs4h6wGsnYX5y_3wyn5win3210event_dataNtB4_8WinClass3new
FN:67,_RNvMNtNtCs4h6wGsnYX5y_3wyn5win3210event_dataNtB2_9EventData11get_running
FN:140,_RNvMs1_NtNtCs4h6wGsnYX5y_3wyn5win3210event_dataNtB5_7WinHook3new
FN:127,_RNvXs0_NtNtCs3vY6VOeawRw_3wyn5win3210event_dataNtB5_8WinClassNtNtNtCs5WRdNqmsn7B_4core3ops4drop4Drop4drop
FN:72,_RNvMNtNtCs3vY6VOeawRw_3wyn5win3210event_dataNtB2_9EventData11set_running
FN:151,_RNvXs2_NtNtCs3vY6VOeawRw_3wyn5win3210event_dataNtB5_7WinHookNtNtNtCs5WRdNqmsn7B_4core3ops4drop4Drop4drop
FN:45,_RNvMNtNtCs3vY6VOeawRw_3wyn5win3210event_dataNtB2_9EventData3new
FN:140,_RNvMs1_NtNtCs3vY6VOeawRw_3wyn5win3210event_dataNtB5_7WinHook3new
FN:67,_RNvMNtNtCs3vY6VOeawRw_3wyn5win3210event_dataNtB2_9EventData11get_running
FN:96,_RNvMs_NtNtCs3vY6VOeawRw_3wyn5win3210event_dataNtB4_8WinClass3new
FNDA:14,_RNvXs0_NtNtCs4h6wGsnYX5y_3wyn5win3210event_dataNtB5_8WinClassNtNtNtCs5WRdNqmsn7B_4core3ops4drop4Drop4drop
FNDA:14,_RNvXs2_NtNtCs4h6wGsnYX5y_3wyn5win3210event_dataNtB5_7WinHookNtNtNtCs5WRdNqmsn7B_4core3ops4drop4Drop4drop
FNDA:14,_RNvMNtNtCs4h6wGsnYX5y_3wyn5win3210event_dataNtB2_9EventData3new
FNDA:24,_RNvMNtNtCs4h6wGsnYX5y_3wyn5win3210event_dataNtB2_9EventData11set_running
FNDA:14,_RNvMs_NtNtCs4h6wGsnYX5y_3wyn5win3210event_dataNtB4_8WinClass3new
FNDA:178,_RNvMNtNtCs4h6wGsnYX5y_3wyn5win3210event_dataNtB2_9EventData11get_running
FNDA:14,_RNvMs1_NtNtCs4h6wGsnYX5y_3wyn5win3210event_dataNtB5_7WinHook3new
FNDA:0,_RNvXs0_NtNtCs3vY6VOeawRw_3wyn5win3210event_dataNtB5_8WinClassNtNtNtCs5WRdNqmsn7B_4core3ops4drop4Drop4drop
FNDA:0,_RNvMNtNtCs3vY6VOeawRw_3wyn5win3210event_dataNtB2_9EventData11set_running
FNDA:0,_RNvXs2_NtNtCs3vY6VOeawRw_3wyn5win3210event_dataNtB5_7WinHookNtNtNtCs5WRdNqmsn7B_4core3ops4drop4Drop4drop
FNDA:0,_RNvMNtNtCs3vY6VOeawRw_3wyn5win3210event_dataNtB2_9EventData3new
FNDA:0,_RNvMs1_NtNtCs3vY6VOeawRw_3wyn5win3210event_dataNtB5_7WinHook3new
FNDA:0,_RNvMNtNtCs3vY6VOeawRw_3wyn5win3210event_dataNtB2_9EventData11get_running
FNDA:0,_RNvMs_NtNtCs3vY6VOeawRw_3wyn5win3210event_dataNtB4_8WinClass3new
FNF:7
FNH:7
DA:45,14
DA:46,14
DA:47,14
DA:48,14
DA:49,14
DA:50,14
DA:51,14
DA:53,14
DA:55,14
DA:57,14
DA:58,14
DA:59,14
DA:60,14
DA:61,14
DA:62,14
DA:63,14
DA:64,14
DA:67,178
DA:68,178
DA:69,178
DA:72,24
DA:73,24
DA:74,24
DA:75,24
DA:76,24
DA:96,14
DA:98,14
DA:99,14
DA:100,14
DA:101,14
DA:102,14
DA:103,14
DA:104,14
DA:105,14
DA:106,14
DA:107,14
DA:108,14
DA:109,14
DA:110,14
DA:111,14
DA:112,14
DA:113,14
DA:114,14
DA:115,14
DA:116,14
DA:119,14
DA:120,14
DA:122,14
DA:123,14
DA:127,14
DA:128,14
DA:129,14
DA:130,14
DA:140,14
DA:141,14
DA:142,14
DA:143,14
DA:144,14
DA:146,14
DA:147,14
DA:151,14
DA:152,14
DA:153,14
DA:154,14
BRF:0
BRH:0
LF:64
LH:64
end_of_record
SF:C:\Users\luigi\College\Spring 2023\Capstone\EricGrandizio\wyn\src\win32\event_loop.rs
FN:117,_RNvXs1_NtNtCs4h6wGsnYX5y_3wyn5win3210event_loopNtB5_14EventLoopGuardNtNtNtCs5WRdNqmsn7B_4core3ops4drop4Drop4drop
FN:187,_RNvMs3_NtNtCs4h6wGsnYX5y_3wyn5win3210event_loopNtB5_9EventLoop14is_this_thread
FN:329,_RNvMs4_NtNtCs4h6wGsnYX5y_3wyn5win3210event_loopNtB5_9EventLoop12signal_tasks
FN:134,_RNvMs2_NtNtCs4h6wGsnYX5y_3wyn5win3210event_loopNtB5_9EventLoop3run
FN:568,_RNvMs5_NtNtCs4h6wGsnYX5y_3wyn5win3210event_loopNtB5_9EventLoop22internal_hookproc_impl
FN:602,_RNvMs5_NtNtCs4h6wGsnYX5y_3wyn5win3210event_loopNtB5_9EventLoop19internal_close_proc
FN:392,_RNvMs5_NtNtCs4h6wGsnYX5y_3wyn5win3210event_loopNtB5_9EventLoop21internal_wndproc_impl
FN:100,_RNvMs0_NtNtCs4h6wGsnYX5y_3wyn5win3210event_loopNtB5_14EventLoopGuard3new
FN:51,_RNvMs_NtNtCs4h6wGsnYX5y_3wyn5win3210event_loopNtB4_9EventLoop3new
FN:193,_RNvMs3_NtNtCs4h6wGsnYX5y_3wyn5win3210event_loopNtB5_9EventLoop10is_running
FN:151,_RNvMs2_NtNtCs4h6wGsnYX5y_3wyn5win3210event_loopNtB5_9EventLoop12internal_run
FN:596,_RNvMs5_NtNtCs4h6wGsnYX5y_3wyn5win3210event_loopNtB5_9EventLoop29internal_close_thread_windows
FN:230,_RNvMs3_NtNtCs4h6wGsnYX5y_3wyn5win3210event_loopNtB5_9EventLoop17await_termination
FN:363,_RNvMs5_NtNtCs4h6wGsnYX5y_3wyn5win3210event_loopNtB5_9EventLoop16internal_wndproc
FN:216,_RNvMs3_NtNtCs4h6wGsnYX5y_3wyn5win3210event_loopNtB5_9EventLoop13await_startup
FN:198,_RNvMs3_NtNtCs4h6wGsnYX5y_3wyn5win3210event_loopNtB5_9EventLoop12request_stop
FN:339,_RNvMs4_NtNtCs4h6wGsnYX5y_3wyn5win3210event_loopNtB5_9EventLoop11clear_tasks
FN:549,_RNvMs5_NtNtCs4h6wGsnYX5y_3wyn5win3210event_loopNtB5_9EventLoop17internal_hookproc
FN:282,_RINvMs4_NtNtCs4h6wGsnYX5y_3wyn5win3210event_loopNtB6_9EventLoop15execute_discardppEBa_
FN:292,_RNCINvMs4_NtNtCs4h6wGsnYX5y_3wyn5win3210event_loopNtB8_9EventLoop15execute_discardppE0Bc_
FN:235,_RNCNvMs3_NtNtCs4h6wGsnYX5y_3wyn5win3210event_loopNtB7_9EventLoop17await_termination0Bb_
FN:201,_RNCNvMs3_NtNtCs4h6wGsnYX5y_3wyn5win3210event_loopNtB7_9EventLoop12request_stop0Bb_
FN:253,_RINvMs4_NtNtCs4h6wGsnYX5y_3wyn5win3210event_loopNtB6_9EventLoop7executeINtNtCs5WRdNqmsn7B_4core6result6ResultNtNtB8_6window6WindowNtNtB8_6errors8WinErrorENCNvMs0_B1L_B1J_4open0EBa_
FN:221,_RNCNvMs3_NtNtCs4h6wGsnYX5y_3wyn5win3210event_loopNtB7_9EventLoop13await_startup0Bb_
FN:264,_RNCINvMs4_NtNtCs4h6wGsnYX5y_3wyn5win3210event_loopNtB8_9EventLoop7executeINtNtCs5WRdNqmsn7B_4core6result6ResultNtNtBa_6window6WindowNtNtBa_6errors8WinErrorENCNvMs0_B1N_B1L_4open0E0Bc_
FN:312,_RINvMs4_NtNtCs4h6wGsnYX5y_3wyn5win3210event_loopNtB6_9EventLoop16execute_detacheduNCNvMs3_B6_BK_12request_stop0EBa_
FN:371,_RNCNvMs5_NtNtCs4h6wGsnYX5y_3wyn5win3210event_loopNtB7_9EventLoop16internal_wndproc0Bb_
FN:556,_RNCNvMs5_NtNtCs4h6wGsnYX5y_3wyn5win3210event_loopNtB7_9EventLoop17internal_hookproc0Bb_
FN:253,_RINvMs4_NtNtCs4h6wGsnYX5y_3wyn5win3210event_loopNtB6_9EventLoop7executeINtNtCs5WRdNqmsn7B_4core6result6ResultuNtNtB8_6errors8WinErrorENCNvMs0_NtB8_6windowNtB2g_6Window5close0EBa_
FN:316,_RNCINvMs4_NtNtCs4h6wGsnYX5y_3wyn5win3210event_loopNtB8_9EventLoop16execute_detacheduNCNvMs3_B8_BM_12request_stop0E0Bc_
FN:264,_RNCINvMs4_NtNtCs4h6wGsnYX5y_3wyn5win3210event_loopNtB8_9EventLoop7executeINtNtCs5WRdNqmsn7B_4core6result6ResultuNtNtBa_6errors8WinErrorENCNvMs0_NtBa_6windowNtB2i_6Window5close0E0Bc_
FN:345,_RNCNvMs4_NtNtCs4h6wGsnYX5y_3wyn5win3210event_loopNtB7_9EventLoop11clear_tasks0Bb_
FN:253,_RINvMs4_NtNtCs4h6wGsnYX5y_3wyn5win3210event_loopNtB6_9EventLoop7executeuNCNvMCsi1CHggj87bF_7executeNtB1d_7TestApp3runs_0EB1d_
FN:253,_RINvMs4_NtNtCs4h6wGsnYX5y_3wyn5win3210event_loopNtB6_9EventLoop7executeuNCNvXs_Csi1CHggj87bF_7executeNtB1f_7TestAppNtNtB8_6events12EventHandler5starts_0EB1f_
FN:264,_RNCINvMs4_NtNtCs4h6wGsnYX5y_3wyn5win3210event_loopNtB8_9EventLoop7executeuNCNvMCsi1CHggj87bF_7executeNtB1f_7TestApp3runs0_0E0B1f_
FN:292,_RNCINvMs4_NtNtCs4h6wGsnYX5y_3wyn5win3210event_loopNtB8_9EventLoop15execute_discarduNCNvMCsi1CHggj87bF_7executeNtB1o_7TestApp3run0E0B1o_
FN:292,_RNCINvMs4_NtNtCs4h6wGsnYX5y_3wyn5win3210event_loopNtB8_9EventLoop15execute_discarduNCNvXs_Csi1CHggj87bF_7executeNtB1q_7TestAppNtNtBa_6events12EventHandler5start0E0B1q_
FN:264,_RNCINvMs4_NtNtCs4h6wGsnYX5y_3wyn5win3210event_loopNtB8_9EventLoop7executeuNCNvXs_Csi1CHggj87bF_7executeNtB1h_7TestAppNtNtBa_6events12EventHandler5starts1_0E0B1h_
FN:264,_RNCINvMs4_NtNtCs4h6wGsnYX5y_3wyn5win3210event_loopNtB8_9EventLoop7executeuNCNvXs_Csi1CHggj87bF_7executeNtB1h_7TestAppNtNtBa_6events12EventHandler5starts_0E0B1h_
FN:282,_RINvMs4_NtNtCs4h6wGsnYX5y_3wyn5win3210event_loopNtB6_9EventLoop15execute_discarduNCNvMCsi1CHggj87bF_7executeNtB1m_7TestApp3run0EB1m_
FN:253,_RINvMs4_NtNtCs4h6wGsnYX5y_3wyn5win3210event_loopNtB6_9EventLoop7executeuNCNvXs_Csi1CHggj87bF_7executeNtB1f_7TestAppNtNtB8_6events12EventHandler5starts1_0EB1f_
FN:282,_RINvMs4_NtNtCs4h6wGsnYX5y_3wyn5win3210event_loopNtB6_9EventLoop15execute_discarduNCNvXs_Csi1CHggj87bF_7executeNtB1o_7TestAppNtNtB8_6events12EventHandler5start0EB1o_
FN:253,_RINvMs4_NtNtCs4h6wGsnYX5y_3wyn5win3210event_loopNtB6_9EventLoop7executeuNCNvMCsi1CHggj87bF_7executeNtB1d_7TestApp3runs1_0EB1d_
FN:264,_RNCINvMs4_NtNtCs4h6wGsnYX5y_3wyn5win3210event_loopNtB8_9EventLoop7executeuNCNvMCsi1CHggj87bF_7executeNtB1f_7TestApp3runs1_0E0B1f_
FN:264,_RNCINvMs4_NtNtCs4h6wGsnYX5y_3wyn5win3210event_loopNtB8_9EventLoop7executeuNCNvMCsi1CHggj87bF_7executeNtB1f_7TestApp3runs_0E0B1f_
FN:264,_RNCINvMs4_NtNtCs4h6wGsnYX5y_3wyn5win3210event_loopNtB8_9EventLoop7executeuNCNvXs_Csi1CHggj87bF_7executeNtB1h_7TestAppNtNtBa_6events12EventHandler5starts0_0E0B1h_
FN:253,_RINvMs4_NtNtCs4h6wGsnYX5y_3wyn5win3210event_loopNtB6_9EventLoop7executeuNCNvMCsi1CHggj87bF_7executeNtB1d_7TestApp3runs0_0EB1d_
FN:253,_RINvMs4_NtNtCs4h6wGsnYX5y_3wyn5win3210event_loopNtB6_9EventLoop7executeuNCNvXs_Csi1CHggj87bF_7executeNtB1f_7TestAppNtNtB8_6events12EventHandler5starts0_0EB1f_
FN:216,_RNvMs3_NtNtCs3vY6VOeawRw_3wyn5win3210event_loopNtB5_9EventLoop13await_startup
FN:100,_RNvMs0_NtNtCs3vY6VOeawRw_3wyn5win3210event_loopNtB5_14EventLoopGuard3new
FN:230,_RNvMs3_NtNtCs3vY6VOeawRw_3wyn5win3210event_loopNtB5_9EventLoop17await_termination
FN:371,_RNCNvMs5_NtNtCs3vY6VOeawRw_3wyn5win3210event_loopNtB7_9EventLoop16internal_wndproc0Bb_
FN:329,_RNvMs4_NtNtCs3vY6VOeawRw_3wyn5win3210event_loopNtB5_9EventLoop12signal_tasks
FN:602,_RNvMs5_NtNtCs3vY6VOeawRw_3wyn5win3210event_loopNtB5_9EventLoop19internal_close_proc
FN:151,_RNvMs2_NtNtCs3vY6VOeawRw_3wyn5win3210event_loopNtB5_9EventLoop12internal_run
FN:316,_RNCINvMs4_NtNtCs3vY6VOeawRw_3wyn5win3210event_loopNtB8_9EventLoop16execute_detachedppE0Bc_
FN:549,_RNvMs5_NtNtCs3vY6VOeawRw_3wyn5win3210event_loopNtB5_9EventLoop17internal_hookproc
FN:556,_RNCNvMs5_NtNtCs3vY6VOeawRw_3wyn5win3210event_loopNtB7_9EventLoop17internal_hookproc0Bb_
FN:345,_RNCNvMs4_NtNtCs3vY6VOeawRw_3wyn5win3210event_loopNtB7_9EventLoop11clear_tasks0Bb_
FN:264,_RNCINvMs4_NtNtCs3vY6VOeawRw_3wyn5win3210event_loopNtB8_9EventLoop7executeppE0Bc_
FN:221,_RNCNvMs3_NtNtCs3vY6VOeawRw_3wyn5win3210event_loopNtB7_9EventLoop13await_startup0Bb_
FN:187,_RNvMs3_NtNtCs3vY6VOeawRw_3wyn5win3210event_loopNtB5_9EventLoop14is_this_thread
FN:312,_RINvMs4_NtNtCs3vY6VOeawRw_3wyn5win3210event_loopNtB6_9EventLoop16execute_detachedppEBa_
FN:568,_RNvMs5_NtNtCs3vY6VOeawRw_3wyn5win3210event_loopNtB5_9EventLoop22internal_hookproc_impl
FN:392,_RNvMs5_NtNtCs3vY6VOeawRw_3wyn5win3210event_loopNtB5_9EventLoop21internal_wndproc_impl
FN:282,_RINvMs4_NtNtCs3vY6VOeawRw_3wyn5win3210event_loopNtB6_9EventLoop15execute_discardppEBa_
FN:51,_RNvMs_NtNtCs3vY6VOeawRw_3wyn5win3210event_loopNtB4_9EventLoop3new
FN:339,_RNvMs4_NtNtCs3vY6VOeawRw_3wyn5win3210event_loopNtB5_9EventLoop11clear_tasks
FN:253,_RINvMs4_NtNtCs3vY6VOeawRw_3wyn5win3210event_loopNtB6_9EventLoop7executeppEBa_
FN:117,_RNvXs1_NtNtCs3vY6VOeawRw_3wyn5win3210event_loopNtB5_14EventLoopGuardNtNtNtCs5WRdNqmsn7B_4core3ops4drop4Drop4drop
FN:235,_RNCNvMs3_NtNtCs3vY6VOeawRw_3wyn5win3210event_loopNtB7_9EventLoop17await_termination0Bb_
FN:363,_RNvMs5_NtNtCs3vY6VOeawRw_3wyn5win3210event_loopNtB5_9EventLoop16internal_wndproc
FN:201,_RNCNvMs3_NtNtCs3vY6VOeawRw_3wyn5win3210event_loopNtB7_9EventLoop12request_stop0Bb_
FN:292,_RNCINvMs4_NtNtCs3vY6VOeawRw_3wyn5win3210event_loopNtB8_9EventLoop15execute_discardppE0Bc_
FN:198,_RNvMs3_NtNtCs3vY6VOeawRw_3wyn5win3210event_loopNtB5_9EventLoop12request_stop
FN:134,_RNvMs2_NtNtCs3vY6VOeawRw_3wyn5win3210event_loopNtB5_9EventLoop3run
FN:193,_RNvMs3_NtNtCs3vY6VOeawRw_3wyn5win3210event_loopNtB5_9EventLoop10is_running
FN:596,_RNvMs5_NtNtCs3vY6VOeawRw_3wyn5win3210event_loopNtB5_9EventLoop29internal_close_thread_windows
FNDA:12,_RNvXs1_NtNtCs4h6wGsnYX5y_3wyn5win3210event_loopNtB5_14EventLoopGuardNtNtNtCs5WRdNqmsn7B_4core3ops4drop4Drop4drop
FNDA:51,_RNvMs3_NtNtCs4h6wGsnYX5y_3wyn5win3210event_loopNtB5_9EventLoop14is_this_thread
FNDA:21,_RNvMs4_NtNtCs4h6wGsnYX5y_3wyn5win3210event_loopNtB5_9EventLoop12signal_tasks
FNDA:13,_RNvMs2_NtNtCs4h6wGsnYX5y_3wyn5win3210event_loopNtB5_9EventLoop3run
FNDA:15463,_RNvMs5_NtNtCs4h6wGsnYX5y_3wyn5win3210event_loopNtB5_9EventLoop22internal_hookproc_impl
FNDA:1,_RNvMs5_NtNtCs4h6wGsnYX5y_3wyn5win3210event_loopNtB5_9EventLoop19internal_close_proc
FNDA:47538,_RNvMs5_NtNtCs4h6wGsnYX5y_3wyn5win3210event_loopNtB5_9EventLoop21internal_wndproc_impl
FNDA:13,_RNvMs0_NtNtCs4h6wGsnYX5y_3wyn5win3210event_loopNtB5_14EventLoopGuard3new
FNDA:16,_RNvMs_NtNtCs4h6wGsnYX5y_3wyn5win3210event_loopNtB4_9EventLoop3new
FNDA:165,_RNvMs3_NtNtCs4h6wGsnYX5y_3wyn5win3210event_loopNtB5_9EventLoop10is_running
FNDA:12,_RNvMs2_NtNtCs4h6wGsnYX5y_3wyn5win3210event_loopNtB5_9EventLoop12internal_run
FNDA:25,_RNvMs5_NtNtCs4h6wGsnYX5y_3wyn5win3210event_loopNtB5_9EventLoop29internal_close_thread_windows
FNDA:1,_RNvMs3_NtNtCs4h6wGsnYX5y_3wyn5win3210event_loopNtB5_9EventLoop17await_termination
FNDA:47538,_RNvMs5_NtNtCs4h6wGsnYX5y_3wyn5win3210event_loopNtB5_9EventLoop16internal_wndproc
FNDA:6,_RNvMs3_NtNtCs4h6wGsnYX5y_3wyn5win3210event_loopNtB5_9EventLoop13await_startup
FNDA:17,_RNvMs3_NtNtCs4h6wGsnYX5y_3wyn5win3210event_loopNtB5_9EventLoop12request_stop
FNDA:17,_RNvMs4_NtNtCs4h6wGsnYX5y_3wyn5win3210event_loopNtB5_9EventLoop11clear_tasks
FNDA:15463,_RNvMs5_NtNtCs4h6wGsnYX5y_3wyn5win3210event_loopNtB5_9EventLoop17internal_hookproc
FNDA:0,_RINvMs4_NtNtCs4h6wGsnYX5y_3wyn5win3210event_loopNtB6_9EventLoop15execute_discardppEBa_
FNDA:0,_RNCINvMs4_NtNtCs4h6wGsnYX5y_3wyn5win3210event_loopNtB8_9EventLoop15execute_discardppE0Bc_
FNDA:2,_RNCNvMs3_NtNtCs4h6wGsnYX5y_3wyn5win3210event_loopNtB7_9EventLoop17await_termination0Bb_
FNDA:13,_RNCNvMs3_NtNtCs4h6wGsnYX5y_3wyn5win3210event_loopNtB7_9EventLoop12request_stop0Bb_
FNDA:10,_RINvMs4_NtNtCs4h6wGsnYX5y_3wyn5win3210event_loopNtB6_9EventLoop7executeINtNtCs5WRdNqmsn7B_4core6result6ResultNtNtB8_6window6WindowNtNtB8_6errors8WinErrorENCNvMs0_B1L_B1J_4open0EBa_
FNDA:11,_RNCNvMs3_NtNtCs4h6wGsnYX5y_3wyn5win3210event_loopNtB7_9EventLoop13await_startup0Bb_
FNDA:0,_RNCINvMs4_NtNtCs4h6wGsnYX5y_3wyn5win3210event_loopNtB8_9EventLoop7executeINtNtCs5WRdNqmsn7B_4core6result6ResultNtNtBa_6window6WindowNtNtBa_6errors8WinErrorENCNvMs0_B1N_B1L_4open0E0Bc_
FNDA:17,_RINvMs4_NtNtCs4h6wGsnYX5y_3wyn5win3210event_loopNtB6_9EventLoop16execute_detacheduNCNvMs3_B6_BK_12request_stop0EBa_
FNDA:47538,_RNCNvMs5_NtNtCs4h6wGsnYX5y_3wyn5win3210event_loopNtB7_9EventLoop16internal_wndproc0Bb_
FNDA:15463,_RNCNvMs5_NtNtCs4h6wGsnYX5y_3wyn5win3210event_loopNtB7_9EventLoop17internal_hookproc0Bb_
FNDA:3,_RINvMs4_NtNtCs4h6wGsnYX5y_3wyn5win3210event_loopNtB6_9EventLoop7executeINtNtCs5WRdNqmsn7B_4core6result6ResultuNtNtB8_6errors8WinErrorENCNvMs0_NtB8_6windowNtB2g_6Window5close0EBa_
FNDA:13,_RNCINvMs4_NtNtCs4h6wGsnYX5y_3wyn5win3210event_loopNtB8_9EventLoop16execute_detacheduNCNvMs3_B8_BM_12request_stop0E0Bc_
FNDA:0,_RNCINvMs4_NtNtCs4h6wGsnYX5y_3wyn5win3210event_loopNtB8_9EventLoop7executeINtNtCs5WRdNqmsn7B_4core6result6ResultuNtNtBa_6errors8WinErrorENCNvMs0_NtBa_6windowNtB2i_6Window5close0E0Bc_
FNDA:34,_RNCNvMs4_NtNtCs4h6wGsnYX5y_3wyn5win3210event_loopNtB7_9EventLoop11clear_tasks0Bb_
FNDA:1,_RINvMs4_NtNtCs4h6wGsnYX5y_3wyn5win3210event_loopNtB6_9EventLoop7executeuNCNvMCsi1CHggj87bF_7executeNtB1d_7TestApp3runs_0EB1d_
FNDA:1,_RINvMs4_NtNtCs4h6wGsnYX5y_3wyn5win3210event_loopNtB6_9EventLoop7executeuNCNvXs_Csi1CHggj87bF_7executeNtB1f_7TestAppNtNtB8_6events12EventHandler5starts_0EB1f_
FNDA:1,_RNCINvMs4_NtNtCs4h6wGsnYX5y_3wyn5win3210event_loopNtB8_9EventLoop7executeuNCNvMCsi1CHggj87bF_7executeNtB1f_7TestApp3runs0_0E0B1f_
FNDA:1,_RNCINvMs4_NtNtCs4h6wGsnYX5y_3wyn5win3210event_loopNtB8_9EventLoop15execute_discarduNCNvMCsi1CHggj87bF_7executeNtB1o_7TestApp3run0E0B1o_
FNDA:0,_RNCINvMs4_NtNtCs4h6wGsnYX5y_3wyn5win3210event_loopNtB8_9EventLoop15execute_discarduNCNvXs_Csi1CHggj87bF_7executeNtB1q_7TestAppNtNtBa_6events12EventHandler5start0E0B1q_
FNDA:0,_RNCINvMs4_NtNtCs4h6wGsnYX5y_3wyn5win3210event_loopNtB8_9EventLoop7executeuNCNvXs_Csi1CHggj87bF_7executeNtB1h_7TestAppNtNtBa_6events12EventHandler5starts1_0E0B1h_
FNDA:0,_RNCINvMs4_NtNtCs4h6wGsnYX5y_3wyn5win3210event_loopNtB8_9EventLoop7executeuNCNvXs_Csi1CHggj87bF_7executeNtB1h_7TestAppNtNtBa_6events12EventHandler5starts_0E0B1h_
FNDA:1,_RINvMs4_NtNtCs4h6wGsnYX5y_3wyn5win3210event_loopNtB6_9EventLoop15execute_discarduNCNvMCsi1CHggj87bF_7executeNtB1m_7TestApp3run0EB1m_
FNDA:1,_RINvMs4_NtNtCs4h6wGsnYX5y_3wyn5win3210event_loopNtB6_9EventLoop7executeuNCNvXs_Csi1CHggj87bF_7executeNtB1f_7TestAppNtNtB8_6events12EventHandler5starts1_0EB1f_
FNDA:1,_RINvMs4_NtNtCs4h6wGsnYX5y_3wyn5win3210event_loopNtB6_9EventLoop15execute_discarduNCNvXs_Csi1CHggj87bF_7executeNtB1o_7TestAppNtNtB8_6events12EventHandler5start0EB1o_
FNDA:1,_RINvMs4_NtNtCs4h6wGsnYX5y_3wyn5win3210event_loopNtB6_9EventLoop7executeuNCNvMCsi1CHggj87bF_7executeNtB1d_7TestApp3runs1_0EB1d_
FNDA:1,_RNCINvMs4_NtNtCs4h6wGsnYX5y_3wyn5win3210event_loopNtB8_9EventLoop7executeuNCNvMCsi1CHggj87bF_7executeNtB1f_7TestApp3runs1_0E0B1f_
FNDA:1,_RNCINvMs4_NtNtCs4h6wGsnYX5y_3wyn5win3210event_loopNtB8_9EventLoop7executeuNCNvMCsi1CHggj87bF_7executeNtB1f_7TestApp3runs_0E0B1f_
FNDA:0,_RNCINvMs4_NtNtCs4h6wGsnYX5y_3wyn5win3210event_loopNtB8_9EventLoop7executeuNCNvXs_Csi1CHggj87bF_7executeNtB1h_7TestAppNtNtBa_6events12EventHandler5starts0_0E0B1h_
FNDA:1,_RINvMs4_NtNtCs4h6wGsnYX5y_3wyn5win3210event_loopNtB6_9EventLoop7executeuNCNvMCsi1CHggj87bF_7executeNtB1d_7TestApp3runs0_0EB1d_
FNDA:1,_RINvMs4_NtNtCs4h6wGsnYX5y_3wyn5win3210event_loopNtB6_9EventLoop7executeuNCNvXs_Csi1CHggj87bF_7executeNtB1f_7TestAppNtNtB8_6events12EventHandler5starts0_0EB1f_
FNDA:0,_RNvMs3_NtNtCs3vY6VOeawRw_3wyn5win3210event_loopNtB5_9EventLoop13await_startup
FNDA:0,_RNvMs0_NtNtCs3vY6VOeawRw_3wyn5win3210event_loopNtB5_14EventLoopGuard3new
FNDA:0,_RNvMs3_NtNtCs3vY6VOeawRw_3wyn5win3210event_loopNtB5_9EventLoop17await_termination
FNDA:0,_RNCNvMs5_NtNtCs3vY6VOeawRw_3wyn5win3210event_loopNtB7_9EventLoop16internal_wndproc0Bb_
FNDA:0,_RNvMs4_NtNtCs3vY6VOeawRw_3wyn5win3210event_loopNtB5_9EventLoop12signal_tasks
FNDA:0,_RNvMs5_NtNtCs3vY6VOeawRw_3wyn5win3210event_loopNtB5_9EventLoop19internal_close_proc
FNDA:0,_RNvMs2_NtNtCs3vY6VOeawRw_3wyn5win3210event_loopNtB5_9EventLoop12internal_run
FNDA:0,_RNCINvMs4_NtNtCs3vY6VOeawRw_3wyn5win3210event_loopNtB8_9EventLoop16execute_detachedppE0Bc_
FNDA:0,_RNvMs5_NtNtCs3vY6VOeawRw_3wyn5win3210event_loopNtB5_9EventLoop17internal_hookproc
FNDA:0,_RNCNvMs5_NtNtCs3vY6VOeawRw_3wyn5win3210event_loopNtB7_9EventLoop17internal_hookproc0Bb_
FNDA:0,_RNCNvMs4_NtNtCs3vY6VOeawRw_3wyn5win3210event_loopNtB7_9EventLoop11clear_tasks0Bb_
FNDA:0,_RNCINvMs4_NtNtCs3vY6VOeawRw_3wyn5win3210event_loopNtB8_9EventLoop7executeppE0Bc_
FNDA:0,_RNCNvMs3_NtNtCs3vY6VOeawRw_3wyn5win3210event_loopNtB7_9EventLoop13await_startup0Bb_
FNDA:0,_RNvMs3_NtNtCs3vY6VOeawRw_3wyn5win3210event_loopNtB5_9EventLoop14is_this_thread
FNDA:0,_RINvMs4_NtNtCs3vY6VOeawRw_3wyn5win3210event_loopNtB6_9EventLoop16execute_detachedppEBa_
FNDA:0,_RNvMs5_NtNtCs3vY6VOeawRw_3wyn5win3210event_loopNtB5_9EventLoop22internal_hookproc_impl
FNDA:0,_RNvMs5_NtNtCs3vY6VOeawRw_3wyn5win3210event_loopNtB5_9EventLoop21internal_wndproc_impl
FNDA:0,_RINvMs4_NtNtCs3vY6VOeawRw_3wyn5win3210event_loopNtB6_9EventLoop15execute_discardppEBa_
FNDA:0,_RNvMs_NtNtCs3vY6VOeawRw_3wyn5win3210event_loopNtB4_9EventLoop3new
FNDA:0,_RNvMs4_NtNtCs3vY6VOeawRw_3wyn5win3210event_loopNtB5_9EventLoop11clear_tasks
FNDA:0,_RINvMs4_NtNtCs3vY6VOeawRw_3wyn5win3210event_loopNtB6_9EventLoop7executeppEBa_
FNDA:0,_RNvXs1_NtNtCs3vY6VOeawRw_3wyn5win3210event_loopNtB5_14EventLoopGuardNtNtNtCs5WRdNqmsn7B_4core3ops4drop4Drop4drop
FNDA:0,_RNCNvMs3_NtNtCs3vY6VOeawRw_3wyn5win3210event_loopNtB7_9EventLoop17await_termination0Bb_
FNDA:0,_RNvMs5_NtNtCs3vY6VOeawRw_3wyn5win3210event_loopNtB5_9EventLoop16internal_wndproc
FNDA:0,_RNCNvMs3_NtNtCs3vY6VOeawRw_3wyn5win3210event_loopNtB7_9EventLoop12request_stop0Bb_
FNDA:0,_RNCINvMs4_NtNtCs3vY6VOeawRw_3wyn5win3210event_loopNtB8_9EventLoop15execute_discardppE0Bc_
FNDA:0,_RNvMs3_NtNtCs3vY6VOeawRw_3wyn5win3210event_loopNtB5_9EventLoop12request_stop
FNDA:0,_RNvMs2_NtNtCs3vY6VOeawRw_3wyn5win3210event_loopNtB5_9EventLoop3run
FNDA:0,_RNvMs3_NtNtCs3vY6VOeawRw_3wyn5win3210event_loopNtB5_9EventLoop10is_running
FNDA:0,_RNvMs5_NtNtCs3vY6VOeawRw_3wyn5win3210event_loopNtB5_9EventLoop29internal_close_thread_windows
FNF:30
FNH:30
DA:51,16
DA:52,16
DA:53,14
DA:55,2
DA:58,0
DA:62,14
DA:65,14
DA:67,14
DA:68,14
DA:69,14
DA:70,14
DA:71,14
DA:72,14
DA:73,14
DA:100,13
DA:101,13
DA:102,1
DA:103,12
DA:104,12
DA:105,12
DA:106,12
DA:107,12
DA:108,12
DA:109,12
DA:110,12
DA:111,12
DA:112,12
DA:113,12
DA:117,12
DA:118,12
DA:119,12
DA:120,12
DA:121,12
DA:122,12
DA:123,12
DA:124,12
DA:125,12
DA:134,13
DA:135,13
DA:136,13
DA:137,13
DA:138,13
DA:139,13
DA:140,13
DA:141,13
DA:142,13
DA:143,13
DA:144,13
DA:145,13
DA:151,12
DA:152,10086
DA:153,10086
DA:154,10086
DA:155,10086
DA:156,10086
DA:157,10086
DA:158,10086
DA:159,10086
DA:160,10086
DA:161,10086
DA:162,10086
DA:163,10086
DA:164,10086
DA:165,10086
DA:166,10086
DA:167,12
DA:168,0
DA:170,10074
DA:171,10074
DA:172,10074
DA:173,10074
DA:174,10074
DA:175,10074
DA:176,10074
DA:180,12
DA:187,51
DA:188,51
DA:189,51
DA:190,51
DA:193,165
DA:194,165
DA:195,165
DA:198,17
DA:199,17
DA:200,17
DA:201,17
DA:202,13
DA:203,13
DA:204,13
DA:205,13
DA:206,13
DA:207,13
DA:208,13
DA:209,17
DA:210,17
DA:211,17
DA:212,17
DA:216,6
DA:217,6
DA:218,6
DA:219,6
DA:220,6
DA:221,11
DA:222,11
DA:223,11
DA:224,6
DA:225,6
DA:226,6
DA:230,1
DA:231,1
DA:232,1
DA:233,1
DA:234,1
DA:235,2
DA:236,2
DA:237,2
DA:238,1
DA:239,1
DA:240,1
DA:253,19
DA:254,19
DA:255,19
DA:256,19
DA:257,19
DA:258,19
DA:259,16
DA:260,16
DA:262,3
DA:263,3
DA:264,3
DA:265,3
DA:266,3
DA:267,3
DA:268,3
DA:269,3
DA:270,3
DA:271,3
DA:272,3
DA:273,3
DA:274,3
DA:275,3
DA:276,3
DA:278,19
DA:282,2
DA:283,2
DA:284,2
DA:285,2
DA:286,2
DA:287,1
DA:288,1
DA:290,1
DA:291,1
DA:292,1
DA:293,1
DA:294,1
DA:295,1
DA:296,1
DA:297,1
DA:298,1
DA:299,1
DA:300,1
DA:301,1
DA:302,1
DA:303,1
DA:304,1
DA:306,2
DA:312,17
DA:313,17
DA:314,17
DA:315,17
DA:316,17
DA:317,13
DA:318,17
DA:319,17
DA:320,17
DA:321,17
DA:322,17
DA:323,17
DA:324,17
DA:325,17
DA:326,17
DA:329,21
DA:330,21
DA:333,21
DA:335,21
DA:336,21
DA:339,17
DA:340,17
DA:341,17
DA:345,34
DA:346,34
DA:347,34
DA:348,34
DA:351,34
DA:352,17
DA:353,17
DA:354,17
DA:363,47538
DA:364,47538
DA:365,47538
DA:366,47538
DA:367,47538
DA:368,47538
DA:369,47538
DA:370,47538
DA:371,47538
DA:373,47538
DA:374,47538
DA:375,0
DA:377,0
DA:379,0
DA:380,47538
DA:392,47538
DA:393,47538
DA:395,10
DA:396,10
DA:397,10
DA:399,10
DA:400,10
DA:401,10
DA:403,1740
DA:404,1740
DA:405,1740
DA:407,40
DA:408,40
DA:409,40
DA:410,40
DA:412,8
DA:413,8
DA:414,8
DA:415,8
DA:418,2953
DA:419,2953
DA:420,2953
DA:421,2953
DA:424,7988
DA:425,7988
DA:426,7988
DA:427,7988
DA:428,7988
DA:429,7988
DA:432,2
DA:433,2
DA:434,2
DA:435,2
DA:436,2
DA:437,2
DA:438,2
DA:442,3
DA:443,3
DA:444,3
DA:445,3
DA:446,3
DA:450,2
DA:451,2
DA:452,2
DA:453,2
DA:454,2
DA:458,2
DA:459,2
DA:460,2
DA:461,2
DA:462,2
DA:466,1
DA:467,1
DA:468,1
DA:469,1
DA:470,1
DA:474,1
DA:475,1
DA:476,1
DA:477,1
DA:478,1
DA:481,198
DA:482,198
DA:483,198
DA:484,198
DA:485,198
DA:486,198
DA:487,198
DA:488,198
DA:489,198
DA:490,198
DA:491,198
DA:492,198
DA:494,14
DA:495,14
DA:496,14
DA:497,14
DA:498,14
DA:499,14
DA:500,14
DA:501,14
DA:502,14
DA:503,14
DA:504,14
DA:505,14
DA:507,13
DA:508,13
DA:509,13
DA:510,13
DA:512,14
DA:513,14
DA:514,14
DA:515,14
DA:517,0
DA:518,0
DA:519,0
DA:520,0
DA:522,0
DA:523,0
DA:524,0
DA:525,0
DA:528,7
DA:529,7
DA:531,14
DA:532,7
DA:533,7
DA:535,34532
DA:537,0
DA:538,44585
DA:539,47538
DA:549,15463
DA:550,15463
DA:551,15463
DA:552,15463
DA:553,15463
DA:554,15463
DA:555,15463
DA:556,15463
DA:558,15463
DA:559,15463
DA:560,0
DA:562,0
DA:564,0
DA:565,15463
DA:568,15463
DA:569,15463
DA:570,15463
DA:571,15463
DA:572,15463
DA:573,15463
DA:574,15463
DA:575,15463
DA:576,15463
DA:578,15463
DA:582,15463
DA:583,17
DA:584,17
DA:585,17
DA:586,15446
DA:587,0
DA:589,15463
DA:590,15463
DA:596,25
DA:597,25
DA:598,25
DA:602,1
DA:603,1
DA:604,1
DA:605,1
DA:606,1
DA:607,1
DA:608,1
BRF:0
BRH:0
LF:379
LH:357
end_of_record
SF:C:\Users\luigi\College\Spring 2023\Capstone\EricGrandizio\wyn\src\win32\inputs.rs
FN:35,_RNvXs7_NtNtCs4h6wGsnYX5y_3wyn5win326inputsNtB5_7KeyCodeNtNtCs5WRdNqmsn7B_4core5clone5Clone5cloneB9_
FN:30,_RNvXs0_NtNtCs4h6wGsnYX5y_3wyn5win326inputsNtB5_11MouseButtonNtNtCs5WRdNqmsn7B_4core5clone5Clone5cloneB9_
FN:35,_RNvXsa_NtNtCs4h6wGsnYX5y_3wyn5win326inputsNtB5_7KeyCodeNtNtCs5WRdNqmsn7B_4core3cmp9PartialEq2eqB9_
FN:30,_RNvXs3_NtNtCs4h6wGsnYX5y_3wyn5win326inputsNtB5_11MouseButtonNtNtCs5WRdNqmsn7B_4core3cmp9PartialEq2eqB9_
FN:388,_RNvMs_NtNtCs4h6wGsnYX5y_3wyn5win326inputsNtB4_16XInputController1y
FN:475,_RNvMs_NtNtCs4h6wGsnYX5y_3wyn5win326inputsNtB4_16XInputController6packet
FN:435,_RNvMs_NtNtCs4h6wGsnYX5y_3wyn5win326inputsNtB4_16XInputController9trigger_l
FN:398,_RNvMs_NtNtCs4h6wGsnYX5y_3wyn5win326inputsNtB4_16XInputController5start
FN:408,_RNvMs_NtNtCs4h6wGsnYX5y_3wyn5win326inputsNtB4_16XInputController6dpad_d
FN:418,_RNvMs_NtNtCs4h6wGsnYX5y_3wyn5win326inputsNtB4_16XInputController6dpad_r
FN:456,_RNvMs_NtNtCs4h6wGsnYX5y_3wyn5win326inputsNtB4_16XInputController7thumb_r
FN:393,_RNvMs_NtNtCs4h6wGsnYX5y_3wyn5win326inputsNtB4_16XInputController4back
FN:35,_RNvXsd_NtNtCs4h6wGsnYX5y_3wyn5win326inputsNtB5_7KeyCodeNtNtCs5WRdNqmsn7B_4core3fmt5Debug3fmt
FN:461,_RNvMs_NtNtCs4h6wGsnYX5y_3wyn5win326inputsNtB4_16XInputController7stick_l
FN:428,_RNvMs_NtNtCs4h6wGsnYX5y_3wyn5win326inputsNtB4_16XInputController8bumper_r
FN:339,_RNvMNtNtCs4h6wGsnYX5y_3wyn5win326inputsNtB2_16XInputController7collect
FN:444,_RNvMs_NtNtCs4h6wGsnYX5y_3wyn5win326inputsNtB4_16XInputController9trigger_r
FN:413,_RNvMs_NtNtCs4h6wGsnYX5y_3wyn5win326inputsNtB4_16XInputController6dpad_l
FN:423,_RNvMs_NtNtCs4h6wGsnYX5y_3wyn5win326inputsNtB4_16XInputController8bumper_l
FN:30,_RNvXs6_NtNtCs4h6wGsnYX5y_3wyn5win326inputsNtB5_11MouseButtonNtNtCs5WRdNqmsn7B_4core3fmt5Debug3fmt
FN:373,_RNvMs_NtNtCs4h6wGsnYX5y_3wyn5win326inputsNtB4_16XInputController1a
FN:383,_RNvMs_NtNtCs4h6wGsnYX5y_3wyn5win326inputsNtB4_16XInputController1x
FN:468,_RNvMs_NtNtCs4h6wGsnYX5y_3wyn5win326inputsNtB4_16XInputController7stick_r
FN:451,_RNvMs_NtNtCs4h6wGsnYX5y_3wyn5win326inputsNtB4_16XInputController7thumb_l
FN:403,_RNvMs_NtNtCs4h6wGsnYX5y_3wyn5win326inputsNtB4_16XInputController6dpad_u
FN:378,_RNvMs_NtNtCs4h6wGsnYX5y_3wyn5win326inputsNtB4_16XInputController1b
FN:408,_RNvMs_NtNtCs3vY6VOeawRw_3wyn5win326inputsNtB4_16XInputController6dpad_d
FN:428,_RNvMs_NtNtCs3vY6VOeawRw_3wyn5win326inputsNtB4_16XInputController8bumper_r
FN:403,_RNvMs_NtNtCs3vY6VOeawRw_3wyn5win326inputsNtB4_16XInputController6dpad_u
FN:456,_RNvMs_NtNtCs3vY6VOeawRw_3wyn5win326inputsNtB4_16XInputController7thumb_r
FN:30,_RNvXs3_NtNtCs3vY6VOeawRw_3wyn5win326inputsNtB5_11MouseButtonNtNtCs5WRdNqmsn7B_4core3cmp9PartialEq2eqB9_
FN:383,_RNvMs_NtNtCs3vY6VOeawRw_3wyn5win326inputsNtB4_16XInputController1x
FN:398,_RNvMs_NtNtCs3vY6VOeawRw_3wyn5win326inputsNtB4_16XInputController5start
FN:35,_RNvXsd_NtNtCs3vY6VOeawRw_3wyn5win326inputsNtB5_7KeyCodeNtNtCs5WRdNqmsn7B_4core3fmt5Debug3fmt
FN:468,_RNvMs_NtNtCs3vY6VOeawRw_3wyn5win326inputsNtB4_16XInputController7stick_r
FN:393,_RNvMs_NtNtCs3vY6VOeawRw_3wyn5win326inputsNtB4_16XInputController4back
FN:461,_RNvMs_NtNtCs3vY6VOeawRw_3wyn5win326inputsNtB4_16XInputController7stick_l
FN:339,_RNvMNtNtCs3vY6VOeawRw_3wyn5win326inputsNtB2_16XInputController7collect
FN:388,_RNvMs_NtNtCs3vY6VOeawRw_3wyn5win326inputsNtB4_16XInputController1y
FN:35,_RNvXs7_NtNtCs3vY6VOeawRw_3wyn5win326inputsNtB5_7KeyCodeNtNtCs5WRdNqmsn7B_4core5clone5Clone5cloneB9_
FN:35,_RNvXsa_NtNtCs3vY6VOeawRw_3wyn5win326inputsNtB5_7KeyCodeNtNtCs5WRdNqmsn7B_4core3cmp9PartialEq2eqB9_
FN:30,_RNvXs6_NtNtCs3vY6VOeawRw_3wyn5win326inputsNtB5_11MouseButtonNtNtCs5WRdNqmsn7B_4core3fmt5Debug3fmt
FN:423,_RNvMs_NtNtCs3vY6VOeawRw_3wyn5win326inputsNtB4_16XInputController8bumper_l
FN:451,_RNvMs_NtNtCs3vY6VOeawRw_3wyn5win326inputsNtB4_16XInputController7thumb_l
FN:378,_RNvMs_NtNtCs3vY6VOeawRw_3wyn5win326inputsNtB4_16XInputController1b
FN:475,_RNvMs_NtNtCs3vY6VOeawRw_3wyn5win326inputsNtB4_16XInputController6packet
FN:418,_RNvMs_NtNtCs3vY6VOeawRw_3wyn5win326inputsNtB4_16XInputController6dpad_r
FN:30,_RNvXs0_NtNtCs3vY6VOeawRw_3wyn5win326inputsNtB5_11MouseButtonNtNtCs5WRdNqmsn7B_4core5clone5Clone5cloneB9_
FN:444,_RNvMs_NtNtCs3vY6VOeawRw_3wyn5win326inputsNtB4_16XInputController9trigger_r
FN:373,_RNvMs_NtNtCs3vY6VOeawRw_3wyn5win326inputsNtB4_16XInputController1a
FN:435,_RNvMs_NtNtCs3vY6VOeawRw_3wyn5win326inputsNtB4_16XInputController9trigger_l
FN:413,_RNvMs_NtNtCs3vY6VOeawRw_3wyn5win326inputsNtB4_16XInputController6dpad_l
FNDA:0,_RNvXs7_NtNtCs4h6wGsnYX5y_3wyn5win326inputsNtB5_7KeyCodeNtNtCs5WRdNqmsn7B_4core5clone5Clone5cloneB9_
FNDA:0,_RNvXs0_NtNtCs4h6wGsnYX5y_3wyn5win326inputsNtB5_11MouseButtonNtNtCs5WRdNqmsn7B_4core5clone5Clone5cloneB9_
FNDA:0,_RNvXsa_NtNtCs4h6wGsnYX5y_3wyn5win326inputsNtB5_7KeyCodeNtNtCs5WRdNqmsn7B_4core3cmp9PartialEq2eqB9_
FNDA:0,_RNvXs3_NtNtCs4h6wGsnYX5y_3wyn5win326inputsNtB5_11MouseButtonNtNtCs5WRdNqmsn7B_4core3cmp9PartialEq2eqB9_
FNDA:117,_RNvMs_NtNtCs4h6wGsnYX5y_3wyn5win326inputsNtB4_16XInputController1y
FNDA:117,_RNvMs_NtNtCs4h6wGsnYX5y_3wyn5win326inputsNtB4_16XInputController6packet
FNDA:117,_RNvMs_NtNtCs4h6wGsnYX5y_3wyn5win326inputsNtB4_16XInputController9trigger_l
FNDA:117,_RNvMs_NtNtCs4h6wGsnYX5y_3wyn5win326inputsNtB4_16XInputController5start
FNDA:117,_RNvMs_NtNtCs4h6wGsnYX5y_3wyn5win326inputsNtB4_16XInputController6dpad_d
FNDA:117,_RNvMs_NtNtCs4h6wGsnYX5y_3wyn5win326inputsNtB4_16XInputController6dpad_r
FNDA:117,_RNvMs_NtNtCs4h6wGsnYX5y_3wyn5win326inputsNtB4_16XInputController7thumb_r
FNDA:117,_RNvMs_NtNtCs4h6wGsnYX5y_3wyn5win326inputsNtB4_16XInputController4back
FNDA:26,_RNvXsd_NtNtCs4h6wGsnYX5y_3wyn5win326inputsNtB5_7KeyCodeNtNtCs5WRdNqmsn7B_4core3fmt5Debug3fmt
FNDA:117,_RNvMs_NtNtCs4h6wGsnYX5y_3wyn5win326inputsNtB4_16XInputController7stick_l
FNDA:117,_RNvMs_NtNtCs4h6wGsnYX5y_3wyn5win326inputsNtB4_16XInputController8bumper_r
FNDA:126,_RNvMNtNtCs4h6wGsnYX5y_3wyn5win326inputsNtB2_16XInputController7collect
FNDA:117,_RNvMs_NtNtCs4h6wGsnYX5y_3wyn5win326inputsNtB4_16XInputController9trigger_r
FNDA:117,_RNvMs_NtNtCs4h6wGsnYX5y_3wyn5win326inputsNtB4_16XInputController6dpad_l
FNDA:117,_RNvMs_NtNtCs4h6wGsnYX5y_3wyn5win326inputsNtB4_16XInputController8bumper_l
FNDA:10,_RNvXs6_NtNtCs4h6wGsnYX5y_3wyn5win326inputsNtB5_11MouseButtonNtNtCs5WRdNqmsn7B_4core3fmt5Debug3fmt
FNDA:117,_RNvMs_NtNtCs4h6wGsnYX5y_3wyn5win326inputsNtB4_16XInputController1a
FNDA:117,_RNvMs_NtNtCs4h6wGsnYX5y_3wyn5win326inputsNtB4_16XInputController1x
FNDA:117,_RNvMs_NtNtCs4h6wGsnYX5y_3wyn5win326inputsNtB4_16XInputController7stick_r
FNDA:117,_RNvMs_NtNtCs4h6wGsnYX5y_3wyn5win326inputsNtB4_16XInputController7thumb_l
FNDA:117,_RNvMs_NtNtCs4h6wGsnYX5y_3wyn5win326inputsNtB4_16XInputController6dpad_u
FNDA:117,_RNvMs_NtNtCs4h6wGsnYX5y_3wyn5win326inputsNtB4_16XInputController1b
FNDA:0,_RNvMs_NtNtCs3vY6VOeawRw_3wyn5win326inputsNtB4_16XInputController6dpad_d
FNDA:0,_RNvMs_NtNtCs3vY6VOeawRw_3wyn5win326inputsNtB4_16XInputController8bumper_r
FNDA:0,_RNvMs_NtNtCs3vY6VOeawRw_3wyn5win326inputsNtB4_16XInputController6dpad_u
FNDA:0,_RNvMs_NtNtCs3vY6VOeawRw_3wyn5win326inputsNtB4_16XInputController7thumb_r
FNDA:0,_RNvXs3_NtNtCs3vY6VOeawRw_3wyn5win326inputsNtB5_11MouseButtonNtNtCs5WRdNqmsn7B_4core3cmp9PartialEq2eqB9_
FNDA:0,_RNvMs_NtNtCs3vY6VOeawRw_3wyn5win326inputsNtB4_16XInputController1x
FNDA:0,_RNvMs_NtNtCs3vY6VOeawRw_3wyn5win326inputsNtB4_16XInputController5start
FNDA:0,_RNvXsd_NtNtCs3vY6VOeawRw_3wyn5win326inputsNtB5_7KeyCodeNtNtCs5WRdNqmsn7B_4core3fmt5Debug3fmt
FNDA:0,_RNvMs_NtNtCs3vY6VOeawRw_3wyn5win326inputsNtB4_16XInputController7stick_r
FNDA:0,_RNvMs_NtNtCs3vY6VOeawRw_3wyn5win326inputsNtB4_16XInputController4back
FNDA:0,_RNvMs_NtNtCs3vY6VOeawRw_3wyn5win326inputsNtB4_16XInputController7stick_l
FNDA:0,_RNvMNtNtCs3vY6VOeawRw_3wyn5win326inputsNtB2_16XInputController7collect
FNDA:0,_RNvMs_NtNtCs3vY6VOeawRw_3wyn5win326inputsNtB4_16XInputController1y
FNDA:0,_RNvXs7_NtNtCs3vY6VOeawRw_3wyn5win326inputsNtB5_7KeyCodeNtNtCs5WRdNqmsn7B_4core5clone5Clone5cloneB9_
FNDA:0,_RNvXsa_NtNtCs3vY6VOeawRw_3wyn5win326inputsNtB5_7KeyCodeNtNtCs5WRdNqmsn7B_4core3cmp9PartialEq2eqB9_
FNDA:0,_RNvXs6_NtNtCs3vY6VOeawRw_3wyn5win326inputsNtB5_11MouseButtonNtNtCs5WRdNqmsn7B_4core3fmt5Debug3fmt
FNDA:0,_RNvMs_NtNtCs3vY6VOeawRw_3wyn5win326inputsNtB4_16XInputController8bumper_l
FNDA:0,_RNvMs_NtNtCs3vY6VOeawRw_3wyn5win326inputsNtB4_16XInputController7thumb_l
FNDA:0,_RNvMs_NtNtCs3vY6VOeawRw_3wyn5win326inputsNtB4_16XInputController1b
FNDA:0,_RNvMs_NtNtCs3vY6VOeawRw_3wyn5win326inputsNtB4_16XInputController6packet
FNDA:0,_RNvMs_NtNtCs3vY6VOeawRw_3wyn5win326inputsNtB4_16XInputController6dpad_r
FNDA:0,_RNvXs0_NtNtCs3vY6VOeawRw_3wyn5win326inputsNtB5_11MouseButtonNtNtCs5WRdNqmsn7B_4core5clone5Clone5cloneB9_
FNDA:0,_RNvMs_NtNtCs3vY6VOeawRw_3wyn5win326inputsNtB4_16XInputController9trigger_r
FNDA:0,_RNvMs_NtNtCs3vY6VOeawRw_3wyn5win326inputsNtB4_16XInputController1a
FNDA:0,_RNvMs_NtNtCs3vY6VOeawRw_3wyn5win326inputsNtB4_16XInputController9trigger_l
FNDA:0,_RNvMs_NtNtCs3vY6VOeawRw_3wyn5win326inputsNtB4_16XInputController6dpad_l
FNF:26
FNH:22
DA:30,10
DA:35,26
DA:339,126
DA:340,126
DA:342,504
DA:344,504
DA:345,504
DA:346,504
DA:347,504
DA:348,504
DA:351,117
DA:353,387
DA:354,387
DA:355,387
DA:356,387
DA:357,387
DA:359,0
DA:365,126
DA:366,126
DA:373,117
DA:374,117
DA:375,117
DA:378,117
DA:379,117
DA:380,117
DA:383,117
DA:384,117
DA:385,117
DA:388,117
DA:389,117
DA:390,117
DA:393,117
DA:394,117
DA:395,117
DA:398,117
DA:399,117
DA:400,117
DA:403,117
DA:404,117
DA:405,117
DA:408,117
DA:409,117
DA:410,117
DA:413,117
DA:414,117
DA:415,117
DA:418,117
DA:419,117
DA:420,117
DA:423,117
DA:424,117
DA:425,117
DA:428,117
DA:429,117
DA:430,117
DA:435,117
DA:436,117
DA:437,117
DA:438,117
DA:439,117
DA:444,117
DA:445,117
DA:446,117
DA:447,117
DA:448,117
DA:451,117
DA:452,117
DA:453,117
DA:456,117
DA:457,117
DA:458,117
DA:461,117
DA:462,117
DA:463,117
DA:464,117
DA:465,117
DA:468,117
DA:469,117
DA:470,117
DA:471,117
DA:472,117
DA:475,117
DA:476,117
DA:477,117
BRF:0
BRH:0
LF:88
LH:83
end_of_record
SF:C:\Users\luigi\College\Spring 2023\Capstone\EricGrandizio\wyn\src\win32\screen.rs
FN:68,_RNvMs_NtNtCs4h6wGsnYX5y_3wyn5win326screenNtB4_6Screen7collect
FN:39,_RNvMNtNtCs4h6wGsnYX5y_3wyn5win326screenNtB2_6Screen4name
FN:94,_RNvMs0_NtNtCs4h6wGsnYX5y_3wyn5win326screenNtB5_6Screen21internal_monitor_proc
FN:108,_RNvMs0_NtNtCs4h6wGsnYX5y_3wyn5win326screenNtB5_6Screen21internal_monitor_info
FN:54,_RNvMs_NtNtCs4h6wGsnYX5y_3wyn5win326screenNtB4_6Screen3new
FN:59,_RNvMs_NtNtCs4h6wGsnYX5y_3wyn5win326screenNtB4_6Screen7primary
FN:31,_RNvMNtNtCs4h6wGsnYX5y_3wyn5win326screenNtB2_6Screen4rect
FN:108,_RNvMs0_NtNtCs3vY6VOeawRw_3wyn5win326screenNtB5_6Screen21internal_monitor_info
FN:94,_RNvMs0_NtNtCs3vY6VOeawRw_3wyn5win326screenNtB5_6Screen21internal_monitor_proc
FN:39,_RNvMNtNtCs3vY6VOeawRw_3wyn5win326screenNtB2_6Screen4name
FN:68,_RNvMs_NtNtCs3vY6VOeawRw_3wyn5win326screenNtB4_6Screen7collect
FN:31,_RNvMNtNtCs3vY6VOeawRw_3wyn5win326screenNtB2_6Screen4rect
FN:59,_RNvMs_NtNtCs3vY6VOeawRw_3wyn5win326screenNtB4_6Screen7primary
FN:54,_RNvMs_NtNtCs3vY6VOeawRw_3wyn5win326screenNtB4_6Screen3new
FNDA:1,_RNvMs_NtNtCs4h6wGsnYX5y_3wyn5win326screenNtB4_6Screen7collect
FNDA:4,_RNvMNtNtCs4h6wGsnYX5y_3wyn5win326screenNtB2_6Screen4name
FNDA:2,_RNvMs0_NtNtCs4h6wGsnYX5y_3wyn5win326screenNtB5_6Screen21internal_monitor_proc
FNDA:7,_RNvMs0_NtNtCs4h6wGsnYX5y_3wyn5win326screenNtB5_6Screen21internal_monitor_info
FNDA:4,_RNvMs_NtNtCs4h6wGsnYX5y_3wyn5win326screenNtB4_6Screen3new
FNDA:1,_RNvMs_NtNtCs4h6wGsnYX5y_3wyn5win326screenNtB4_6Screen7primary
FNDA:3,_RNvMNtNtCs4h6wGsnYX5y_3wyn5win326screenNtB2_6Screen4rect
FNDA:0,_RNvMs0_NtNtCs3vY6VOeawRw_3wyn5win326screenNtB5_6Screen21internal_monitor_info
FNDA:0,_RNvMs0_NtNtCs3vY6VOeawRw_3wyn5win326screenNtB5_6Screen21internal_monitor_proc
FNDA:0,_RNvMNtNtCs3vY6VOeawRw_3wyn5win326screenNtB2_6Screen4name
FNDA:0,_RNvMs_NtNtCs3vY6VOeawRw_3wyn5win326screenNtB4_6Screen7collect
FNDA:0,_RNvMNtNtCs3vY6VOeawRw_3wyn5win326screenNtB2_6Screen4rect
FNDA:0,_RNvMs_NtNtCs3vY6VOeawRw_3wyn5win326screenNtB4_6Screen7primary
FNDA:0,_RNvMs_NtNtCs3vY6VOeawRw_3wyn5win326screenNtB4_6Screen3new
FNF:7
FNH:7
DA:31,3
DA:32,3
DA:33,3
DA:34,3
DA:35,3
DA:36,3
DA:39,4
DA:40,4
DA:41,4
DA:42,4
DA:43,4
DA:44,4
DA:45,4
DA:46,4
DA:47,4
DA:54,4
DA:55,4
DA:56,4
DA:59,1
DA:60,1
DA:61,1
DA:62,1
DA:63,1
DA:64,1
DA:65,1
DA:68,1
DA:69,1
DA:70,1
DA:71,1
DA:72,1
DA:73,1
DA:74,1
DA:75,1
DA:76,1
DA:77,1
DA:78,1
DA:94,2
DA:95,2
DA:96,2
DA:97,2
DA:100,2
DA:103,0
DA:105,2
DA:108,7
DA:109,7
DA:110,7
DA:111,7
DA:112,7
DA:113,7
DA:114,7
DA:115,7
DA:116,7
DA:117,0
DA:119,7
DA:121,7
BRF:0
BRH:0
LF:55
LH:53
end_of_record
SF:C:\Users\luigi\College\Spring 2023\Capstone\EricGrandizio\wyn\src\win32\types.rs
FN:37,_RNvXNtNtCs4h6wGsnYX5y_3wyn5win325typesNtNtNtB6_6common5types5PointINtNtCs5WRdNqmsn7B_4core7convert4FromNtNtNtNtCskNKf5xQY6II_11windows_sys7Windows5Win3210Foundation5POINTE4from
FN:73,_RNvXs2_NtNtCs4h6wGsnYX5y_3wyn5win325typesNtNtNtB9_6common5types4RectINtNtCs5WRdNqmsn7B_4core7convert4FromNtNtNtNtCskNKf5xQY6II_11windows_sys7Windows5Win3210Foundation4RECTE4from
FN:55,_RNvXs0_NtNtCs4h6wGsnYX5y_3wyn5win325typesNtNtNtB9_6common5types4SizeINtNtCs5WRdNqmsn7B_4core7convert4FromNtNtNtNtCskNKf5xQY6II_11windows_sys7Windows5Win3210Foundation4SIZEE4from
FN:63,_RNvXs1_NtNtCs4h6wGsnYX5y_3wyn5win325typesNtNtNtNtCskNKf5xQY6II_11windows_sys7Windows5Win3210Foundation4SIZEINtNtCs5WRdNqmsn7B_4core7convert4FromNtNtNtB9_6common5types4SizeE4from
FN:85,_RNvXs3_NtNtCs4h6wGsnYX5y_3wyn5win325typesNtNtNtNtCskNKf5xQY6II_11windows_sys7Windows5Win3210Foundation4RECTINtNtCs5WRdNqmsn7B_4core7convert4FromNtNtNtB9_6common5types4RectE4from
FN:45,_RNvXs_NtNtCs4h6wGsnYX5y_3wyn5win325typesNtNtNtNtCskNKf5xQY6II_11windows_sys7Windows5Win3210Foundation5POINTINtNtCs5WRdNqmsn7B_4core7convert4FromNtNtNtB8_6common5types5PointE4from
FN:37,_RNvXNtNtCs3vY6VOeawRw_3wyn5win325typesNtNtNtB6_6common5types5PointINtNtCs5WRdNqmsn7B_4core7convert4FromNtNtNtNtCskNKf5xQY6II_11windows_sys7Windows5Win3210Foundation5POINTE4from
FN:73,_RNvXs2_NtNtCs3vY6VOeawRw_3wyn5win325typesNtNtNtB9_6common5types4RectINtNtCs5WRdNqmsn7B_4core7convert4FromNtNtNtNtCskNKf5xQY6II_11windows_sys7Windows5Win3210Foundation4RECTE4from
FN:45,_RNvXs_NtNtCs3vY6VOeawRw_3wyn5win325typesNtNtNtNtCskNKf5xQY6II_11windows_sys7Windows5Win3210Foundation5POINTINtNtCs5WRdNqmsn7B_4core7convert4FromNtNtNtB8_6common5types5PointE4from
FN:63,_RNvXs1_NtNtCs3vY6VOeawRw_3wyn5win325typesNtNtNtNtCskNKf5xQY6II_11windows_sys7Windows5Win3210Foundation4SIZEINtNtCs5WRdNqmsn7B_4core7convert4FromNtNtNtB9_6common5types4SizeE4from
FN:85,_RNvXs3_NtNtCs3vY6VOeawRw_3wyn5win325typesNtNtNtNtCskNKf5xQY6II_11windows_sys7Windows5Win3210Foundation4RECTINtNtCs5WRdNqmsn7B_4core7convert4FromNtNtNtB9_6common5types4RectE4from
FN:55,_RNvXs0_NtNtCs3vY6VOeawRw_3wyn5win325typesNtNtNtB9_6common5types4SizeINtNtCs5WRdNqmsn7B_4core7convert4FromNtNtNtNtCskNKf5xQY6II_11windows_sys7Windows5Win3210Foundation4SIZEE4from
FNDA:1,_RNvXNtNtCs4h6wGsnYX5y_3wyn5win325typesNtNtNtB6_6common5types5PointINtNtCs5WRdNqmsn7B_4core7convert4FromNtNtNtNtCskNKf5xQY6II_11windows_sys7Windows5Win3210Foundation5POINTE4from
FNDA:3050,_RNvXs2_NtNtCs4h6wGsnYX5y_3wyn5win325typesNtNtNtB9_6common5types4RectINtNtCs5WRdNqmsn7B_4core7convert4FromNtNtNtNtCskNKf5xQY6II_11windows_sys7Windows5Win3210Foundation4RECTE4from
FNDA:1,_RNvXs0_NtNtCs4h6wGsnYX5y_3wyn5win325typesNtNtNtB9_6common5types4SizeINtNtCs5WRdNqmsn7B_4core7convert4FromNtNtNtNtCskNKf5xQY6II_11windows_sys7Windows5Win3210Foundation4SIZEE4from
FNDA:1,_RNvXs1_NtNtCs4h6wGsnYX5y_3wyn5win325typesNtNtNtNtCskNKf5xQY6II_11windows_sys7Windows5Win3210Foundation4SIZEINtNtCs5WRdNqmsn7B_4core7convert4FromNtNtNtB9_6common5types4SizeE4from
FNDA:3,_RNvXs3_NtNtCs4h6wGsnYX5y_3wyn5win325typesNtNtNtNtCskNKf5xQY6II_11windows_sys7Windows5Win3210Foundation4RECTINtNtCs5WRdNqmsn7B_4core7convert4FromNtNtNtB9_6common5types4RectE4from
FNDA:1,_RNvXs_NtNtCs4h6wGsnYX5y_3wyn5win325typesNtNtNtNtCskNKf5xQY6II_11windows_sys7Windows5Win3210Foundation5POINTINtNtCs5WRdNqmsn7B_4core7convert4FromNtNtNtB8_6common5types5PointE4from
FNDA:0,_RNvXNtNtCs3vY6VOeawRw_3wyn5win325typesNtNtNtB6_6common5types5PointINtNtCs5WRdNqmsn7B_4core7convert4FromNtNtNtNtCskNKf5xQY6II_11windows_sys7Windows5Win3210Foundation5POINTE4from
FNDA:0,_RNvXs2_NtNtCs3vY6VOeawRw_3wyn5win325typesNtNtNtB9_6common5types4RectINtNtCs5WRdNqmsn7B_4core7convert4FromNtNtNtNtCskNKf5xQY6II_11windows_sys7Windows5Win3210Foundation4RECTE4from
FNDA:0,_RNvXs_NtNtCs3vY6VOeawRw_3wyn5win325typesNtNtNtNtCskNKf5xQY6II_11windows_sys7Windows5Win3210Foundation5POINTINtNtCs5WRdNqmsn7B_4core7convert4FromNtNtNtB8_6common5types5PointE4from
FNDA:0,_RNvXs1_NtNtCs3vY6VOeawRw_3wyn5win325typesNtNtNtNtCskNKf5xQY6II_11windows_sys7Windows5Win3210Foundation4SIZEINtNtCs5WRdNqmsn7B_4core7convert4FromNtNtNtB9_6common5types4SizeE4from
FNDA:0,_RNvXs3_NtNtCs3vY6VOeawRw_3wyn5win325typesNtNtNtNtCskNKf5xQY6II_11windows_sys7Windows5Win3210Foundation4RECTINtNtCs5WRdNqmsn7B_4core7convert4FromNtNtNtB9_6common5types4RectE4from
FNDA:0,_RNvXs0_NtNtCs3vY6VOeawRw_3wyn5win325typesNtNtNtB9_6common5types4SizeINtNtCs5WRdNqmsn7B_4core7convert4FromNtNtNtNtCskNKf5xQY6II_11windows_sys7Windows5Win3210Foundation4SIZEE4from
FNF:6
FNH:6
DA:37,1
DA:38,1
DA:39,1
DA:40,1
DA:41,1
DA:45,1
DA:46,1
DA:47,1
DA:48,1
DA:49,1
DA:55,1
DA:56,1
DA:57,1
DA:58,1
DA:59,1
DA:63,1
DA:64,1
DA:65,1
DA:66,1
DA:67,1
DA:73,3050
DA:74,3050
DA:75,3050
DA:76,3050
DA:77,3050
DA:78,3050
DA:79,3050
DA:80,3050
DA:81,3050
DA:85,3
DA:86,3
DA:87,3
DA:88,3
DA:89,3
DA:90,3
DA:91,3
DA:92,3
DA:93,3
DA:94,3
DA:95,3
DA:96,3
BRF:0
BRH:0
LF:41
LH:41
end_of_record
SF:C:\Users\luigi\College\Spring 2023\Capstone\EricGrandizio\wyn\src\win32\window.rs
FN:70,_RNvMs0_NtNtCs4h6wGsnYX5y_3wyn5win326windowNtB5_6Window7is_open
FN:255,_RNvMs3_NtNtCs4h6wGsnYX5y_3wyn5win326windowNtB5_6Window6rename
FN:195,_RNvMs2_NtNtCs4h6wGsnYX5y_3wyn5win326windowNtB5_6Window12is_minimized
FN:158,_RNvMs1_NtNtCs4h6wGsnYX5y_3wyn5win326windowNtB5_6Window10is_visible
FN:37,_RNvMNtNtCs4h6wGsnYX5y_3wyn5win326windowNtB2_6Window6handle
FN:515,_RNvMs6_NtNtCs4h6wGsnYX5y_3wyn5win326windowNtB5_6Window6screen
FN:226,_RNvMs2_NtNtCs4h6wGsnYX5y_3wyn5win326windowNtB5_6Window13is_fullscreen
FN:473,_RNvMs5_NtNtCs4h6wGsnYX5y_3wyn5win326windowNtB5_6Window18internal_get_style
FN:309,_RNvMs4_NtNtCs4h6wGsnYX5y_3wyn5win326windowNtB5_6Window17reposition_border
FN:342,_RNvMs4_NtNtCs4h6wGsnYX5y_3wyn5win326windowNtB5_6Window11border_rect
FN:143,_RNvMs1_NtNtCs4h6wGsnYX5y_3wyn5win326windowNtB5_6Window10is_focused
FN:78,_RNvMs0_NtNtCs4h6wGsnYX5y_3wyn5win326windowNtB5_6Window13internal_open
FN:173,_RNvMs1_NtNtCs4h6wGsnYX5y_3wyn5win326windowNtB5_6Window9is_hidden
FN:188,_RNvMs2_NtNtCs4h6wGsnYX5y_3wyn5win326windowNtB5_6Window8minimize
FN:403,_RNvXsd_NtNtCs4h6wGsnYX5y_3wyn5win326windowNtB5_11WindowStyleNtNtCs5WRdNqmsn7B_4core3fmt5Debug3fmt
FN:243,_RNvMs2_NtNtCs4h6wGsnYX5y_3wyn5win326windowNtB5_6Window9is_normal
FN:219,_RNvMs2_NtNtCs4h6wGsnYX5y_3wyn5win326windowNtB5_6Window10fullscreen
FN:203,_RNvMs2_NtNtCs4h6wGsnYX5y_3wyn5win326windowNtB5_6Window8maximize
FN:236,_RNvMs2_NtNtCs4h6wGsnYX5y_3wyn5win326windowNtB5_6Window7restore
FN:455,_RNvMs5_NtNtCs4h6wGsnYX5y_3wyn5win326windowNtB5_6Window5style
FN:302,_RNvMs4_NtNtCs4h6wGsnYX5y_3wyn5win326windowNtB5_6Window18reposition_content
FN:151,_RNvMs1_NtNtCs4h6wGsnYX5y_3wyn5win326windowNtB5_6Window4show
FN:131,_RNvMs1_NtNtCs4h6wGsnYX5y_3wyn5win326windowNtB5_6Window5focus
FN:103,_RNvMs0_NtNtCs4h6wGsnYX5y_3wyn5win326windowNtB5_6Window5close
FN:115,_RNvMs0_NtNtCs4h6wGsnYX5y_3wyn5win326windowNtB5_6Window14internal_close
FN:403,_RNvXsa_NtNtCs4h6wGsnYX5y_3wyn5win326windowNtB5_11WindowStyleNtNtCs5WRdNqmsn7B_4core3cmp9PartialEq2eqB9_
FN:166,_RNvMs1_NtNtCs4h6wGsnYX5y_3wyn5win326windowNtB5_6Window4hide
FN:271,_RNvMs3_NtNtCs4h6wGsnYX5y_3wyn5win326windowNtB5_6Window4name
FN:428,_RNvMs5_NtNtCs4h6wGsnYX5y_3wyn5win326windowNtB5_6Window9set_style
FN:487,_RNvMs5_NtNtCs4h6wGsnYX5y_3wyn5win326windowNtB5_6Window18internal_set_style
FN:60,_RNvMs0_NtNtCs4h6wGsnYX5y_3wyn5win326windowNtB5_6Window4open
FN:45,_RNvXs_NtNtCs4h6wGsnYX5y_3wyn5win326windowNtB4_6WindowINtNtCs5WRdNqmsn7B_4core7convert7TryFromiE8try_from
FN:210,_RNvMs2_NtNtCs4h6wGsnYX5y_3wyn5win326windowNtB5_6Window12is_maximized
FN:356,_RNvMs4_NtNtCs4h6wGsnYX5y_3wyn5win326windowNtB5_6Window19internal_reposition
FN:318,_RNvMs4_NtNtCs4h6wGsnYX5y_3wyn5win326windowNtB5_6Window12content_rect
FN:403,_RNvXs7_NtNtCs4h6wGsnYX5y_3wyn5win326windowNtB5_11WindowStyleNtNtCs5WRdNqmsn7B_4core5clone5Clone5cloneB9_
FN:105,_RNCNvMs0_NtNtCs4h6wGsnYX5y_3wyn5win326windowNtB7_6Window5close0Bb_
FN:97,_RNCNvMs0_NtNtCs4h6wGsnYX5y_3wyn5win326windowNtB7_6Window13internal_open0Bb_
FN:118,_RNCNvMs0_NtNtCs4h6wGsnYX5y_3wyn5win326windowNtB7_6Window14internal_close0Bb_
FN:267,_RNCNvMs3_NtNtCs4h6wGsnYX5y_3wyn5win326windowNtB7_6Window6rename0Bb_
FN:62,_RNCNvMs0_NtNtCs4h6wGsnYX5y_3wyn5win326windowNtB7_6Window4open0Bb_
FN:394,_RNCNvMs4_NtNtCs4h6wGsnYX5y_3wyn5win326windowNtB7_6Window19internal_reposition0Bb_
FN:403,_RNvXsa_NtNtCs4h6wGsnYX5y_3wyn5win326windowNtB5_11WindowStyleNtNtCs5WRdNqmsn7B_4core3cmp9PartialEq2eqCslXdkKOxAF62_12style_change
FN:255,_RNvMs3_NtNtCs3vY6VOeawRw_3wyn5win326windowNtB5_6Window6rename
FN:158,_RNvMs1_NtNtCs3vY6VOeawRw_3wyn5win326windowNtB5_6Window10is_visible
FN:515,_RNvMs6_NtNtCs3vY6VOeawRw_3wyn5win326windowNtB5_6Window6screen
FN:473,_RNvMs5_NtNtCs3vY6VOeawRw_3wyn5win326windowNtB5_6Window18internal_get_style
FN:342,_RNvMs4_NtNtCs3vY6VOeawRw_3wyn5win326windowNtB5_6Window11border_rect
FN:97,_RNCNvMs0_NtNtCs3vY6VOeawRw_3wyn5win326windowNtB7_6Window13internal_open0Bb_
FN:455,_RNvMs5_NtNtCs3vY6VOeawRw_3wyn5win326windowNtB5_6Window5style
FN:103,_RNvMs0_NtNtCs3vY6VOeawRw_3wyn5win326windowNtB5_6Window5close
FN:394,_RNCNvMs4_NtNtCs3vY6VOeawRw_3wyn5win326windowNtB7_6Window19internal_reposition0Bb_
FN:271,_RNvMs3_NtNtCs3vY6VOeawRw_3wyn5win326windowNtB5_6Window4name
FN:60,_RNvMs0_NtNtCs3vY6VOeawRw_3wyn5win326windowNtB5_6Window4open
FN:37,_RNvMNtNtCs3vY6VOeawRw_3wyn5win326windowNtB2_6Window6handle
FN:309,_RNvMs4_NtNtCs3vY6VOeawRw_3wyn5win326windowNtB5_6Window17reposition_border
FN:143,_RNvMs1_NtNtCs3vY6VOeawRw_3wyn5win326windowNtB5_6Window10is_focused
FN:105,_RNCNvMs0_NtNtCs3vY6VOeawRw_3wyn5win326windowNtB7_6Window5close0Bb_
FN:203,_RNvMs2_NtNtCs3vY6VOeawRw_3wyn5win326windowNtB5_6Window8maximize
FN:236,_RNvMs2_NtNtCs3vY6VOeawRw_3wyn5win326windowNtB5_6Window7restore
FN:302,_RNvMs4_NtNtCs3vY6VOeawRw_3wyn5win326windowNtB5_6Window18reposition_content
FN:403,_RNvXsa_NtNtCs3vY6VOeawRw_3wyn5win326windowNtB5_11WindowStyleNtNtCs5WRdNqmsn7B_4core3cmp9PartialEq2eqB9_
FN:131,_RNvMs1_NtNtCs3vY6VOeawRw_3wyn5win326windowNtB5_6Window5focus
FN:70,_RNvMs0_NtNtCs3vY6VOeawRw_3wyn5win326windowNtB5_6Window7is_open
FN:195,_RNvMs2_NtNtCs3vY6VOeawRw_3wyn5win326windowNtB5_6Window12is_minimized
FN:226,_RNvMs2_NtNtCs3vY6VOeawRw_3wyn5win326windowNtB5_6Window13is_fullscreen
FN:188,_RNvMs2_NtNtCs3vY6VOeawRw_3wyn5win326windowNtB5_6Window8minimize
FN:243,_RNvMs2_NtNtCs3vY6VOeawRw_3wyn5win326windowNtB5_6Window9is_normal
FN:219,_RNvMs2_NtNtCs3vY6VOeawRw_3wyn5win326windowNtB5_6Window10fullscreen
FN:151,_RNvMs1_NtNtCs3vY6VOeawRw_3wyn5win326windowNtB5_6Window4show
FN:428,_RNvMs5_NtNtCs3vY6VOeawRw_3wyn5win326windowNtB5_6Window9set_style
FN:210,_RNvMs2_NtNtCs3vY6VOeawRw_3wyn5win326windowNtB5_6Window12is_maximized
FN:318,_RNvMs4_NtNtCs3vY6VOeawRw_3wyn5win326windowNtB5_6Window12content_rect
FN:267,_RNCNvMs3_NtNtCs3vY6VOeawRw_3wyn5win326windowNtB7_6Window6rename0Bb_
FN:62,_RNCNvMs0_NtNtCs3vY6VOeawRw_3wyn5win326windowNtB7_6Window4open0Bb_
FN:118,_RNCNvMs0_NtNtCs3vY6VOeawRw_3wyn5win326windowNtB7_6Window14internal_close0Bb_
FN:78,_RNvMs0_NtNtCs3vY6VOeawRw_3wyn5win326windowNtB5_6Window13internal_open
FN:403,_RNvXsd_NtNtCs3vY6VOeawRw_3wyn5win326windowNtB5_11WindowStyleNtNtCs5WRdNqmsn7B_4core3fmt5Debug3fmt
FN:173,_RNvMs1_NtNtCs3vY6VOeawRw_3wyn5win326windowNtB5_6Window9is_hidden
FN:403,_RNvXs7_NtNtCs3vY6VOeawRw_3wyn5win326windowNtB5_11WindowStyleNtNtCs5WRdNqmsn7B_4core5clone5Clone5cloneB9_
FN:115,_RNvMs0_NtNtCs3vY6VOeawRw_3wyn5win326windowNtB5_6Window14internal_close
FN:166,_RNvMs1_NtNtCs3vY6VOeawRw_3wyn5win326windowNtB5_6Window4hide
FN:487,_RNvMs5_NtNtCs3vY6VOeawRw_3wyn5win326windowNtB5_6Window18internal_set_style
FN:45,_RNvXs_NtNtCs3vY6VOeawRw_3wyn5win326windowNtB4_6WindowINtNtCs5WRdNqmsn7B_4core7convert7TryFromiE8try_from
FN:356,_RNvMs4_NtNtCs3vY6VOeawRw_3wyn5win326windowNtB5_6Window19internal_reposition
FNDA:1,_RNvMs0_NtNtCs4h6wGsnYX5y_3wyn5win326windowNtB5_6Window7is_open
FNDA:9,_RNvMs3_NtNtCs4h6wGsnYX5y_3wyn5win326windowNtB5_6Window6rename
FNDA:1531,_RNvMs2_NtNtCs4h6wGsnYX5y_3wyn5win326windowNtB5_6Window12is_minimized
FNDA:10,_RNvMs1_NtNtCs4h6wGsnYX5y_3wyn5win326windowNtB5_6Window10is_visible
FNDA:10803,_RNvMNtNtCs4h6wGsnYX5y_3wyn5win326windowNtB2_6Window6handle
FNDA:1,_RNvMs6_NtNtCs4h6wGsnYX5y_3wyn5win326windowNtB5_6Window6screen
FNDA:1528,_RNvMs2_NtNtCs4h6wGsnYX5y_3wyn5win326windowNtB5_6Window13is_fullscreen
FNDA:1535,_RNvMs5_NtNtCs4h6wGsnYX5y_3wyn5win326windowNtB5_6Window18internal_get_style
FNDA:1,_RNvMs4_NtNtCs4h6wGsnYX5y_3wyn5win326windowNtB5_6Window17reposition_border
FNDA:1523,_RNvMs4_NtNtCs4h6wGsnYX5y_3wyn5win326windowNtB5_6Window11border_rect
FNDA:10,_RNvMs1_NtNtCs4h6wGsnYX5y_3wyn5win326windowNtB5_6Window10is_focused
FNDA:10,_RNvMs0_NtNtCs4h6wGsnYX5y_3wyn5win326windowNtB5_6Window13internal_open
FNDA:5,_RNvMs1_NtNtCs4h6wGsnYX5y_3wyn5win326windowNtB5_6Window9is_hidden
FNDA:4,_RNvMs2_NtNtCs4h6wGsnYX5y_3wyn5win326windowNtB5_6Window8minimize
FNDA:0,_RNvXsd_NtNtCs4h6wGsnYX5y_3wyn5win326windowNtB5_11WindowStyleNtNtCs5WRdNqmsn7B_4core3fmt5Debug3fmt
FNDA:5,_RNvMs2_NtNtCs4h6wGsnYX5y_3wyn5win326windowNtB5_6Window9is_normal
FNDA:1,_RNvMs2_NtNtCs4h6wGsnYX5y_3wyn5win326windowNtB5_6Window10fullscreen
FNDA:5,_RNvMs2_NtNtCs4h6wGsnYX5y_3wyn5win326windowNtB5_6Window8maximize
FNDA:9,_RNvMs2_NtNtCs4h6wGsnYX5y_3wyn5win326windowNtB5_6Window7restore
FNDA:1534,_RNvMs5_NtNtCs4h6wGsnYX5y_3wyn5win326windowNtB5_6Window5style
FNDA:1,_RNvMs4_NtNtCs4h6wGsnYX5y_3wyn5win326windowNtB5_6Window18reposition_content
FNDA:2,_RNvMs1_NtNtCs4h6wGsnYX5y_3wyn5win326windowNtB5_6Window4show
FNDA:7,_RNvMs1_NtNtCs4h6wGsnYX5y_3wyn5win326windowNtB5_6Window5focus
FNDA:3,_RNvMs0_NtNtCs4h6wGsnYX5y_3wyn5win326windowNtB5_6Window5close
FNDA:3,_RNvMs0_NtNtCs4h6wGsnYX5y_3wyn5win326windowNtB5_6Window14internal_close
FNDA:1528,_RNvXsa_NtNtCs4h6wGsnYX5y_3wyn5win326windowNtB5_11WindowStyleNtNtCs5WRdNqmsn7B_4core3cmp9PartialEq2eqB9_
FNDA:1,_RNvMs1_NtNtCs4h6wGsnYX5y_3wyn5win326windowNtB5_6Window4hide
FNDA:2,_RNvMs3_NtNtCs4h6wGsnYX5y_3wyn5win326windowNtB5_6Window4name
FNDA:7,_RNvMs5_NtNtCs4h6wGsnYX5y_3wyn5win326windowNtB5_6Window9set_style
FNDA:7,_RNvMs5_NtNtCs4h6wGsnYX5y_3wyn5win326windowNtB5_6Window18internal_set_style
FNDA:10,_RNvMs0_NtNtCs4h6wGsnYX5y_3wyn5win326windowNtB5_6Window4open
FNDA:10,_RNvXs_NtNtCs4h6wGsnYX5y_3wyn5win326windowNtB4_6WindowINtNtCs5WRdNqmsn7B_4core7convert7TryFromiE8try_from
FNDA:1534,_RNvMs2_NtNtCs4h6wGsnYX5y_3wyn5win326windowNtB5_6Window12is_maximized
FNDA:2,_RNvMs4_NtNtCs4h6wGsnYX5y_3wyn5win326windowNtB5_6Window19internal_reposition
FNDA:1523,_RNvMs4_NtNtCs4h6wGsnYX5y_3wyn5win326windowNtB5_6Window12content_rect
FNDA:0,_RNvXs7_NtNtCs4h6wGsnYX5y_3wyn5win326windowNtB5_11WindowStyleNtNtCs5WRdNqmsn7B_4core5clone5Clone5cloneB9_
FNDA:3,_RNCNvMs0_NtNtCs4h6wGsnYX5y_3wyn5win326windowNtB7_6Window5close0Bb_
FNDA:10,_RNCNvMs0_NtNtCs4h6wGsnYX5y_3wyn5win326windowNtB7_6Window13internal_open0Bb_
FNDA:3,_RNCNvMs0_NtNtCs4h6wGsnYX5y_3wyn5win326windowNtB7_6Window14internal_close0Bb_
FNDA:9,_RNCNvMs3_NtNtCs4h6wGsnYX5y_3wyn5win326windowNtB7_6Window6rename0Bb_
FNDA:10,_RNCNvMs0_NtNtCs4h6wGsnYX5y_3wyn5win326windowNtB7_6Window4open0Bb_
FNDA:2,_RNCNvMs4_NtNtCs4h6wGsnYX5y_3wyn5win326windowNtB7_6Window19internal_reposition0Bb_
FNDA:6,_RNvXsa_NtNtCs4h6wGsnYX5y_3wyn5win326windowNtB5_11WindowStyleNtNtCs5WRdNqmsn7B_4core3cmp9PartialEq2eqCslXdkKOxAF62_12style_change
FNDA:0,_RNvMs3_NtNtCs3vY6VOeawRw_3wyn5win326windowNtB5_6Window6rename
FNDA:0,_RNvMs1_NtNtCs3vY6VOeawRw_3wyn5win326windowNtB5_6Window10is_visible
FNDA:0,_RNvMs6_NtNtCs3vY6VOeawRw_3wyn5win326windowNtB5_6Window6screen
FNDA:0,_RNvMs5_NtNtCs3vY6VOeawRw_3wyn5win326windowNtB5_6Window18internal_get_style
FNDA:0,_RNvMs4_NtNtCs3vY6VOeawRw_3wyn5win326windowNtB5_6Window11border_rect
FNDA:0,_RNCNvMs0_NtNtCs3vY6VOeawRw_3wyn5win326windowNtB7_6Window13internal_open0Bb_
FNDA:0,_RNvMs5_NtNtCs3vY6VOeawRw_3wyn5win326windowNtB5_6Window5style
FNDA:0,_RNvMs0_NtNtCs3vY6VOeawRw_3wyn5win326windowNtB5_6Window5close
FNDA:0,_RNCNvMs4_NtNtCs3vY6VOeawRw_3wyn5win326windowNtB7_6Window19internal_reposition0Bb_
FNDA:0,_RNvMs3_NtNtCs3vY6VOeawRw_3wyn5win326windowNtB5_6Window4name
FNDA:0,_RNvMs0_NtNtCs3vY6VOeawRw_3wyn5win326windowNtB5_6Window4open
FNDA:0,_RNvMNtNtCs3vY6VOeawRw_3wyn5win326windowNtB2_6Window6handle
FNDA:0,_RNvMs4_NtNtCs3vY6VOeawRw_3wyn5win326windowNtB5_6Window17reposition_border
FNDA:0,_RNvMs1_NtNtCs3vY6VOeawRw_3wyn5win326windowNtB5_6Window10is_focused
FNDA:0,_RNCNvMs0_NtNtCs3vY6VOeawRw_3wyn5win326windowNtB7_6Window5close0Bb_
FNDA:0,_RNvMs2_NtNtCs3vY6VOeawRw_3wyn5win326windowNtB5_6Window8maximize
FNDA:0,_RNvMs2_NtNtCs3vY6VOeawRw_3wyn5win326windowNtB5_6Window7restore
FNDA:0,_RNvMs4_NtNtCs3vY6VOeawRw_3wyn5win326windowNtB5_6Window18reposition_content
FNDA:0,_RNvXsa_NtNtCs3vY6VOeawRw_3wyn5win326windowNtB5_11WindowStyleNtNtCs5WRdNqmsn7B_4core3cmp9PartialEq2eqB9_
FNDA:0,_RNvMs1_NtNtCs3vY6VOeawRw_3wyn5win326windowNtB5_6Window5focus
FNDA:0,_RNvMs0_NtNtCs3vY6VOeawRw_3wyn5win326windowNtB5_6Window7is_open
FNDA:0,_RNvMs2_NtNtCs3vY6VOeawRw_3wyn5win326windowNtB5_6Window12is_minimized
FNDA:0,_RNvMs2_NtNtCs3vY6VOeawRw_3wyn5win326windowNtB5_6Window13is_fullscreen
FNDA:0,_RNvMs2_NtNtCs3vY6VOeawRw_3wyn5win326windowNtB5_6Window8minimize
FNDA:0,_RNvMs2_NtNtCs3vY6VOeawRw_3wyn5win326windowNtB5_6Window9is_normal
FNDA:0,_RNvMs2_NtNtCs3vY6VOeawRw_3wyn5win326windowNtB5_6Window10fullscreen
FNDA:0,_RNvMs1_NtNtCs3vY6VOeawRw_3wyn5win326windowNtB5_6Window4show
FNDA:0,_RNvMs5_NtNtCs3vY6VOeawRw_3wyn5win326windowNtB5_6Window9set_style
FNDA:0,_RNvMs2_NtNtCs3vY6VOeawRw_3wyn5win326windowNtB5_6Window12is_maximized
FNDA:0,_RNvMs4_NtNtCs3vY6VOeawRw_3wyn5win326windowNtB5_6Window12content_rect
FNDA:0,_RNCNvMs3_NtNtCs3vY6VOeawRw_3wyn5win326windowNtB7_6Window6rename0Bb_
FNDA:0,_RNCNvMs0_NtNtCs3vY6VOeawRw_3wyn5win326windowNtB7_6Window4open0Bb_
FNDA:0,_RNCNvMs0_NtNtCs3vY6VOeawRw_3wyn5win326windowNtB7_6Window14internal_close0Bb_
FNDA:0,_RNvMs0_NtNtCs3vY6VOeawRw_3wyn5win326windowNtB5_6Window13internal_open
FNDA:0,_RNvXsd_NtNtCs3vY6VOeawRw_3wyn5win326windowNtB5_11WindowStyleNtNtCs5WRdNqmsn7B_4core3fmt5Debug3fmt
FNDA:0,_RNvMs1_NtNtCs3vY6VOeawRw_3wyn5win326windowNtB5_6Window9is_hidden
FNDA:0,_RNvXs7_NtNtCs3vY6VOeawRw_3wyn5win326windowNtB5_11WindowStyleNtNtCs5WRdNqmsn7B_4core5clone5Clone5cloneB9_
FNDA:0,_RNvMs0_NtNtCs3vY6VOeawRw_3wyn5win326windowNtB5_6Window14internal_close
FNDA:0,_RNvMs1_NtNtCs3vY6VOeawRw_3wyn5win326windowNtB5_6Window4hide
FNDA:0,_RNvMs5_NtNtCs3vY6VOeawRw_3wyn5win326windowNtB5_6Window18internal_set_style
FNDA:0,_RNvXs_NtNtCs3vY6VOeawRw_3wyn5win326windowNtB4_6WindowINtNtCs5WRdNqmsn7B_4core7convert7TryFromiE8try_from
FNDA:0,_RNvMs4_NtNtCs3vY6VOeawRw_3wyn5win326windowNtB5_6Window19internal_reposition
FNF:42
FNH:40
DA:37,10803
DA:38,10803
DA:39,10803
DA:45,10
DA:46,10
DA:47,10
DA:48,0
DA:50,10
DA:60,10
DA:61,10
DA:62,10
DA:63,10
DA:64,10
DA:65,10
DA:66,10
DA:67,10
DA:70,1
DA:71,1
DA:72,1
DA:73,1
DA:78,10
DA:79,10
DA:80,10
DA:81,10
DA:82,10
DA:83,10
DA:84,10
DA:85,10
DA:86,10
DA:87,10
DA:88,10
DA:89,10
DA:90,10
DA:91,10
DA:92,10
DA:93,10
DA:94,10
DA:97,10
DA:98,10
DA:103,3
DA:104,3
DA:105,3
DA:106,3
DA:107,3
DA:108,3
DA:109,3
DA:110,3
DA:115,3
DA:117,3
DA:118,3
DA:119,3
DA:131,7
DA:132,7
DA:133,7
DA:134,7
DA:135,7
DA:136,7
DA:137,7
DA:139,7
DA:140,7
DA:143,10
DA:144,10
DA:145,10
DA:146,10
DA:151,2
DA:152,2
DA:153,2
DA:154,2
DA:155,2
DA:158,10
DA:159,10
DA:160,10
DA:161,10
DA:166,1
DA:167,1
DA:168,1
DA:169,1
DA:170,1
DA:173,5
DA:174,5
DA:175,5
DA:176,5
DA:188,4
DA:189,4
DA:190,4
DA:191,4
DA:192,4
DA:195,1531
DA:196,1531
DA:197,1531
DA:198,1531
DA:203,5
DA:204,5
DA:205,5
DA:206,5
DA:207,5
DA:210,1534
DA:211,1534
DA:212,1534
DA:213,1534
DA:219,1
DA:220,1
DA:221,1
DA:222,1
DA:226,1528
DA:227,1528
DA:229,0
DA:231,1528
DA:236,9
DA:237,9
DA:238,9
DA:239,9
DA:240,9
DA:243,5
DA:244,5
DA:245,5
DA:255,9
DA:256,9
DA:257,9
DA:258,9
DA:259,9
DA:260,9
DA:261,9
DA:262,9
DA:266,9
DA:267,9
DA:268,9
DA:271,2
DA:272,2
DA:276,2
DA:277,2
DA:280,2
DA:282,2
DA:283,2
DA:284,2
DA:287,2
DA:288,2
DA:289,2
DA:290,2
DA:291,2
DA:292,2
DA:302,1
DA:303,1
DA:304,1
DA:305,1
DA:306,1
DA:309,1
DA:310,1
DA:311,1
DA:312,1
DA:313,1
DA:318,1523
DA:319,1523
DA:320,1523
DA:321,1523
DA:322,1523
DA:323,1523
DA:326,1523
DA:328,1523
DA:329,1523
DA:332,1523
DA:333,1523
DA:334,1523
DA:335,1523
DA:336,1523
DA:337,1523
DA:338,1523
DA:339,1523
DA:342,1523
DA:343,1523
DA:344,1523
DA:346,1523
DA:347,1523
DA:349,1523
DA:350,1523
DA:351,1523
DA:356,2
DA:357,2
DA:358,2
DA:359,2
DA:360,2
DA:361,2
DA:362,2
DA:363,1
DA:366,1
DA:367,1
DA:370,1
DA:371,1
DA:372,1
DA:373,1
DA:374,1
DA:375,1
DA:376,1
DA:377,1
DA:378,1
DA:379,1
DA:380,1
DA:383,2
DA:384,2
DA:385,2
DA:386,2
DA:387,2
DA:388,2
DA:389,2
DA:390,2
DA:391,2
DA:392,2
DA:393,2
DA:394,2
DA:395,2
DA:403,1534
DA:428,7
DA:430,7
DA:431,7
DA:433,0
DA:436,7
DA:437,2
DA:438,2
DA:439,2
DA:440,2
DA:441,2
DA:442,2
DA:443,2
DA:444,2
DA:445,3
DA:446,3
DA:447,3
DA:448,3
DA:451,7
DA:452,7
DA:455,1534
DA:456,1534
DA:458,1534
DA:459,1534
DA:460,1534
DA:461,1534
DA:462,1529
DA:463,5
DA:464,2
DA:466,3
DA:468,1534
DA:473,1535
DA:475,1535
DA:476,1535
DA:479,1535
DA:480,1535
DA:482,1535
DA:483,1535
DA:484,1535
DA:487,7
DA:488,7
DA:490,7
DA:491,7
DA:492,7
DA:493,7
DA:494,7
DA:496,7
DA:498,7
DA:499,7
DA:500,7
DA:501,7
DA:502,7
DA:504,7
DA:505,7
DA:515,1
DA:516,1
DA:517,1
DA:518,1
DA:519,1
DA:520,1
DA:521,1
BRF:0
BRH:0
LF:281
LH:276
end_of_record
