SF:C:\Users\luigi\College\Spring 2023\Capstone\EricGrandizio\rge\src\engine.rs
FN:271,_RNvXs0_NtCsbujzjYX0pAI_3rge6engineNtB5_10GameEngineNtNtNtCsflbUU710Hyp_3wyn5win326events12EventHandler12window_close
FN:329,_RNvXs0_NtCsbujzjYX0pAI_3rge6engineNtB5_10GameEngineNtNtNtCsflbUU710Hyp_3wyn5win326events12EventHandler15character_input
FN:478,_RNvMs2_NtCsbujzjYX0pAI_3rge6engineNtB5_11EngineState15internal_update
FN:166,_RNvMs_NtCsbujzjYX0pAI_3rge6engineNtB4_10GameEngine14start_shutdown
FN:287,_RNvXs0_NtCsbujzjYX0pAI_3rge6engineNtB5_10GameEngineNtNtNtCsflbUU710Hyp_3wyn5win326events12EventHandler12window_focus
FN:299,_RNvXs0_NtCsbujzjYX0pAI_3rge6engineNtB5_10GameEngineNtNtNtCsflbUU710Hyp_3wyn5win326events12EventHandler12scroll_wheel
FN:317,_RNvXs0_NtCsbujzjYX0pAI_3rge6engineNtB5_10GameEngineNtNtNtCsflbUU710Hyp_3wyn5win326events12EventHandler9key_press
FN:434,_RNvNtCsbujzjYX0pAI_3rge6engine12write_window
FN:351,_RNvMs1_NtCsbujzjYX0pAI_3rge6engineNtB5_10GameEngine13update_thread
FN:224,_RNvXs0_NtCsbujzjYX0pAI_3rge6engineNtB5_10GameEngineNtNtNtCsflbUU710Hyp_3wyn5win326events12EventHandler17window_reposition
FN:186,_RNvXs0_NtCsbujzjYX0pAI_3rge6engineNtB5_10GameEngineNtNtNtCsflbUU710Hyp_3wyn5win326events12EventHandler5start
FN:340,_RNvMs1_NtCsbujzjYX0pAI_3rge6engineNtB5_10GameEngine3run
FN:547,_RNvMs3_NtCsbujzjYX0pAI_3rge6engineNtB5_11EngineState12update_atlas
FN:305,_RNvXs0_NtCsbujzjYX0pAI_3rge6engineNtB5_10GameEngineNtNtNtCsflbUU710Hyp_3wyn5win326events12EventHandler12button_press
FN:500,_RNvMs2_NtCsbujzjYX0pAI_3rge6engineNtB5_11EngineState15internal_render
FN:461,_RNvNtCsbujzjYX0pAI_3rge6engine11read_window
FN:234,_RNvXs0_NtCsbujzjYX0pAI_3rge6engineNtB5_10GameEngineNtNtNtCsflbUU710Hyp_3wyn5win326events12EventHandler13window_redraw
FN:95,_RNvMs_NtCsbujzjYX0pAI_3rge6engineNtB4_10GameEngine3new
FN:220,_RNvXs0_NtCsbujzjYX0pAI_3rge6engineNtB5_10GameEngineNtNtNtCsflbUU710Hyp_3wyn5win326events12EventHandler4stop
FN:293,_RNvXs0_NtCsbujzjYX0pAI_3rge6engineNtB5_10GameEngineNtNtNtCsflbUU710Hyp_3wyn5win326events12EventHandler11cursor_move
FN:409,_RNvMs1_NtCsbujzjYX0pAI_3rge6engineNtB5_10GameEngine12await_render
FN:424,_RNvMs1_NtCsbujzjYX0pAI_3rge6engineNtB5_10GameEngine13signal_render
FN:168,_RNCNvMs_NtCsbujzjYX0pAI_3rge6engineNtB6_10GameEngine14start_shutdown0B8_
FN:374,_RNCNCNvMs1_NtCsbujzjYX0pAI_3rge6engineNtB9_10GameEngine13update_threads0_00Bb_
FN:135,_RINvMs_NtCsbujzjYX0pAI_3rge6engineNtB5_10GameEngine11write_stateTbNtNtCs4shZNHyK4px_3std4time7InstantjENCNvMs1_B5_Bw_13update_threads0_0EB7_
FN:135,_RINvMs_NtCsbujzjYX0pAI_3rge6engineNtB5_10GameEngine11write_stateuNCNvMs1_B5_Bw_13update_threads_0EB7_
FN:142,_RINvMs_NtCsbujzjYX0pAI_3rge6engineNtB5_10GameEngine10read_stateuNCNvXs0_B5_Bw_NtNtNtCsflbUU710Hyp_3wyn5win326events12EventHandler17window_reposition0EB7_
FN:198,_RNCNvXs0_NtCsbujzjYX0pAI_3rge6engineNtB7_10GameEngineNtNtNtCsflbUU710Hyp_3wyn5win326events12EventHandler5starts_0B9_
FN:254,_RNCNvXs0_NtCsbujzjYX0pAI_3rge6engineNtB7_10GameEngineNtNtNtCsflbUU710Hyp_3wyn5win326events12EventHandler13window_redraws_0B9_
FN:237,_RNCNvXs0_NtCsbujzjYX0pAI_3rge6engineNtB7_10GameEngineNtNtNtCsflbUU710Hyp_3wyn5win326events12EventHandler13window_redraw0B9_
FN:359,_RNCNvMs1_NtCsbujzjYX0pAI_3rge6engineNtB7_10GameEngine13update_threads_0B9_
FN:149,_RINvMs_NtCsbujzjYX0pAI_3rge6engineNtB5_10GameEngine16write_read_stateuuNCNvXs0_B5_Bw_NtNtNtCsflbUU710Hyp_3wyn5win326events12EventHandler5start0NCB19_s_0EB7_
FN:343,_RNCNvMs1_NtCsbujzjYX0pAI_3rge6engineNtB7_10GameEngine3run0B9_
FN:413,_RNCNvMs1_NtCsbujzjYX0pAI_3rge6engineNtB7_10GameEngine12await_render0B9_
FN:366,_RNCNvMs1_NtCsbujzjYX0pAI_3rge6engineNtB7_10GameEngine13update_threads0_0B9_
FN:149,_RINvMs_NtCsbujzjYX0pAI_3rge6engineNtB5_10GameEngine16write_read_statebbNCNvXs0_B5_Bw_NtNtNtCsflbUU710Hyp_3wyn5win326events12EventHandler13window_redraw0NCB19_s_0EB7_
FN:226,_RNCNvXs0_NtCsbujzjYX0pAI_3rge6engineNtB7_10GameEngineNtNtNtCsflbUU710Hyp_3wyn5win326events12EventHandler17window_reposition0B9_
FN:344,_RNCNCNvMs1_NtCsbujzjYX0pAI_3rge6engineNtB9_10GameEngine3run00Bb_
FN:355,_RNCNvMs1_NtCsbujzjYX0pAI_3rge6engineNtB7_10GameEngine13update_thread0B9_
FN:135,_RINvMs_NtCsbujzjYX0pAI_3rge6engineNtB5_10GameEngine11write_stateINtNtCs1RoSZkFyxqL_4core6option6OptionNtNtNtCsflbUU710Hyp_3wyn5win326window6WindowENCNvB2_14start_shutdown0EB7_
FN:135,_RINvMs_NtCsbujzjYX0pAI_3rge6engineNtB5_10GameEngine11write_statebNCNvXs0_B5_Bw_NtNtNtCsflbUU710Hyp_3wyn5win326events12EventHandler12window_close0EB7_
FN:190,_RNCNvXs0_NtCsbujzjYX0pAI_3rge6engineNtB7_10GameEngineNtNtNtCsflbUU710Hyp_3wyn5win326events12EventHandler5start0B9_
FN:273,_RNCNvXs0_NtCsbujzjYX0pAI_3rge6engineNtB7_10GameEngineNtNtNtCsflbUU710Hyp_3wyn5win326events12EventHandler12window_close0B9_
FN:190,_RNCNvXs0_NtCslHwOwCUw2lI_3rge6engineNtB7_10GameEngineNtNtNtCsflbUU710Hyp_3wyn5win326events12EventHandler5start0B9_
FN:254,_RNCNvXs0_NtCslHwOwCUw2lI_3rge6engineNtB7_10GameEngineNtNtNtCsflbUU710Hyp_3wyn5win326events12EventHandler13window_redraws_0B9_
FN:461,_RNvNtCslHwOwCUw2lI_3rge6engine11read_window
FN:366,_RNCNvMs1_NtCslHwOwCUw2lI_3rge6engineNtB7_10GameEngine13update_threads0_0B9_
FN:224,_RNvXs0_NtCslHwOwCUw2lI_3rge6engineNtB5_10GameEngineNtNtNtCsflbUU710Hyp_3wyn5win326events12EventHandler17window_reposition
FN:135,_RINvMs_NtCslHwOwCUw2lI_3rge6engineNtB5_10GameEngine11write_stateppEB7_
FN:166,_RNvMs_NtCslHwOwCUw2lI_3rge6engineNtB4_10GameEngine14start_shutdown
FN:343,_RNCNvMs1_NtCslHwOwCUw2lI_3rge6engineNtB7_10GameEngine3run0B9_
FN:237,_RNCNvXs0_NtCslHwOwCUw2lI_3rge6engineNtB7_10GameEngineNtNtNtCsflbUU710Hyp_3wyn5win326events12EventHandler13window_redraw0B9_
FN:355,_RNCNvMs1_NtCslHwOwCUw2lI_3rge6engineNtB7_10GameEngine13update_thread0B9_
FN:273,_RNCNvXs0_NtCslHwOwCUw2lI_3rge6engineNtB7_10GameEngineNtNtNtCsflbUU710Hyp_3wyn5win326events12EventHandler12window_close0B9_
FN:434,_RNvNtCslHwOwCUw2lI_3rge6engine12write_window
FN:220,_RNvXs0_NtCslHwOwCUw2lI_3rge6engineNtB5_10GameEngineNtNtNtCsflbUU710Hyp_3wyn5win326events12EventHandler4stop
FN:317,_RNvXs0_NtCslHwOwCUw2lI_3rge6engineNtB5_10GameEngineNtNtNtCsflbUU710Hyp_3wyn5win326events12EventHandler9key_press
FN:351,_RNvMs1_NtCslHwOwCUw2lI_3rge6engineNtB5_10GameEngine13update_thread
FN:305,_RNvXs0_NtCslHwOwCUw2lI_3rge6engineNtB5_10GameEngineNtNtNtCsflbUU710Hyp_3wyn5win326events12EventHandler12button_press
FN:168,_RNCNvMs_NtCslHwOwCUw2lI_3rge6engineNtB6_10GameEngine14start_shutdown0B8_
FN:299,_RNvXs0_NtCslHwOwCUw2lI_3rge6engineNtB5_10GameEngineNtNtNtCsflbUU710Hyp_3wyn5win326events12EventHandler12scroll_wheel
FN:186,_RNvXs0_NtCslHwOwCUw2lI_3rge6engineNtB5_10GameEngineNtNtNtCsflbUU710Hyp_3wyn5win326events12EventHandler5start
FN:359,_RNCNvMs1_NtCslHwOwCUw2lI_3rge6engineNtB7_10GameEngine13update_threads_0B9_
FN:95,_RNvMs_NtCslHwOwCUw2lI_3rge6engineNtB4_10GameEngine3new
FN:413,_RNCNvMs1_NtCslHwOwCUw2lI_3rge6engineNtB7_10GameEngine12await_render0B9_
FN:293,_RNvXs0_NtCslHwOwCUw2lI_3rge6engineNtB5_10GameEngineNtNtNtCsflbUU710Hyp_3wyn5win326events12EventHandler11cursor_move
FN:340,_RNvMs1_NtCslHwOwCUw2lI_3rge6engineNtB5_10GameEngine3run
FN:149,_RINvMs_NtCslHwOwCUw2lI_3rge6engineNtB5_10GameEngine16write_read_stateppppEB7_
FN:478,_RNvMs2_NtCslHwOwCUw2lI_3rge6engineNtB5_11EngineState15internal_update
FN:142,_RINvMs_NtCslHwOwCUw2lI_3rge6engineNtB5_10GameEngine10read_stateppEB7_
FN:287,_RNvXs0_NtCslHwOwCUw2lI_3rge6engineNtB5_10GameEngineNtNtNtCsflbUU710Hyp_3wyn5win326events12EventHandler12window_focus
FN:198,_RNCNvXs0_NtCslHwOwCUw2lI_3rge6engineNtB7_10GameEngineNtNtNtCsflbUU710Hyp_3wyn5win326events12EventHandler5starts_0B9_
FN:374,_RNCNCNvMs1_NtCslHwOwCUw2lI_3rge6engineNtB9_10GameEngine13update_threads0_00Bb_
FN:424,_RNvMs1_NtCslHwOwCUw2lI_3rge6engineNtB5_10GameEngine13signal_render
FN:271,_RNvXs0_NtCslHwOwCUw2lI_3rge6engineNtB5_10GameEngineNtNtNtCsflbUU710Hyp_3wyn5win326events12EventHandler12window_close
FN:329,_RNvXs0_NtCslHwOwCUw2lI_3rge6engineNtB5_10GameEngineNtNtNtCsflbUU710Hyp_3wyn5win326events12EventHandler15character_input
FN:500,_RNvMs2_NtCslHwOwCUw2lI_3rge6engineNtB5_11EngineState15internal_render
FN:409,_RNvMs1_NtCslHwOwCUw2lI_3rge6engineNtB5_10GameEngine12await_render
FN:234,_RNvXs0_NtCslHwOwCUw2lI_3rge6engineNtB5_10GameEngineNtNtNtCsflbUU710Hyp_3wyn5win326events12EventHandler13window_redraw
FN:226,_RNCNvXs0_NtCslHwOwCUw2lI_3rge6engineNtB7_10GameEngineNtNtNtCsflbUU710Hyp_3wyn5win326events12EventHandler17window_reposition0B9_
FN:547,_RNvMs3_NtCslHwOwCUw2lI_3rge6engineNtB5_11EngineState12update_atlas
FN:344,_RNCNCNvMs1_NtCslHwOwCUw2lI_3rge6engineNtB9_10GameEngine3run00Bb_
FNDA:12,_RNvXs0_NtCsbujzjYX0pAI_3rge6engineNtB5_10GameEngineNtNtNtCsflbUU710Hyp_3wyn5win326events12EventHandler12window_close
FNDA:66,_RNvXs0_NtCsbujzjYX0pAI_3rge6engineNtB5_10GameEngineNtNtNtCsflbUU710Hyp_3wyn5win326events12EventHandler15character_input
FNDA:6834,_RNvMs2_NtCsbujzjYX0pAI_3rge6engineNtB5_11EngineState15internal_update
FNDA:18,_RNvMs_NtCsbujzjYX0pAI_3rge6engineNtB4_10GameEngine14start_shutdown
FNDA:12,_RNvXs0_NtCsbujzjYX0pAI_3rge6engineNtB5_10GameEngineNtNtNtCsflbUU710Hyp_3wyn5win326events12EventHandler12window_focus
FNDA:193,_RNvXs0_NtCsbujzjYX0pAI_3rge6engineNtB5_10GameEngineNtNtNtCsflbUU710Hyp_3wyn5win326events12EventHandler12scroll_wheel
FNDA:224,_RNvXs0_NtCsbujzjYX0pAI_3rge6engineNtB5_10GameEngineNtNtNtCsflbUU710Hyp_3wyn5win326events12EventHandler9key_press
FNDA:7843,_RNvNtCsbujzjYX0pAI_3rge6engine12write_window
FNDA:6,_RNvMs1_NtCsbujzjYX0pAI_3rge6engineNtB5_10GameEngine13update_thread
FNDA:2350,_RNvXs0_NtCsbujzjYX0pAI_3rge6engineNtB5_10GameEngineNtNtNtCsflbUU710Hyp_3wyn5win326events12EventHandler17window_reposition
FNDA:6,_RNvXs0_NtCsbujzjYX0pAI_3rge6engineNtB5_10GameEngineNtNtNtCsflbUU710Hyp_3wyn5win326events12EventHandler5start
FNDA:6,_RNvMs1_NtCsbujzjYX0pAI_3rge6engineNtB5_10GameEngine3run
FNDA:901,_RNvMs3_NtCsbujzjYX0pAI_3rge6engineNtB5_11EngineState12update_atlas
FNDA:20,_RNvXs0_NtCsbujzjYX0pAI_3rge6engineNtB5_10GameEngineNtNtNtCsflbUU710Hyp_3wyn5win326events12EventHandler12button_press
FNDA:7837,_RNvMs2_NtCsbujzjYX0pAI_3rge6engineNtB5_11EngineState15internal_render
FNDA:7837,_RNvNtCsbujzjYX0pAI_3rge6engine11read_window
FNDA:7837,_RNvXs0_NtCsbujzjYX0pAI_3rge6engineNtB5_10GameEngineNtNtNtCsflbUU710Hyp_3wyn5win326events12EventHandler13window_redraw
FNDA:6,_RNvMs_NtCsbujzjYX0pAI_3rge6engineNtB4_10GameEngine3new
FNDA:6,_RNvXs0_NtCsbujzjYX0pAI_3rge6engineNtB5_10GameEngineNtNtNtCsflbUU710Hyp_3wyn5win326events12EventHandler4stop
FNDA:15967,_RNvXs0_NtCsbujzjYX0pAI_3rge6engineNtB5_10GameEngineNtNtNtCsflbUU710Hyp_3wyn5win326events12EventHandler11cursor_move
FNDA:6830,_RNvMs1_NtCsbujzjYX0pAI_3rge6engineNtB5_10GameEngine12await_render
FNDA:7855,_RNvMs1_NtCsbujzjYX0pAI_3rge6engineNtB5_10GameEngine13signal_render
FNDA:6,_RNCNvMs_NtCsbujzjYX0pAI_3rge6engineNtB6_10GameEngine14start_shutdown0B8_
FNDA:6834,_RNCNCNvMs1_NtCsbujzjYX0pAI_3rge6engineNtB9_10GameEngine13update_threads0_00Bb_
FNDA:6834,_RINvMs_NtCsbujzjYX0pAI_3rge6engineNtB5_10GameEngine11write_stateTbNtNtCs4shZNHyK4px_3std4time7InstantjENCNvMs1_B5_Bw_13update_threads0_0EB7_
FNDA:6,_RINvMs_NtCsbujzjYX0pAI_3rge6engineNtB5_10GameEngine11write_stateuNCNvMs1_B5_Bw_13update_threads_0EB7_
FNDA:2350,_RINvMs_NtCsbujzjYX0pAI_3rge6engineNtB5_10GameEngine10read_stateuNCNvXs0_B5_Bw_NtNtNtCsflbUU710Hyp_3wyn5win326events12EventHandler17window_reposition0EB7_
FNDA:6,_RNCNvXs0_NtCsbujzjYX0pAI_3rge6engineNtB7_10GameEngineNtNtNtCsflbUU710Hyp_3wyn5win326events12EventHandler5starts_0B9_
FNDA:7837,_RNCNvXs0_NtCsbujzjYX0pAI_3rge6engineNtB7_10GameEngineNtNtNtCsflbUU710Hyp_3wyn5win326events12EventHandler13window_redraws_0B9_
FNDA:7837,_RNCNvXs0_NtCsbujzjYX0pAI_3rge6engineNtB7_10GameEngineNtNtNtCsflbUU710Hyp_3wyn5win326events12EventHandler13window_redraw0B9_
FNDA:6,_RNCNvMs1_NtCsbujzjYX0pAI_3rge6engineNtB7_10GameEngine13update_threads_0B9_
FNDA:6,_RINvMs_NtCsbujzjYX0pAI_3rge6engineNtB5_10GameEngine16write_read_stateuuNCNvXs0_B5_Bw_NtNtNtCsflbUU710Hyp_3wyn5win326events12EventHandler5start0NCB19_s_0EB7_
FNDA:6,_RNCNvMs1_NtCsbujzjYX0pAI_3rge6engineNtB7_10GameEngine3run0B9_
FNDA:13660,_RNCNvMs1_NtCsbujzjYX0pAI_3rge6engineNtB7_10GameEngine12await_render0B9_
FNDA:6834,_RNCNvMs1_NtCsbujzjYX0pAI_3rge6engineNtB7_10GameEngine13update_threads0_0B9_
FNDA:7837,_RINvMs_NtCsbujzjYX0pAI_3rge6engineNtB5_10GameEngine16write_read_statebbNCNvXs0_B5_Bw_NtNtNtCsflbUU710Hyp_3wyn5win326events12EventHandler13window_redraw0NCB19_s_0EB7_
FNDA:2344,_RNCNvXs0_NtCsbujzjYX0pAI_3rge6engineNtB7_10GameEngineNtNtNtCsflbUU710Hyp_3wyn5win326events12EventHandler17window_reposition0B9_
FNDA:6,_RNCNCNvMs1_NtCsbujzjYX0pAI_3rge6engineNtB9_10GameEngine3run00Bb_
FNDA:6,_RNCNvMs1_NtCsbujzjYX0pAI_3rge6engineNtB7_10GameEngine13update_thread0B9_
FNDA:18,_RINvMs_NtCsbujzjYX0pAI_3rge6engineNtB5_10GameEngine11write_stateINtNtCs1RoSZkFyxqL_4core6option6OptionNtNtNtCsflbUU710Hyp_3wyn5win326window6WindowENCNvB2_14start_shutdown0EB7_
FNDA:12,_RINvMs_NtCsbujzjYX0pAI_3rge6engineNtB5_10GameEngine11write_statebNCNvXs0_B5_Bw_NtNtNtCsflbUU710Hyp_3wyn5win326events12EventHandler12window_close0EB7_
FNDA:6,_RNCNvXs0_NtCsbujzjYX0pAI_3rge6engineNtB7_10GameEngineNtNtNtCsflbUU710Hyp_3wyn5win326events12EventHandler5start0B9_
FNDA:6,_RNCNvXs0_NtCsbujzjYX0pAI_3rge6engineNtB7_10GameEngineNtNtNtCsflbUU710Hyp_3wyn5win326events12EventHandler12window_close0B9_
FNDA:0,_RNCNvXs0_NtCslHwOwCUw2lI_3rge6engineNtB7_10GameEngineNtNtNtCsflbUU710Hyp_3wyn5win326events12EventHandler5start0B9_
FNDA:0,_RNCNvXs0_NtCslHwOwCUw2lI_3rge6engineNtB7_10GameEngineNtNtNtCsflbUU710Hyp_3wyn5win326events12EventHandler13window_redraws_0B9_
FNDA:0,_RNvNtCslHwOwCUw2lI_3rge6engine11read_window
FNDA:0,_RNCNvMs1_NtCslHwOwCUw2lI_3rge6engineNtB7_10GameEngine13update_threads0_0B9_
FNDA:0,_RNvXs0_NtCslHwOwCUw2lI_3rge6engineNtB5_10GameEngineNtNtNtCsflbUU710Hyp_3wyn5win326events12EventHandler17window_reposition
FNDA:0,_RINvMs_NtCslHwOwCUw2lI_3rge6engineNtB5_10GameEngine11write_stateppEB7_
FNDA:0,_RNvMs_NtCslHwOwCUw2lI_3rge6engineNtB4_10GameEngine14start_shutdown
FNDA:0,_RNCNvMs1_NtCslHwOwCUw2lI_3rge6engineNtB7_10GameEngine3run0B9_
FNDA:0,_RNCNvXs0_NtCslHwOwCUw2lI_3rge6engineNtB7_10GameEngineNtNtNtCsflbUU710Hyp_3wyn5win326events12EventHandler13window_redraw0B9_
FNDA:0,_RNCNvMs1_NtCslHwOwCUw2lI_3rge6engineNtB7_10GameEngine13update_thread0B9_
FNDA:0,_RNCNvXs0_NtCslHwOwCUw2lI_3rge6engineNtB7_10GameEngineNtNtNtCsflbUU710Hyp_3wyn5win326events12EventHandler12window_close0B9_
FNDA:0,_RNvNtCslHwOwCUw2lI_3rge6engine12write_window
FNDA:0,_RNvXs0_NtCslHwOwCUw2lI_3rge6engineNtB5_10GameEngineNtNtNtCsflbUU710Hyp_3wyn5win326events12EventHandler4stop
FNDA:0,_RNvXs0_NtCslHwOwCUw2lI_3rge6engineNtB5_10GameEngineNtNtNtCsflbUU710Hyp_3wyn5win326events12EventHandler9key_press
FNDA:0,_RNvMs1_NtCslHwOwCUw2lI_3rge6engineNtB5_10GameEngine13update_thread
FNDA:0,_RNvXs0_NtCslHwOwCUw2lI_3rge6engineNtB5_10GameEngineNtNtNtCsflbUU710Hyp_3wyn5win326events12EventHandler12button_press
FNDA:0,_RNCNvMs_NtCslHwOwCUw2lI_3rge6engineNtB6_10GameEngine14start_shutdown0B8_
FNDA:0,_RNvXs0_NtCslHwOwCUw2lI_3rge6engineNtB5_10GameEngineNtNtNtCsflbUU710Hyp_3wyn5win326events12EventHandler12scroll_wheel
FNDA:0,_RNvXs0_NtCslHwOwCUw2lI_3rge6engineNtB5_10GameEngineNtNtNtCsflbUU710Hyp_3wyn5win326events12EventHandler5start
FNDA:0,_RNCNvMs1_NtCslHwOwCUw2lI_3rge6engineNtB7_10GameEngine13update_threads_0B9_
FNDA:0,_RNvMs_NtCslHwOwCUw2lI_3rge6engineNtB4_10GameEngine3new
FNDA:0,_RNCNvMs1_NtCslHwOwCUw2lI_3rge6engineNtB7_10GameEngine12await_render0B9_
FNDA:0,_RNvXs0_NtCslHwOwCUw2lI_3rge6engineNtB5_10GameEngineNtNtNtCsflbUU710Hyp_3wyn5win326events12EventHandler11cursor_move
FNDA:0,_RNvMs1_NtCslHwOwCUw2lI_3rge6engineNtB5_10GameEngine3run
FNDA:0,_RINvMs_NtCslHwOwCUw2lI_3rge6engineNtB5_10GameEngine16write_read_stateppppEB7_
FNDA:0,_RNvMs2_NtCslHwOwCUw2lI_3rge6engineNtB5_11EngineState15internal_update
FNDA:0,_RINvMs_NtCslHwOwCUw2lI_3rge6engineNtB5_10GameEngine10read_stateppEB7_
FNDA:0,_RNvXs0_NtCslHwOwCUw2lI_3rge6engineNtB5_10GameEngineNtNtNtCsflbUU710Hyp_3wyn5win326events12EventHandler12window_focus
FNDA:0,_RNCNvXs0_NtCslHwOwCUw2lI_3rge6engineNtB7_10GameEngineNtNtNtCsflbUU710Hyp_3wyn5win326events12EventHandler5starts_0B9_
FNDA:0,_RNCNCNvMs1_NtCslHwOwCUw2lI_3rge6engineNtB9_10GameEngine13update_threads0_00Bb_
FNDA:0,_RNvMs1_NtCslHwOwCUw2lI_3rge6engineNtB5_10GameEngine13signal_render
FNDA:0,_RNvXs0_NtCslHwOwCUw2lI_3rge6engineNtB5_10GameEngineNtNtNtCsflbUU710Hyp_3wyn5win326events12EventHandler12window_close
FNDA:0,_RNvXs0_NtCslHwOwCUw2lI_3rge6engineNtB5_10GameEngineNtNtNtCsflbUU710Hyp_3wyn5win326events12EventHandler15character_input
FNDA:0,_RNvMs2_NtCslHwOwCUw2lI_3rge6engineNtB5_11EngineState15internal_render
FNDA:0,_RNvMs1_NtCslHwOwCUw2lI_3rge6engineNtB5_10GameEngine12await_render
FNDA:0,_RNvXs0_NtCslHwOwCUw2lI_3rge6engineNtB5_10GameEngineNtNtNtCsflbUU710Hyp_3wyn5win326events12EventHandler13window_redraw
FNDA:0,_RNCNvXs0_NtCslHwOwCUw2lI_3rge6engineNtB7_10GameEngineNtNtNtCsflbUU710Hyp_3wyn5win326events12EventHandler17window_reposition0B9_
FNDA:0,_RNvMs3_NtCslHwOwCUw2lI_3rge6engineNtB5_11EngineState12update_atlas
FNDA:0,_RNCNCNvMs1_NtCslHwOwCUw2lI_3rge6engineNtB9_10GameEngine3run00Bb_
FNF:39
FNH:39
DA:95,6
DA:96,6
DA:97,6
DA:98,6
DA:99,6
DA:100,6
DA:101,6
DA:102,6
DA:103,6
DA:104,6
DA:105,6
DA:106,6
DA:107,6
DA:108,6
DA:109,6
DA:110,6
DA:111,6
DA:112,6
DA:113,6
DA:114,6
DA:115,6
DA:116,6
DA:117,6
DA:118,6
DA:119,6
DA:120,6
DA:121,6
DA:122,6
DA:123,6
DA:124,6
DA:125,6
DA:126,6
DA:127,6
DA:128,6
DA:129,6
DA:130,6
DA:135,6870
DA:136,6870
DA:137,6870
DA:138,6870
DA:139,6870
DA:142,2350
DA:143,2350
DA:144,2350
DA:145,2350
DA:146,2350
DA:149,7843
DA:150,7843
DA:151,7843
DA:152,7843
DA:153,7843
DA:154,7843
DA:155,7843
DA:156,7843
DA:157,7843
DA:158,7843
DA:159,7843
DA:160,7843
DA:161,7843
DA:166,18
DA:167,18
DA:168,18
DA:169,6
DA:170,6
DA:172,12
DA:174,18
DA:175,6
DA:176,6
DA:177,12
DA:179,18
DA:180,18
DA:186,6
DA:187,6
DA:188,6
DA:189,6
DA:190,6
DA:191,6
DA:192,6
DA:193,6
DA:194,6
DA:195,6
DA:196,6
DA:197,6
DA:198,6
DA:199,6
DA:200,6
DA:201,6
DA:202,6
DA:203,6
DA:204,6
DA:205,6
DA:206,6
DA:207,6
DA:208,6
DA:209,6
DA:210,6
DA:211,0
DA:212,6
DA:214,6
DA:215,0
DA:216,6
DA:217,6
DA:218,6
DA:220,6
DA:221,6
DA:222,6
DA:224,2350
DA:225,2350
DA:226,2350
DA:227,2344
DA:228,2344
DA:229,2344
DA:230,6
DA:231,2350
DA:232,2350
DA:234,7837
DA:235,7837
DA:236,7837
DA:237,7837
DA:238,7837
DA:239,7837
DA:240,7837
DA:241,0
DA:244,0
DA:247,7837
DA:248,7837
DA:249,7837
DA:250,7837
DA:251,7837
DA:252,7837
DA:253,7837
DA:254,7837
DA:255,7837
DA:256,7837
DA:257,7837
DA:258,7837
DA:260,0
DA:263,7837
DA:264,7837
DA:265,7837
DA:266,7837
DA:267,0
DA:268,7837
DA:269,7837
DA:271,12
DA:272,12
DA:273,12
DA:274,6
DA:276,6
DA:278,12
DA:279,12
DA:280,12
DA:281,6
DA:282,6
DA:283,12
DA:287,12
DA:288,12
DA:289,12
DA:290,12
DA:291,12
DA:293,15967
DA:294,15967
DA:295,15967
DA:296,15967
DA:297,15967
DA:299,193
DA:300,193
DA:301,193
DA:302,193
DA:303,193
DA:305,20
DA:306,20
DA:307,20
DA:308,20
DA:309,20
DA:310,20
DA:311,20
DA:312,20
DA:313,20
DA:314,20
DA:315,20
DA:317,224
DA:318,224
DA:319,224
DA:320,224
DA:321,224
DA:322,224
DA:323,224
DA:324,224
DA:325,224
DA:326,224
DA:327,224
DA:329,66
DA:330,66
DA:331,66
DA:332,66
DA:333,66
DA:340,6
DA:341,6
DA:342,6
DA:343,6
DA:344,6
DA:345,6
DA:346,6
DA:347,6
DA:348,6
DA:351,6
DA:352,6
DA:353,0
DA:354,6
DA:355,6
DA:356,6
DA:357,6
DA:358,6
DA:359,6
DA:360,6
DA:361,6
DA:362,6
DA:363,6
DA:365,6836
DA:366,6834
DA:367,6834
DA:368,6834
DA:369,6834
DA:370,6834
DA:371,6834
DA:372,6834
DA:373,6834
DA:374,6834
DA:375,6834
DA:376,6834
DA:377,6834
DA:378,6834
DA:379,6834
DA:380,6834
DA:381,6834
DA:382,6834
DA:383,6834
DA:384,6834
DA:385,6834
DA:386,6834
DA:387,6834
DA:388,6834
DA:389,6834
DA:390,6834
DA:391,6834
DA:392,6834
DA:393,6834
DA:394,6834
DA:395,6834
DA:396,4
DA:397,6830
DA:398,6830
DA:399,6830
DA:400,0
DA:401,6830
DA:402,6830
DA:403,6830
DA:405,6
DA:409,6830
DA:410,6830
DA:411,6830
DA:412,6830
DA:413,13660
DA:414,6830
DA:416,6830
DA:418,0
DA:420,6830
DA:424,7855
DA:425,7855
DA:426,7855
DA:427,7855
DA:428,7855
DA:434,7843
DA:435,7843
DA:436,7843
DA:437,7843
DA:438,6186
DA:439,6186
DA:441,7843
DA:442,7843
DA:443,7843
DA:444,6
DA:445,7837
DA:447,7843
DA:448,7843
DA:449,7843
DA:450,54
DA:451,27
DA:452,27
DA:453,27
DA:454,27
DA:455,27
DA:456,27
DA:457,7789
DA:458,7843
DA:461,7837
DA:462,7837
DA:463,7837
DA:464,7837
DA:465,7837
DA:466,7837
DA:467,7837
DA:468,7837
DA:469,7837
DA:470,7837
DA:471,7837
DA:478,6834
DA:479,6834
DA:480,4
DA:481,6830
DA:482,6830
DA:483,6830
DA:484,6830
DA:485,6830
DA:486,6830
DA:487,6830
DA:488,0
DA:489,6830
DA:491,6830
DA:492,6830
DA:493,6830
DA:495,6830
DA:496,6834
DA:500,7837
DA:501,7837
DA:502,0
DA:503,7837
DA:504,7837
DA:505,7837
DA:506,0
DA:507,7837
DA:508,7837
DA:509,7837
DA:510,7837
DA:511,7837
DA:512,0
DA:513,7837
DA:515,7837
DA:517,0
DA:520,7837
DA:521,7837
DA:522,7837
DA:523,7837
DA:524,7837
DA:525,7837
DA:526,7837
DA:527,7837
DA:528,7837
DA:529,7837
DA:530,7837
DA:531,7837
DA:532,7837
DA:533,7837
DA:534,7837
DA:535,7837
DA:536,7837
DA:537,7837
DA:538,7837
DA:539,7837
DA:540,7837
DA:547,901
DA:548,901
DA:549,901
BRF:0
BRH:0
LF:384
LH:370
end_of_record
SF:C:\Users\luigi\College\Spring 2023\Capstone\EricGrandizio\rge\src\inputs.rs
FN:19,_RNvXs2_NtCsbujzjYX0pAI_3rge6inputsNtB5_5InputNtNtCs1RoSZkFyxqL_4core3cmp9PartialEq2eqB7_
FN:79,_RNvMNtCsbujzjYX0pAI_3rge6inputsNtB2_6Inputs5count
FN:60,_RNvXs4_NtCsbujzjYX0pAI_3rge6inputsNtB5_6InputsNtNtCs1RoSZkFyxqL_4core7default7Default7defaultB7_
FN:74,_RNvMNtCsbujzjYX0pAI_3rge6inputsNtB2_6Inputs8contains
FN:80,_RNCNvMNtCsbujzjYX0pAI_3rge6inputsNtB4_6Inputs5count0B6_
FN:60,_RNvXs3_NtCsbujzjYX0pAI_3rge6inputsNtB5_6InputsNtNtCs1RoSZkFyxqL_4core5clone5Clone5cloneB7_
FN:19,_RNvXs_NtCsbujzjYX0pAI_3rge6inputsNtB4_5InputNtNtCs1RoSZkFyxqL_4core5clone5Clone5cloneB6_
FN:74,_RNvMNtCslHwOwCUw2lI_3rge6inputsNtB2_6Inputs8contains
FN:60,_RNvXs3_NtCslHwOwCUw2lI_3rge6inputsNtB5_6InputsNtNtCs1RoSZkFyxqL_4core5clone5Clone5cloneB7_
FN:19,_RNvXs2_NtCslHwOwCUw2lI_3rge6inputsNtB5_5InputNtNtCs1RoSZkFyxqL_4core3cmp9PartialEq2eqB7_
FN:60,_RNvXs4_NtCslHwOwCUw2lI_3rge6inputsNtB5_6InputsNtNtCs1RoSZkFyxqL_4core7default7Default7defaultB7_
FN:80,_RNCNvMNtCslHwOwCUw2lI_3rge6inputsNtB4_6Inputs5count0B6_
FN:19,_RNvXs_NtCslHwOwCUw2lI_3rge6inputsNtB4_5InputNtNtCs1RoSZkFyxqL_4core5clone5Clone5cloneB6_
FN:79,_RNvMNtCslHwOwCUw2lI_3rge6inputsNtB2_6Inputs5count
FNDA:40816,_RNvXs2_NtCsbujzjYX0pAI_3rge6inputsNtB5_5InputNtNtCs1RoSZkFyxqL_4core3cmp9PartialEq2eqB7_
FNDA:1798,_RNvMNtCsbujzjYX0pAI_3rge6inputsNtB2_6Inputs5count
FNDA:12,_RNvXs4_NtCsbujzjYX0pAI_3rge6inputsNtB5_6InputsNtNtCs1RoSZkFyxqL_4core7default7Default7defaultB7_
FNDA:8089,_RNvMNtCsbujzjYX0pAI_3rge6inputsNtB2_6Inputs8contains
FNDA:7424,_RNCNvMNtCsbujzjYX0pAI_3rge6inputsNtB4_6Inputs5count0B6_
FNDA:0,_RNvXs3_NtCsbujzjYX0pAI_3rge6inputsNtB5_6InputsNtNtCs1RoSZkFyxqL_4core5clone5Clone5cloneB7_
FNDA:0,_RNvXs_NtCsbujzjYX0pAI_3rge6inputsNtB4_5InputNtNtCs1RoSZkFyxqL_4core5clone5Clone5cloneB6_
FNDA:0,_RNvMNtCslHwOwCUw2lI_3rge6inputsNtB2_6Inputs8contains
FNDA:0,_RNvXs3_NtCslHwOwCUw2lI_3rge6inputsNtB5_6InputsNtNtCs1RoSZkFyxqL_4core5clone5Clone5cloneB7_
FNDA:0,_RNvXs2_NtCslHwOwCUw2lI_3rge6inputsNtB5_5InputNtNtCs1RoSZkFyxqL_4core3cmp9PartialEq2eqB7_
FNDA:0,_RNvXs4_NtCslHwOwCUw2lI_3rge6inputsNtB5_6InputsNtNtCs1RoSZkFyxqL_4core7default7Default7defaultB7_
FNDA:0,_RNCNvMNtCslHwOwCUw2lI_3rge6inputsNtB4_6Inputs5count0B6_
FNDA:0,_RNvXs_NtCslHwOwCUw2lI_3rge6inputsNtB4_5InputNtNtCs1RoSZkFyxqL_4core5clone5Clone5cloneB6_
FNDA:0,_RNvMNtCslHwOwCUw2lI_3rge6inputsNtB2_6Inputs5count
FNF:7
FNH:5
DA:19,40816
DA:60,12
DA:74,8089
DA:75,8089
DA:76,8089
DA:79,1798
DA:80,7424
DA:81,1798
BRF:0
BRH:0
LF:11
LH:9
end_of_record
SF:C:\Users\luigi\College\Spring 2023\Capstone\EricGrandizio\rge\src\lib.rs
FN:1,_RNvCslHwOwCUw2lI_3rge4main
FNDA:2,_RNvCslHwOwCUw2lI_3rge4main
FNF:1
FNH:1
DA:1,2
BRF:0
BRH:0
LF:1
LH:1
end_of_record
SF:C:\Users\luigi\College\Spring 2023\Capstone\EricGrandizio\rge\src\settings.rs
FN:20,_RNvXs1_NtCsbujzjYX0pAI_3rge8settingsNtB5_18GameEngineSettingsNtNtCs1RoSZkFyxqL_4core3fmt5Debug3fmt
FN:177,_RNvMNtCsbujzjYX0pAI_3rge8settingsNtB2_14RenderSettings8triangle
FN:184,_RNvMNtCsbujzjYX0pAI_3rge8settingsNtB2_14RenderSettings10line_strip
FN:216,_RNvMNtCsbujzjYX0pAI_3rge8settingsNtB2_14RenderSettings12triangle_fan
FN:255,_RNvMNtCsbujzjYX0pAI_3rge8settingsNtB2_14RenderSettings15uv_triangle_fan
FN:56,_RNvXs6_NtCsbujzjYX0pAI_3rge8settingsNtB5_14RenderSettingsNtNtCs1RoSZkFyxqL_4core7default7Default7defaultB7_
FN:200,_RNvMNtCsbujzjYX0pAI_3rge8settingsNtB2_14RenderSettings14triangle_strip
FN:41,_RNvXs3_NtCsbujzjYX0pAI_3rge8settingsNtB5_14WindowSettingsNtNtCs1RoSZkFyxqL_4core7default7Default7defaultB7_
FN:41,_RNvXs4_NtCsbujzjYX0pAI_3rge8settingsNtB5_14WindowSettingsNtNtCs1RoSZkFyxqL_4core3fmt5Debug3fmt
FN:165,_RNvMNtCsbujzjYX0pAI_3rge8settingsNtB2_14RenderSettings5point
FN:56,_RNvXs7_NtCsbujzjYX0pAI_3rge8settingsNtB5_14RenderSettingsNtNtCs1RoSZkFyxqL_4core3fmt5Debug3fmt
FN:170,_RNvMNtCsbujzjYX0pAI_3rge8settingsNtB2_14RenderSettings4line
FN:140,_RNvMNtCsbujzjYX0pAI_3rge8settingsNtB2_14RenderSettings5clear
FN:239,_RNvMNtCsbujzjYX0pAI_3rge8settingsNtB2_14RenderSettings17uv_triangle_strip
FN:232,_RNvMNtCsbujzjYX0pAI_3rge8settingsNtB2_14RenderSettings11uv_triangle
FN:56,_RNvXs5_NtCsbujzjYX0pAI_3rge8settingsNtB5_14RenderSettingsNtNtCs1RoSZkFyxqL_4core5clone5Clone5cloneB7_
FN:20,_RNvXs_NtCsbujzjYX0pAI_3rge8settingsNtB4_18GameEngineSettingsNtNtCs1RoSZkFyxqL_4core5clone5Clone5cloneB6_
FN:41,_RNvXs2_NtCsbujzjYX0pAI_3rge8settingsNtB5_14WindowSettingsNtNtCs1RoSZkFyxqL_4core5clone5Clone5cloneB7_
FN:20,_RNvXs1_NtCslHwOwCUw2lI_3rge8settingsNtB5_18GameEngineSettingsNtNtCs1RoSZkFyxqL_4core3fmt5Debug3fmt
FN:140,_RNvMNtCslHwOwCUw2lI_3rge8settingsNtB2_14RenderSettings5clear
FN:56,_RNvXs6_NtCslHwOwCUw2lI_3rge8settingsNtB5_14RenderSettingsNtNtCs1RoSZkFyxqL_4core7default7Default7defaultB7_
FN:20,_RNvXs_NtCslHwOwCUw2lI_3rge8settingsNtB4_18GameEngineSettingsNtNtCs1RoSZkFyxqL_4core5clone5Clone5cloneB6_
FN:170,_RNvMNtCslHwOwCUw2lI_3rge8settingsNtB2_14RenderSettings4line
FN:41,_RNvXs3_NtCslHwOwCUw2lI_3rge8settingsNtB5_14WindowSettingsNtNtCs1RoSZkFyxqL_4core7default7Default7defaultB7_
FN:177,_RNvMNtCslHwOwCUw2lI_3rge8settingsNtB2_14RenderSettings8triangle
FN:232,_RNvMNtCslHwOwCUw2lI_3rge8settingsNtB2_14RenderSettings11uv_triangle
FN:56,_RNvXs7_NtCslHwOwCUw2lI_3rge8settingsNtB5_14RenderSettingsNtNtCs1RoSZkFyxqL_4core3fmt5Debug3fmt
FN:255,_RNvMNtCslHwOwCUw2lI_3rge8settingsNtB2_14RenderSettings15uv_triangle_fan
FN:239,_RNvMNtCslHwOwCUw2lI_3rge8settingsNtB2_14RenderSettings17uv_triangle_strip
FN:41,_RNvXs4_NtCslHwOwCUw2lI_3rge8settingsNtB5_14WindowSettingsNtNtCs1RoSZkFyxqL_4core3fmt5Debug3fmt
FN:200,_RNvMNtCslHwOwCUw2lI_3rge8settingsNtB2_14RenderSettings14triangle_strip
FN:184,_RNvMNtCslHwOwCUw2lI_3rge8settingsNtB2_14RenderSettings10line_strip
FN:56,_RNvXs5_NtCslHwOwCUw2lI_3rge8settingsNtB5_14RenderSettingsNtNtCs1RoSZkFyxqL_4core5clone5Clone5cloneB7_
FN:165,_RNvMNtCslHwOwCUw2lI_3rge8settingsNtB2_14RenderSettings5point
FN:216,_RNvMNtCslHwOwCUw2lI_3rge8settingsNtB2_14RenderSettings12triangle_fan
FN:41,_RNvXs2_NtCslHwOwCUw2lI_3rge8settingsNtB5_14WindowSettingsNtNtCs1RoSZkFyxqL_4core5clone5Clone5cloneB7_
FNDA:0,_RNvXs1_NtCsbujzjYX0pAI_3rge8settingsNtB5_18GameEngineSettingsNtNtCs1RoSZkFyxqL_4core3fmt5Debug3fmt
FNDA:180,_RNvMNtCsbujzjYX0pAI_3rge8settingsNtB2_14RenderSettings8triangle
FNDA:180,_RNvMNtCsbujzjYX0pAI_3rge8settingsNtB2_14RenderSettings10line_strip
FNDA:5305,_RNvMNtCsbujzjYX0pAI_3rge8settingsNtB2_14RenderSettings12triangle_fan
FNDA:25959,_RNvMNtCsbujzjYX0pAI_3rge8settingsNtB2_14RenderSettings15uv_triangle_fan
FNDA:6,_RNvXs6_NtCsbujzjYX0pAI_3rge8settingsNtB5_14RenderSettingsNtNtCs1RoSZkFyxqL_4core7default7Default7defaultB7_
FNDA:270,_RNvMNtCsbujzjYX0pAI_3rge8settingsNtB2_14RenderSettings14triangle_strip
FNDA:6,_RNvXs3_NtCsbujzjYX0pAI_3rge8settingsNtB5_14WindowSettingsNtNtCs1RoSZkFyxqL_4core7default7Default7defaultB7_
FNDA:0,_RNvXs4_NtCsbujzjYX0pAI_3rge8settingsNtB5_14WindowSettingsNtNtCs1RoSZkFyxqL_4core3fmt5Debug3fmt
FNDA:104271,_RNvMNtCsbujzjYX0pAI_3rge8settingsNtB2_14RenderSettings5point
FNDA:0,_RNvXs7_NtCsbujzjYX0pAI_3rge8settingsNtB5_14RenderSettingsNtNtCs1RoSZkFyxqL_4core3fmt5Debug3fmt
FNDA:57250,_RNvMNtCsbujzjYX0pAI_3rge8settingsNtB2_14RenderSettings4line
FNDA:6180,_RNvMNtCsbujzjYX0pAI_3rge8settingsNtB2_14RenderSettings5clear
FNDA:25446,_RNvMNtCsbujzjYX0pAI_3rge8settingsNtB2_14RenderSettings17uv_triangle_strip
FNDA:0,_RNvMNtCsbujzjYX0pAI_3rge8settingsNtB2_14RenderSettings11uv_triangle
FNDA:0,_RNvXs5_NtCsbujzjYX0pAI_3rge8settingsNtB5_14RenderSettingsNtNtCs1RoSZkFyxqL_4core5clone5Clone5cloneB7_
FNDA:0,_RNvXs_NtCsbujzjYX0pAI_3rge8settingsNtB4_18GameEngineSettingsNtNtCs1RoSZkFyxqL_4core5clone5Clone5cloneB6_
FNDA:0,_RNvXs2_NtCsbujzjYX0pAI_3rge8settingsNtB5_14WindowSettingsNtNtCs1RoSZkFyxqL_4core5clone5Clone5cloneB7_
FNDA:0,_RNvXs1_NtCslHwOwCUw2lI_3rge8settingsNtB5_18GameEngineSettingsNtNtCs1RoSZkFyxqL_4core3fmt5Debug3fmt
FNDA:0,_RNvMNtCslHwOwCUw2lI_3rge8settingsNtB2_14RenderSettings5clear
FNDA:0,_RNvXs6_NtCslHwOwCUw2lI_3rge8settingsNtB5_14RenderSettingsNtNtCs1RoSZkFyxqL_4core7default7Default7defaultB7_
FNDA:0,_RNvXs_NtCslHwOwCUw2lI_3rge8settingsNtB4_18GameEngineSettingsNtNtCs1RoSZkFyxqL_4core5clone5Clone5cloneB6_
FNDA:0,_RNvMNtCslHwOwCUw2lI_3rge8settingsNtB2_14RenderSettings4line
FNDA:0,_RNvXs3_NtCslHwOwCUw2lI_3rge8settingsNtB5_14WindowSettingsNtNtCs1RoSZkFyxqL_4core7default7Default7defaultB7_
FNDA:0,_RNvMNtCslHwOwCUw2lI_3rge8settingsNtB2_14RenderSettings8triangle
FNDA:0,_RNvMNtCslHwOwCUw2lI_3rge8settingsNtB2_14RenderSettings11uv_triangle
FNDA:0,_RNvXs7_NtCslHwOwCUw2lI_3rge8settingsNtB5_14RenderSettingsNtNtCs1RoSZkFyxqL_4core3fmt5Debug3fmt
FNDA:0,_RNvMNtCslHwOwCUw2lI_3rge8settingsNtB2_14RenderSettings15uv_triangle_fan
FNDA:0,_RNvMNtCslHwOwCUw2lI_3rge8settingsNtB2_14RenderSettings17uv_triangle_strip
FNDA:0,_RNvXs4_NtCslHwOwCUw2lI_3rge8settingsNtB5_14WindowSettingsNtNtCs1RoSZkFyxqL_4core3fmt5Debug3fmt
FNDA:0,_RNvMNtCslHwOwCUw2lI_3rge8settingsNtB2_14RenderSettings14triangle_strip
FNDA:0,_RNvMNtCslHwOwCUw2lI_3rge8settingsNtB2_14RenderSettings10line_strip
FNDA:0,_RNvXs5_NtCslHwOwCUw2lI_3rge8settingsNtB5_14RenderSettingsNtNtCs1RoSZkFyxqL_4core5clone5Clone5cloneB7_
FNDA:0,_RNvMNtCslHwOwCUw2lI_3rge8settingsNtB2_14RenderSettings5point
FNDA:0,_RNvMNtCslHwOwCUw2lI_3rge8settingsNtB2_14RenderSettings12triangle_fan
FNDA:0,_RNvXs2_NtCslHwOwCUw2lI_3rge8settingsNtB5_14WindowSettingsNtNtCs1RoSZkFyxqL_4core5clone5Clone5cloneB7_
FNF:18
FNH:11
DA:20,0
DA:41,6
DA:56,6
DA:140,6180
DA:141,6180
DA:142,6180
DA:143,6180
DA:144,6180
DA:145,6180
DA:146,6180
DA:147,6180
DA:148,6180
DA:149,6180
DA:150,6180
DA:151,6180
DA:152,6180
DA:153,6180
DA:154,6180
DA:155,6180
DA:156,6180
DA:157,6180
DA:158,6180
DA:159,6180
DA:160,6180
DA:161,6180
DA:162,6180
DA:165,104271
DA:166,104271
DA:167,104271
DA:170,57250
DA:171,171750
DA:172,114500
DA:173,114500
DA:174,57250
DA:177,180
DA:178,720
DA:179,540
DA:180,540
DA:181,180
DA:184,180
DA:185,180
DA:186,180
DA:187,0
DA:190,180
DA:191,1080
DA:192,900
DA:193,900
DA:194,900
DA:195,900
DA:196,180
DA:197,180
DA:200,270
DA:201,270
DA:202,270
DA:203,0
DA:206,270
DA:207,1710
DA:208,1440
DA:209,1440
DA:210,1440
DA:211,1440
DA:212,270
DA:213,270
DA:216,5305
DA:217,5305
DA:218,5305
DA:219,0
DA:222,5305
DA:223,3288764
DA:224,3283459
DA:225,3283459
DA:226,3283459
DA:227,3283459
DA:228,5305
DA:229,5305
DA:232,0
DA:233,0
DA:234,0
DA:235,0
DA:236,0
DA:239,25446
DA:240,25446
DA:241,25446
DA:242,0
DA:245,25446
DA:246,127230
DA:247,101784
DA:248,101784
DA:249,101784
DA:250,101784
DA:251,25446
DA:252,25446
DA:255,25959
DA:256,25959
DA:257,25959
DA:258,0
DA:261,25959
DA:262,629987
DA:263,604028
DA:264,604028
DA:265,604028
DA:266,604028
DA:267,25959
DA:268,25959
BRF:0
BRH:0
LF:109
LH:93
end_of_record
SF:C:\Users\luigi\College\Spring 2023\Capstone\EricGrandizio\rge\src\texture.rs
FN:98,_RNvXs0_NtCsbujzjYX0pAI_3rge7textureNtB5_4RGBANtNtCs1RoSZkFyxqL_4core3fmt7Display3fmt
FN:252,_RNvMs4_NtCsbujzjYX0pAI_3rge7textureNtB5_7Texture5width
FN:44,_RNvMNtCsbujzjYX0pAI_3rge7textureNtB2_4RGBA4rgba
FN:277,_RNvMs4_NtCsbujzjYX0pAI_3rge7textureNtB5_7Texture12as_mut_slice
FN:290,_RNvMs5_NtCsbujzjYX0pAI_3rge7textureNtB5_7Texture9vk_extent
FN:21,_RNvXsa_NtCsbujzjYX0pAI_3rge7textureNtB5_4RGBANtNtCs1RoSZkFyxqL_4core3cmp9PartialEq2eqB7_
FN:330,_RNvMs6_NtCsbujzjYX0pAI_3rge7textureNtB5_7Texture5clear
FN:163,_RNvMs3_NtCsbujzjYX0pAI_3rge7textureNtB5_7Texture10load_bytes
FN:185,_RNvMs3_NtCsbujzjYX0pAI_3rge7textureNtB5_7Texture12from_stbi_u8
FN:262,_RNvMs4_NtCsbujzjYX0pAI_3rge7textureNtB5_7Texture3len
FN:245,_RNvMs4_NtCsbujzjYX0pAI_3rge7textureNtB5_7Texture14calculate_size
FN:59,_RNvMNtCsbujzjYX0pAI_3rge7textureNtB2_4RGBA5rgb_f
FN:129,_RNvXsj_NtCsbujzjYX0pAI_3rge7textureNtB5_7TextureNtNtCs1RoSZkFyxqL_4core3fmt5Debug3fmt
FN:210,_RNvMs3_NtCsbujzjYX0pAI_3rge7textureNtB5_7Texture13from_stbi_f32
FN:176,_RNvMs3_NtCsbujzjYX0pAI_3rge7textureNtB5_7Texture11stbi_to_rge
FN:272,_RNvMs4_NtCsbujzjYX0pAI_3rge7textureNtB5_7Texture8as_slice
FN:77,_RNvMNtCsbujzjYX0pAI_3rge7textureNtB2_4RGBA7convert
FN:88,_RNvXs_NtCsbujzjYX0pAI_3rge7textureNtB4_4RGBANtNtCs1RoSZkFyxqL_4core3fmt5Debug3fmt
FN:230,_RNvMs4_NtCsbujzjYX0pAI_3rge7textureNtB5_7Texture3new
FN:49,_RNvMNtCsbujzjYX0pAI_3rge7textureNtB2_4RGBA6rgba32
FN:37,_RNvMNtCsbujzjYX0pAI_3rge7textureNtB2_4RGBA3rgb
FN:68,_RNvMNtCsbujzjYX0pAI_3rge7textureNtB2_4RGBA6rgba_f
FN:303,_RNvMs5_NtCsbujzjYX0pAI_3rge7textureNtB5_7Texture14vk_device_size
FN:321,_RNvMs6_NtCsbujzjYX0pAI_3rge7textureNtB5_7Texture6resize
FN:110,_RNvXs1_NtCsbujzjYX0pAI_3rge7textureNtB5_4RGBAINtNtCs1RoSZkFyxqL_4core7convert4FromNtNtNtNtB7_6vulkan7shaders4glsl4vec4E4from
FN:337,_RNvMs6_NtCsbujzjYX0pAI_3rge7textureNtB5_7Texture6chroma
FN:257,_RNvMs4_NtCsbujzjYX0pAI_3rge7textureNtB5_7Texture6height
FN:267,_RNvMs4_NtCsbujzjYX0pAI_3rge7textureNtB5_7Texture8is_empty
FN:21,_RNvXs7_NtCsbujzjYX0pAI_3rge7textureNtB5_4RGBANtNtCs1RoSZkFyxqL_4core5clone5Clone5cloneB7_
FN:129,_RNvXsg_NtCsbujzjYX0pAI_3rge7textureNtB5_7TextureNtNtCs1RoSZkFyxqL_4core3cmp9PartialEq2eqB7_
FN:129,_RNvXse_NtCsbujzjYX0pAI_3rge7textureNtB5_7TextureNtNtCs1RoSZkFyxqL_4core5clone5Clone5cloneB7_
FN:21,_RNvXsd_NtCsbujzjYX0pAI_3rge7textureNtB5_4RGBANtNtCs1RoSZkFyxqL_4core7default7Default7defaultB7_
FN:129,_RNvXsk_NtCsbujzjYX0pAI_3rge7textureNtB5_7TextureNtNtCs1RoSZkFyxqL_4core7default7Default7defaultB7_
FN:152,_RINvMs3_NtCsbujzjYX0pAI_3rge7textureNtB6_7Texture4loadpEB8_
FN:199,_RNCNvMs3_NtCsbujzjYX0pAI_3rge7textureNtB7_7Texture12from_stbi_u80B9_
FN:340,_RNCNvMs6_NtCsbujzjYX0pAI_3rge7textureNtB7_7Texture6chroma0B9_
FN:116,_RNvXs2_NtCsbujzjYX0pAI_3rge7textureNtNtNtNtB7_6vulkan7shaders4glsl4vec4INtNtCs1RoSZkFyxqL_4core7convert4FromNtB5_4RGBAE4from
FN:59,_RNvMNtCslHwOwCUw2lI_3rge7textureNtB2_4RGBA5rgb_f
FN:176,_RNvMs3_NtCslHwOwCUw2lI_3rge7textureNtB5_7Texture11stbi_to_rge
FN:272,_RNvMs4_NtCslHwOwCUw2lI_3rge7textureNtB5_7Texture8as_slice
FN:337,_RNvMs6_NtCslHwOwCUw2lI_3rge7textureNtB5_7Texture6chroma
FN:267,_RNvMs4_NtCslHwOwCUw2lI_3rge7textureNtB5_7Texture8is_empty
FN:340,_RNCNvMs6_NtCslHwOwCUw2lI_3rge7textureNtB7_7Texture6chroma0B9_
FN:68,_RNvMNtCslHwOwCUw2lI_3rge7textureNtB2_4RGBA6rgba_f
FN:110,_RNvXs1_NtCslHwOwCUw2lI_3rge7textureNtB5_4RGBAINtNtCs1RoSZkFyxqL_4core7convert4FromNtNtNtNtB7_6vulkan7shaders4glsl4vec4E4from
FN:185,_RNvMs3_NtCslHwOwCUw2lI_3rge7textureNtB5_7Texture12from_stbi_u8
FN:303,_RNvMs5_NtCslHwOwCUw2lI_3rge7textureNtB5_7Texture14vk_device_size
FN:129,_RNvXsg_NtCslHwOwCUw2lI_3rge7textureNtB5_7TextureNtNtCs1RoSZkFyxqL_4core3cmp9PartialEq2eqB7_
FN:44,_RNvMNtCslHwOwCUw2lI_3rge7textureNtB2_4RGBA4rgba
FN:252,_RNvMs4_NtCslHwOwCUw2lI_3rge7textureNtB5_7Texture5width
FN:290,_RNvMs5_NtCslHwOwCUw2lI_3rge7textureNtB5_7Texture9vk_extent
FN:330,_RNvMs6_NtCslHwOwCUw2lI_3rge7textureNtB5_7Texture5clear
FN:152,_RINvMs3_NtCslHwOwCUw2lI_3rge7textureNtB6_7Texture4loadpEB8_
FN:277,_RNvMs4_NtCslHwOwCUw2lI_3rge7textureNtB5_7Texture12as_mut_slice
FN:21,_RNvXsa_NtCslHwOwCUw2lI_3rge7textureNtB5_4RGBANtNtCs1RoSZkFyxqL_4core3cmp9PartialEq2eqB7_
FN:129,_RNvXsj_NtCslHwOwCUw2lI_3rge7textureNtB5_7TextureNtNtCs1RoSZkFyxqL_4core3fmt5Debug3fmt
FN:210,_RNvMs3_NtCslHwOwCUw2lI_3rge7textureNtB5_7Texture13from_stbi_f32
FN:77,_RNvMNtCslHwOwCUw2lI_3rge7textureNtB2_4RGBA7convert
FN:98,_RNvXs0_NtCslHwOwCUw2lI_3rge7textureNtB5_4RGBANtNtCs1RoSZkFyxqL_4core3fmt7Display3fmt
FN:129,_RNvXse_NtCslHwOwCUw2lI_3rge7textureNtB5_7TextureNtNtCs1RoSZkFyxqL_4core5clone5Clone5cloneB7_
FN:262,_RNvMs4_NtCslHwOwCUw2lI_3rge7textureNtB5_7Texture3len
FN:21,_RNvXsd_NtCslHwOwCUw2lI_3rge7textureNtB5_4RGBANtNtCs1RoSZkFyxqL_4core7default7Default7defaultB7_
FN:230,_RNvMs4_NtCslHwOwCUw2lI_3rge7textureNtB5_7Texture3new
FN:37,_RNvMNtCslHwOwCUw2lI_3rge7textureNtB2_4RGBA3rgb
FN:321,_RNvMs6_NtCslHwOwCUw2lI_3rge7textureNtB5_7Texture6resize
FN:257,_RNvMs4_NtCslHwOwCUw2lI_3rge7textureNtB5_7Texture6height
FN:49,_RNvMNtCslHwOwCUw2lI_3rge7textureNtB2_4RGBA6rgba32
FN:199,_RNCNvMs3_NtCslHwOwCUw2lI_3rge7textureNtB7_7Texture12from_stbi_u80B9_
FN:116,_RNvXs2_NtCslHwOwCUw2lI_3rge7textureNtNtNtNtB7_6vulkan7shaders4glsl4vec4INtNtCs1RoSZkFyxqL_4core7convert4FromNtB5_4RGBAE4from
FN:163,_RNvMs3_NtCslHwOwCUw2lI_3rge7textureNtB5_7Texture10load_bytes
FN:245,_RNvMs4_NtCslHwOwCUw2lI_3rge7textureNtB5_7Texture14calculate_size
FN:88,_RNvXs_NtCslHwOwCUw2lI_3rge7textureNtB4_4RGBANtNtCs1RoSZkFyxqL_4core3fmt5Debug3fmt
FN:129,_RNvXsk_NtCslHwOwCUw2lI_3rge7textureNtB5_7TextureNtNtCs1RoSZkFyxqL_4core7default7Default7defaultB7_
FN:21,_RNvXs7_NtCslHwOwCUw2lI_3rge7textureNtB5_4RGBANtNtCs1RoSZkFyxqL_4core5clone5Clone5cloneB7_
FN:129,_RNvXsg_NtCsbujzjYX0pAI_3rge7textureNtB5_7TextureNtNtCs1RoSZkFyxqL_4core3cmp9PartialEq2eqCs8qqFqPqm3ad_8textures
FN:21,_RNvXsd_NtCsbujzjYX0pAI_3rge7textureNtB5_4RGBANtNtCs1RoSZkFyxqL_4core7default7Default7defaultCs8qqFqPqm3ad_8textures
FN:21,_RNvXsa_NtCsbujzjYX0pAI_3rge7textureNtB5_4RGBANtNtCs1RoSZkFyxqL_4core3cmp9PartialEq2eqCs8qqFqPqm3ad_8textures
FN:152,_RINvMs3_NtCsbujzjYX0pAI_3rge7textureNtB6_7Texture4loadRNtNtCs4shZNHyK4px_3std4path4PathECs8qqFqPqm3ad_8textures
FNDA:2,_RNvXs0_NtCsbujzjYX0pAI_3rge7textureNtB5_4RGBANtNtCs1RoSZkFyxqL_4core3fmt7Display3fmt
FNDA:2,_RNvMs4_NtCsbujzjYX0pAI_3rge7textureNtB5_7Texture5width
FNDA:7363617,_RNvMNtCsbujzjYX0pAI_3rge7textureNtB2_4RGBA4rgba
FNDA:972,_RNvMs4_NtCsbujzjYX0pAI_3rge7textureNtB5_7Texture12as_mut_slice
FNDA:1814,_RNvMs5_NtCsbujzjYX0pAI_3rge7textureNtB5_7Texture9vk_extent
FNDA:4,_RNvXsa_NtCsbujzjYX0pAI_3rge7textureNtB5_4RGBANtNtCs1RoSZkFyxqL_4core3cmp9PartialEq2eqB7_
FNDA:0,_RNvMs6_NtCsbujzjYX0pAI_3rge7textureNtB5_7Texture5clear
FNDA:4,_RNvMs3_NtCsbujzjYX0pAI_3rge7textureNtB5_7Texture10load_bytes
FNDA:5,_RNvMs3_NtCsbujzjYX0pAI_3rge7textureNtB5_7Texture12from_stbi_u8
FNDA:1,_RNvMs4_NtCsbujzjYX0pAI_3rge7textureNtB5_7Texture3len
FNDA:9,_RNvMs4_NtCsbujzjYX0pAI_3rge7textureNtB5_7Texture14calculate_size
FNDA:1,_RNvMNtCsbujzjYX0pAI_3rge7textureNtB2_4RGBA5rgb_f
FNDA:0,_RNvXsj_NtCsbujzjYX0pAI_3rge7textureNtB5_7TextureNtNtCs1RoSZkFyxqL_4core3fmt5Debug3fmt
FNDA:0,_RNvMs3_NtCsbujzjYX0pAI_3rge7textureNtB5_7Texture13from_stbi_f32
FNDA:5,_RNvMs3_NtCsbujzjYX0pAI_3rge7textureNtB5_7Texture11stbi_to_rge
FNDA:908,_RNvMs4_NtCsbujzjYX0pAI_3rge7textureNtB5_7Texture8as_slice
FNDA:295,_RNvMNtCsbujzjYX0pAI_3rge7textureNtB2_4RGBA7convert
FNDA:1,_RNvXs_NtCsbujzjYX0pAI_3rge7textureNtB4_4RGBANtNtCs1RoSZkFyxqL_4core3fmt5Debug3fmt
FNDA:8,_RNvMs4_NtCsbujzjYX0pAI_3rge7textureNtB5_7Texture3new
FNDA:58916864,_RNvMNtCsbujzjYX0pAI_3rge7textureNtB2_4RGBA6rgba32
FNDA:2,_RNvMNtCsbujzjYX0pAI_3rge7textureNtB2_4RGBA3rgb
FNDA:73,_RNvMNtCsbujzjYX0pAI_3rge7textureNtB2_4RGBA6rgba_f
FNDA:907,_RNvMs5_NtCsbujzjYX0pAI_3rge7textureNtB5_7Texture14vk_device_size
FNDA:1,_RNvMs6_NtCsbujzjYX0pAI_3rge7textureNtB5_7Texture6resize
FNDA:72,_RNvXs1_NtCsbujzjYX0pAI_3rge7textureNtB5_4RGBAINtNtCs1RoSZkFyxqL_4core7convert4FromNtNtNtNtB7_6vulkan7shaders4glsl4vec4E4from
FNDA:1,_RNvMs6_NtCsbujzjYX0pAI_3rge7textureNtB5_7Texture6chroma
FNDA:2,_RNvMs4_NtCsbujzjYX0pAI_3rge7textureNtB5_7Texture6height
FNDA:1810,_RNvMs4_NtCsbujzjYX0pAI_3rge7textureNtB5_7Texture8is_empty
FNDA:65538,_RNvXs7_NtCsbujzjYX0pAI_3rge7textureNtB5_4RGBANtNtCs1RoSZkFyxqL_4core5clone5Clone5cloneB7_
FNDA:0,_RNvXsg_NtCsbujzjYX0pAI_3rge7textureNtB5_7TextureNtNtCs1RoSZkFyxqL_4core3cmp9PartialEq2eqB7_
FNDA:0,_RNvXse_NtCsbujzjYX0pAI_3rge7textureNtB5_7TextureNtNtCs1RoSZkFyxqL_4core5clone5Clone5cloneB7_
FNDA:0,_RNvXsd_NtCsbujzjYX0pAI_3rge7textureNtB5_4RGBANtNtCs1RoSZkFyxqL_4core7default7Default7defaultB7_
FNDA:0,_RNvXsk_NtCsbujzjYX0pAI_3rge7textureNtB5_7TextureNtNtCs1RoSZkFyxqL_4core7default7Default7defaultB7_
FNDA:0,_RINvMs3_NtCsbujzjYX0pAI_3rge7textureNtB6_7Texture4loadpEB8_
FNDA:7363612,_RNCNvMs3_NtCsbujzjYX0pAI_3rge7textureNtB7_7Texture12from_stbi_u80B9_
FNDA:4,_RNCNvMs6_NtCsbujzjYX0pAI_3rge7textureNtB7_7Texture6chroma0B9_
FNDA:0,_RNvXs2_NtCsbujzjYX0pAI_3rge7textureNtNtNtNtB7_6vulkan7shaders4glsl4vec4INtNtCs1RoSZkFyxqL_4core7convert4FromNtB5_4RGBAE4from
FNDA:0,_RNvMNtCslHwOwCUw2lI_3rge7textureNtB2_4RGBA5rgb_f
FNDA:0,_RNvMs3_NtCslHwOwCUw2lI_3rge7textureNtB5_7Texture11stbi_to_rge
FNDA:0,_RNvMs4_NtCslHwOwCUw2lI_3rge7textureNtB5_7Texture8as_slice
FNDA:0,_RNvMs6_NtCslHwOwCUw2lI_3rge7textureNtB5_7Texture6chroma
FNDA:0,_RNvMs4_NtCslHwOwCUw2lI_3rge7textureNtB5_7Texture8is_empty
FNDA:0,_RNCNvMs6_NtCslHwOwCUw2lI_3rge7textureNtB7_7Texture6chroma0B9_
FNDA:0,_RNvMNtCslHwOwCUw2lI_3rge7textureNtB2_4RGBA6rgba_f
FNDA:0,_RNvXs1_NtCslHwOwCUw2lI_3rge7textureNtB5_4RGBAINtNtCs1RoSZkFyxqL_4core7convert4FromNtNtNtNtB7_6vulkan7shaders4glsl4vec4E4from
FNDA:0,_RNvMs3_NtCslHwOwCUw2lI_3rge7textureNtB5_7Texture12from_stbi_u8
FNDA:0,_RNvMs5_NtCslHwOwCUw2lI_3rge7textureNtB5_7Texture14vk_device_size
FNDA:0,_RNvXsg_NtCslHwOwCUw2lI_3rge7textureNtB5_7TextureNtNtCs1RoSZkFyxqL_4core3cmp9PartialEq2eqB7_
FNDA:0,_RNvMNtCslHwOwCUw2lI_3rge7textureNtB2_4RGBA4rgba
FNDA:0,_RNvMs4_NtCslHwOwCUw2lI_3rge7textureNtB5_7Texture5width
FNDA:0,_RNvMs5_NtCslHwOwCUw2lI_3rge7textureNtB5_7Texture9vk_extent
FNDA:0,_RNvMs6_NtCslHwOwCUw2lI_3rge7textureNtB5_7Texture5clear
FNDA:0,_RINvMs3_NtCslHwOwCUw2lI_3rge7textureNtB6_7Texture4loadpEB8_
FNDA:0,_RNvMs4_NtCslHwOwCUw2lI_3rge7textureNtB5_7Texture12as_mut_slice
FNDA:0,_RNvXsa_NtCslHwOwCUw2lI_3rge7textureNtB5_4RGBANtNtCs1RoSZkFyxqL_4core3cmp9PartialEq2eqB7_
FNDA:0,_RNvXsj_NtCslHwOwCUw2lI_3rge7textureNtB5_7TextureNtNtCs1RoSZkFyxqL_4core3fmt5Debug3fmt
FNDA:0,_RNvMs3_NtCslHwOwCUw2lI_3rge7textureNtB5_7Texture13from_stbi_f32
FNDA:0,_RNvMNtCslHwOwCUw2lI_3rge7textureNtB2_4RGBA7convert
FNDA:0,_RNvXs0_NtCslHwOwCUw2lI_3rge7textureNtB5_4RGBANtNtCs1RoSZkFyxqL_4core3fmt7Display3fmt
FNDA:0,_RNvXse_NtCslHwOwCUw2lI_3rge7textureNtB5_7TextureNtNtCs1RoSZkFyxqL_4core5clone5Clone5cloneB7_
FNDA:0,_RNvMs4_NtCslHwOwCUw2lI_3rge7textureNtB5_7Texture3len
FNDA:0,_RNvXsd_NtCslHwOwCUw2lI_3rge7textureNtB5_4RGBANtNtCs1RoSZkFyxqL_4core7default7Default7defaultB7_
FNDA:0,_RNvMs4_NtCslHwOwCUw2lI_3rge7textureNtB5_7Texture3new
FNDA:0,_RNvMNtCslHwOwCUw2lI_3rge7textureNtB2_4RGBA3rgb
FNDA:0,_RNvMs6_NtCslHwOwCUw2lI_3rge7textureNtB5_7Texture6resize
FNDA:0,_RNvMs4_NtCslHwOwCUw2lI_3rge7textureNtB5_7Texture6height
FNDA:0,_RNvMNtCslHwOwCUw2lI_3rge7textureNtB2_4RGBA6rgba32
FNDA:0,_RNCNvMs3_NtCslHwOwCUw2lI_3rge7textureNtB7_7Texture12from_stbi_u80B9_
FNDA:0,_RNvXs2_NtCslHwOwCUw2lI_3rge7textureNtNtNtNtB7_6vulkan7shaders4glsl4vec4INtNtCs1RoSZkFyxqL_4core7convert4FromNtB5_4RGBAE4from
FNDA:0,_RNvMs3_NtCslHwOwCUw2lI_3rge7textureNtB5_7Texture10load_bytes
FNDA:0,_RNvMs4_NtCslHwOwCUw2lI_3rge7textureNtB5_7Texture14calculate_size
FNDA:0,_RNvXs_NtCslHwOwCUw2lI_3rge7textureNtB4_4RGBANtNtCs1RoSZkFyxqL_4core3fmt5Debug3fmt
FNDA:0,_RNvXsk_NtCslHwOwCUw2lI_3rge7textureNtB5_7TextureNtNtCs1RoSZkFyxqL_4core7default7Default7defaultB7_
FNDA:0,_RNvXs7_NtCslHwOwCUw2lI_3rge7textureNtB5_4RGBANtNtCs1RoSZkFyxqL_4core5clone5Clone5cloneB7_
FNDA:2,_RNvXsg_NtCsbujzjYX0pAI_3rge7textureNtB5_7TextureNtNtCs1RoSZkFyxqL_4core3cmp9PartialEq2eqCs8qqFqPqm3ad_8textures
FNDA:1,_RNvXsd_NtCsbujzjYX0pAI_3rge7textureNtB5_4RGBANtNtCs1RoSZkFyxqL_4core7default7Default7defaultCs8qqFqPqm3ad_8textures
FNDA:12,_RNvXsa_NtCsbujzjYX0pAI_3rge7textureNtB5_4RGBANtNtCs1RoSZkFyxqL_4core3cmp9PartialEq2eqCs8qqFqPqm3ad_8textures
FNDA:1,_RINvMs3_NtCsbujzjYX0pAI_3rge7textureNtB6_7Texture4loadRNtNtCs4shZNHyK4px_3std4path4PathECs8qqFqPqm3ad_8textures
FNF:37
FNH:31
DA:21,65538
DA:37,2
DA:38,2
DA:39,2
DA:40,2
DA:44,7363617
DA:45,7363617
DA:46,7363617
DA:49,58916864
DA:50,58916864
DA:51,58916864
DA:52,58916864
DA:53,58916864
DA:54,58916864
DA:55,58916864
DA:56,58916864
DA:59,1
DA:60,1
DA:61,1
DA:62,1
DA:63,1
DA:64,1
DA:65,1
DA:68,73
DA:69,73
DA:70,73
DA:71,73
DA:72,73
DA:73,73
DA:74,73
DA:77,295
DA:78,295
DA:79,295
DA:80,295
DA:88,1
DA:89,1
DA:90,1
DA:91,1
DA:92,1
DA:93,1
DA:94,1
DA:98,2
DA:99,2
DA:100,2
DA:101,2
DA:102,2
DA:103,2
DA:104,2
DA:110,72
DA:111,72
DA:112,72
DA:116,0
DA:117,0
DA:118,0
DA:119,0
DA:120,0
DA:121,0
DA:122,0
DA:123,0
DA:129,2
DA:152,1
DA:153,1
DA:154,1
DA:156,1
DA:157,0
DA:158,1
DA:159,1
DA:160,1
DA:163,4
DA:164,4
DA:165,4
DA:167,4
DA:168,1
DA:169,3
DA:170,4
DA:171,4
DA:176,5
DA:177,5
DA:178,0
DA:179,5
DA:180,0
DA:182,5
DA:185,5
DA:186,5
DA:189,0
DA:191,5
DA:193,5
DA:194,5
DA:195,5
DA:196,5
DA:197,5
DA:198,5
DA:199,7363612
DA:200,5
DA:201,5
DA:202,5
DA:203,5
DA:204,5
DA:205,5
DA:206,5
DA:207,5
DA:210,0
DA:211,0
DA:230,8
DA:231,8
DA:232,8
DA:233,8
DA:234,8
DA:235,8
DA:236,8
DA:237,8
DA:238,8
DA:239,8
DA:240,8
DA:245,9
DA:246,9
DA:247,9
DA:252,2
DA:253,2
DA:254,2
DA:257,2
DA:258,2
DA:259,2
DA:262,1
DA:263,1
DA:264,1
DA:267,1810
DA:268,1810
DA:269,1810
DA:272,908
DA:273,908
DA:274,908
DA:277,972
DA:278,972
DA:279,972
DA:290,1814
DA:291,1814
DA:292,1814
DA:293,1814
DA:294,1814
DA:295,1814
DA:296,1814
DA:297,1814
DA:298,1814
DA:299,1814
DA:300,1814
DA:303,907
DA:304,907
DA:305,907
DA:306,907
DA:307,907
DA:308,907
DA:309,907
DA:310,907
DA:321,1
DA:322,1
DA:323,1
DA:324,1
DA:325,1
DA:326,1
DA:327,1
DA:330,0
DA:331,0
DA:332,0
DA:333,0
DA:334,0
DA:337,1
DA:338,1
DA:340,4
DA:341,1
DA:342,1
DA:343,1
BRF:0
BRH:0
LF:179
LH:157
end_of_record
SF:C:\Users\luigi\College\Spring 2023\Capstone\EricGrandizio\rge\src\timer.rs
FN:214,_RNvXs_NtCsbujzjYX0pAI_3rge5timerNtB4_10FrameTimerNtNtNtCs1RoSZkFyxqL_4core3ops4drop4Drop4drop
FN:120,_RNvMNtCsbujzjYX0pAI_3rge5timerNtB2_10FrameTimer14elapsed_frames
FN:110,_RNvMNtCsbujzjYX0pAI_3rge5timerNtB2_10FrameTimer7elapsed
FN:136,_RNvMNtCsbujzjYX0pAI_3rge5timerNtB2_10FrameTimer12last_elapsed
FN:103,_RNvMNtCsbujzjYX0pAI_3rge5timerNtB2_10FrameTimer13vsync_bounded
FN:195,_RNvMNtCsbujzjYX0pAI_3rge5timerNtB2_10FrameTimer6update
FN:68,_RNvMNtCsbujzjYX0pAI_3rge5timerNtB2_10FrameTimer9reset_fps
FN:43,_RNvMNtCsbujzjYX0pAI_3rge5timerNtB2_10FrameTimer3new
FN:146,_RNvMNtCsbujzjYX0pAI_3rge5timerNtB2_10FrameTimer11last_frames
FN:166,_RNvMNtCsbujzjYX0pAI_3rge5timerNtB2_10FrameTimer12next_seconds
FN:131,_RNvMNtCsbujzjYX0pAI_3rge5timerNtB2_10FrameTimer9last_tick
FN:83,_RNvMNtCsbujzjYX0pAI_3rge5timerNtB2_10FrameTimer3fps
FN:93,_RNvMNtCsbujzjYX0pAI_3rge5timerNtB2_10FrameTimer5vsync
FN:200,_RNvMNtCsbujzjYX0pAI_3rge5timerNtB2_10FrameTimer4sync
FN:61,_RNvMNtCsbujzjYX0pAI_3rge5timerNtB2_10FrameTimer11reset_epoch
FN:76,_RNvMNtCsbujzjYX0pAI_3rge5timerNtB2_10FrameTimer12toggle_vsync
FN:157,_RNvMNtCsbujzjYX0pAI_3rge5timerNtB2_10FrameTimer11next_frames
FN:175,_RNvMNtCsbujzjYX0pAI_3rge5timerNtB2_10FrameTimer12next_elapsed
FN:115,_RNvMNtCsbujzjYX0pAI_3rge5timerNtB2_10FrameTimer15elapsed_seconds
FN:88,_RNvMNtCsbujzjYX0pAI_3rge5timerNtB2_10FrameTimer5epoch
FN:98,_RNvMNtCsbujzjYX0pAI_3rge5timerNtB2_10FrameTimer9unbounded
FN:222,_RNvNtCsbujzjYX0pAI_3rge5timer13init_os_timer
FN:38,_RNvMNtCsbujzjYX0pAI_3rge5timerNtB2_10FrameTimer9valid_fps
FN:237,_RNvNtCsbujzjYX0pAI_3rge5timer16cleanup_os_timer
FN:141,_RNvMNtCsbujzjYX0pAI_3rge5timerNtB2_10FrameTimer12last_seconds
FN:184,_RNvMNtCsbujzjYX0pAI_3rge5timerNtB2_10FrameTimer9next_tick
FN:200,_RNvMNtCslHwOwCUw2lI_3rge5timerNtB2_10FrameTimer4sync
FN:110,_RNvMNtCslHwOwCUw2lI_3rge5timerNtB2_10FrameTimer7elapsed
FN:43,_RNvMNtCslHwOwCUw2lI_3rge5timerNtB2_10FrameTimer3new
FN:103,_RNvMNtCslHwOwCUw2lI_3rge5timerNtB2_10FrameTimer13vsync_bounded
FN:146,_RNvMNtCslHwOwCUw2lI_3rge5timerNtB2_10FrameTimer11last_frames
FN:98,_RNvMNtCslHwOwCUw2lI_3rge5timerNtB2_10FrameTimer9unbounded
FN:141,_RNvMNtCslHwOwCUw2lI_3rge5timerNtB2_10FrameTimer12last_seconds
FN:184,_RNvMNtCslHwOwCUw2lI_3rge5timerNtB2_10FrameTimer9next_tick
FN:120,_RNvMNtCslHwOwCUw2lI_3rge5timerNtB2_10FrameTimer14elapsed_frames
FN:68,_RNvMNtCslHwOwCUw2lI_3rge5timerNtB2_10FrameTimer9reset_fps
FN:115,_RNvMNtCslHwOwCUw2lI_3rge5timerNtB2_10FrameTimer15elapsed_seconds
FN:83,_RNvMNtCslHwOwCUw2lI_3rge5timerNtB2_10FrameTimer3fps
FN:222,_RNvNtCslHwOwCUw2lI_3rge5timer13init_os_timer
FN:214,_RNvXs_NtCslHwOwCUw2lI_3rge5timerNtB4_10FrameTimerNtNtNtCs1RoSZkFyxqL_4core3ops4drop4Drop4drop
FN:166,_RNvMNtCslHwOwCUw2lI_3rge5timerNtB2_10FrameTimer12next_seconds
FN:61,_RNvMNtCslHwOwCUw2lI_3rge5timerNtB2_10FrameTimer11reset_epoch
FN:237,_RNvNtCslHwOwCUw2lI_3rge5timer16cleanup_os_timer
FN:136,_RNvMNtCslHwOwCUw2lI_3rge5timerNtB2_10FrameTimer12last_elapsed
FN:195,_RNvMNtCslHwOwCUw2lI_3rge5timerNtB2_10FrameTimer6update
FN:93,_RNvMNtCslHwOwCUw2lI_3rge5timerNtB2_10FrameTimer5vsync
FN:88,_RNvMNtCslHwOwCUw2lI_3rge5timerNtB2_10FrameTimer5epoch
FN:157,_RNvMNtCslHwOwCUw2lI_3rge5timerNtB2_10FrameTimer11next_frames
FN:38,_RNvMNtCslHwOwCUw2lI_3rge5timerNtB2_10FrameTimer9valid_fps
FN:131,_RNvMNtCslHwOwCUw2lI_3rge5timerNtB2_10FrameTimer9last_tick
FN:76,_RNvMNtCslHwOwCUw2lI_3rge5timerNtB2_10FrameTimer12toggle_vsync
FN:175,_RNvMNtCslHwOwCUw2lI_3rge5timerNtB2_10FrameTimer12next_elapsed
FNDA:6,_RNvXs_NtCsbujzjYX0pAI_3rge5timerNtB4_10FrameTimerNtNtNtCs1RoSZkFyxqL_4core3ops4drop4Drop4drop
FNDA:11398,_RNvMNtCsbujzjYX0pAI_3rge5timerNtB2_10FrameTimer14elapsed_frames
FNDA:31190,_RNvMNtCsbujzjYX0pAI_3rge5timerNtB2_10FrameTimer7elapsed
FNDA:6132,_RNvMNtCsbujzjYX0pAI_3rge5timerNtB2_10FrameTimer12last_elapsed
FNDA:0,_RNvMNtCsbujzjYX0pAI_3rge5timerNtB2_10FrameTimer13vsync_bounded
FNDA:6834,_RNvMNtCsbujzjYX0pAI_3rge5timerNtB2_10FrameTimer6update
FNDA:6,_RNvMNtCsbujzjYX0pAI_3rge5timerNtB2_10FrameTimer9reset_fps
FNDA:6,_RNvMNtCsbujzjYX0pAI_3rge5timerNtB2_10FrameTimer3new
FNDA:6132,_RNvMNtCsbujzjYX0pAI_3rge5timerNtB2_10FrameTimer11last_frames
FNDA:6132,_RNvMNtCsbujzjYX0pAI_3rge5timerNtB2_10FrameTimer12next_seconds
FNDA:6132,_RNvMNtCsbujzjYX0pAI_3rge5timerNtB2_10FrameTimer9last_tick
FNDA:15773,_RNvMNtCsbujzjYX0pAI_3rge5timerNtB2_10FrameTimer3fps
FNDA:9649,_RNvMNtCsbujzjYX0pAI_3rge5timerNtB2_10FrameTimer5vsync
FNDA:6830,_RNvMNtCsbujzjYX0pAI_3rge5timerNtB2_10FrameTimer4sync
FNDA:6,_RNvMNtCsbujzjYX0pAI_3rge5timerNtB2_10FrameTimer11reset_epoch
FNDA:8,_RNvMNtCsbujzjYX0pAI_3rge5timerNtB2_10FrameTimer12toggle_vsync
FNDA:6132,_RNvMNtCsbujzjYX0pAI_3rge5timerNtB2_10FrameTimer11next_frames
FNDA:5198,_RNvMNtCsbujzjYX0pAI_3rge5timerNtB2_10FrameTimer12next_elapsed
FNDA:31190,_RNvMNtCsbujzjYX0pAI_3rge5timerNtB2_10FrameTimer15elapsed_seconds
FNDA:0,_RNvMNtCsbujzjYX0pAI_3rge5timerNtB2_10FrameTimer5epoch
FNDA:41826,_RNvMNtCsbujzjYX0pAI_3rge5timerNtB2_10FrameTimer9unbounded
FNDA:6,_RNvNtCsbujzjYX0pAI_3rge5timer13init_os_timer
FNDA:12,_RNvMNtCsbujzjYX0pAI_3rge5timerNtB2_10FrameTimer9valid_fps
FNDA:6,_RNvNtCsbujzjYX0pAI_3rge5timer16cleanup_os_timer
FNDA:6132,_RNvMNtCsbujzjYX0pAI_3rge5timerNtB2_10FrameTimer12last_seconds
FNDA:6834,_RNvMNtCsbujzjYX0pAI_3rge5timerNtB2_10FrameTimer9next_tick
FNDA:0,_RNvMNtCslHwOwCUw2lI_3rge5timerNtB2_10FrameTimer4sync
FNDA:0,_RNvMNtCslHwOwCUw2lI_3rge5timerNtB2_10FrameTimer7elapsed
FNDA:0,_RNvMNtCslHwOwCUw2lI_3rge5timerNtB2_10FrameTimer3new
FNDA:0,_RNvMNtCslHwOwCUw2lI_3rge5timerNtB2_10FrameTimer13vsync_bounded
FNDA:0,_RNvMNtCslHwOwCUw2lI_3rge5timerNtB2_10FrameTimer11last_frames
FNDA:0,_RNvMNtCslHwOwCUw2lI_3rge5timerNtB2_10FrameTimer9unbounded
FNDA:0,_RNvMNtCslHwOwCUw2lI_3rge5timerNtB2_10FrameTimer12last_seconds
FNDA:0,_RNvMNtCslHwOwCUw2lI_3rge5timerNtB2_10FrameTimer9next_tick
FNDA:0,_RNvMNtCslHwOwCUw2lI_3rge5timerNtB2_10FrameTimer14elapsed_frames
FNDA:0,_RNvMNtCslHwOwCUw2lI_3rge5timerNtB2_10FrameTimer9reset_fps
FNDA:0,_RNvMNtCslHwOwCUw2lI_3rge5timerNtB2_10FrameTimer15elapsed_seconds
FNDA:0,_RNvMNtCslHwOwCUw2lI_3rge5timerNtB2_10FrameTimer3fps
FNDA:0,_RNvNtCslHwOwCUw2lI_3rge5timer13init_os_timer
FNDA:0,_RNvXs_NtCslHwOwCUw2lI_3rge5timerNtB4_10FrameTimerNtNtNtCs1RoSZkFyxqL_4core3ops4drop4Drop4drop
FNDA:0,_RNvMNtCslHwOwCUw2lI_3rge5timerNtB2_10FrameTimer12next_seconds
FNDA:0,_RNvMNtCslHwOwCUw2lI_3rge5timerNtB2_10FrameTimer11reset_epoch
FNDA:0,_RNvNtCslHwOwCUw2lI_3rge5timer16cleanup_os_timer
FNDA:0,_RNvMNtCslHwOwCUw2lI_3rge5timerNtB2_10FrameTimer12last_elapsed
FNDA:0,_RNvMNtCslHwOwCUw2lI_3rge5timerNtB2_10FrameTimer6update
FNDA:0,_RNvMNtCslHwOwCUw2lI_3rge5timerNtB2_10FrameTimer5vsync
FNDA:0,_RNvMNtCslHwOwCUw2lI_3rge5timerNtB2_10FrameTimer5epoch
FNDA:0,_RNvMNtCslHwOwCUw2lI_3rge5timerNtB2_10FrameTimer11next_frames
FNDA:0,_RNvMNtCslHwOwCUw2lI_3rge5timerNtB2_10FrameTimer9valid_fps
FNDA:0,_RNvMNtCslHwOwCUw2lI_3rge5timerNtB2_10FrameTimer9last_tick
FNDA:0,_RNvMNtCslHwOwCUw2lI_3rge5timerNtB2_10FrameTimer12toggle_vsync
FNDA:0,_RNvMNtCslHwOwCUw2lI_3rge5timerNtB2_10FrameTimer12next_elapsed
FNF:26
FNH:24
DA:38,12
DA:39,12
DA:40,12
DA:43,6
DA:44,6
DA:46,6
DA:47,6
DA:48,6
DA:49,6
DA:50,6
DA:51,6
DA:52,6
DA:53,6
DA:54,6
DA:55,6
DA:56,6
DA:57,6
DA:61,6
DA:62,6
DA:63,6
DA:64,6
DA:68,6
DA:69,6
DA:71,6
DA:72,6
DA:76,8
DA:77,8
DA:78,8
DA:83,15773
DA:84,15773
DA:85,15773
DA:88,0
DA:89,0
DA:90,0
DA:93,9649
DA:94,9649
DA:95,9649
DA:98,41826
DA:99,41826
DA:100,41826
DA:103,0
DA:104,0
DA:105,0
DA:110,31190
DA:111,31190
DA:112,31190
DA:115,31190
DA:116,31190
DA:117,31190
DA:120,11398
DA:121,11398
DA:122,0
DA:124,11398
DA:126,11398
DA:131,6132
DA:132,6132
DA:133,6132
DA:136,6132
DA:137,6132
DA:138,6132
DA:141,6132
DA:142,6132
DA:143,6132
DA:146,6132
DA:147,6132
DA:148,0
DA:150,6132
DA:152,6132
DA:157,6132
DA:158,6132
DA:159,0
DA:161,6132
DA:163,6132
DA:166,6132
DA:167,6132
DA:168,0
DA:170,6132
DA:172,6132
DA:175,5198
DA:176,5198
DA:177,0
DA:179,5198
DA:181,5198
DA:184,6834
DA:185,6834
DA:186,1636
DA:188,5198
DA:190,6834
DA:195,6834
DA:196,6834
DA:197,6834
DA:200,6830
DA:201,6830
DA:203,6830
DA:204,4897
DA:205,4897
DA:206,1933
DA:207,1933
DA:208,6830
DA:214,6
DA:215,6
DA:216,6
DA:222,6
DA:223,6
DA:224,6
DA:225,6
DA:226,6
DA:227,6
DA:228,6
DA:229,6
DA:231,6
DA:232,6
DA:234,6
DA:237,6
DA:238,6
DA:239,6
DA:240,6
DA:241,6
DA:242,6
DA:243,6
DA:244,6
DA:246,6
DA:247,6
DA:249,6
BRF:0
BRH:0
LF:124
LH:113
end_of_record
SF:C:\Users\luigi\College\Spring 2023\Capstone\EricGrandizio\rge\src\vulkan\context\debug_messenger.rs
FN:77,_RNvXs0_NtNtNtCsbujzjYX0pAI_3rge6vulkan7context15debug_messengerNtB5_14DebugMessengerNtNtNtCs1RoSZkFyxqL_4core3ops4drop4Drop4drop
FN:91,_RNvMs1_NtNtNtCsbujzjYX0pAI_3rge6vulkan7context15debug_messengerNtB5_14DebugMessenger14debug_callback
FN:31,_RNvMNtNtNtCsbujzjYX0pAI_3rge6vulkan7context15debug_messengerNtB2_14DebugMessenger3ext
FN:41,_RNvMs_NtNtNtCsbujzjYX0pAI_3rge6vulkan7context15debug_messengerNtB4_14DebugMessenger3new
FN:98,_RNCNvMs1_NtNtNtCsbujzjYX0pAI_3rge6vulkan7context15debug_messengerNtB7_14DebugMessenger14debug_callback0Bd_
FN:98,_RNCNvMs1_NtNtNtCslHwOwCUw2lI_3rge6vulkan7context15debug_messengerNtB7_14DebugMessenger14debug_callback0Bd_
FN:31,_RNvMNtNtNtCslHwOwCUw2lI_3rge6vulkan7context15debug_messengerNtB2_14DebugMessenger3ext
FN:41,_RNvMs_NtNtNtCslHwOwCUw2lI_3rge6vulkan7context15debug_messengerNtB4_14DebugMessenger3new
FN:77,_RNvXs0_NtNtNtCslHwOwCUw2lI_3rge6vulkan7context15debug_messengerNtB5_14DebugMessengerNtNtNtCs1RoSZkFyxqL_4core3ops4drop4Drop4drop
FN:91,_RNvMs1_NtNtNtCslHwOwCUw2lI_3rge6vulkan7context15debug_messengerNtB5_14DebugMessenger14debug_callback
FNDA:6,_RNvXs0_NtNtNtCsbujzjYX0pAI_3rge6vulkan7context15debug_messengerNtB5_14DebugMessengerNtNtNtCs1RoSZkFyxqL_4core3ops4drop4Drop4drop
FNDA:60,_RNvMs1_NtNtNtCsbujzjYX0pAI_3rge6vulkan7context15debug_messengerNtB5_14DebugMessenger14debug_callback
FNDA:6,_RNvMNtNtNtCsbujzjYX0pAI_3rge6vulkan7context15debug_messengerNtB2_14DebugMessenger3ext
FNDA:6,_RNvMs_NtNtNtCsbujzjYX0pAI_3rge6vulkan7context15debug_messengerNtB4_14DebugMessenger3new
FNDA:60,_RNCNvMs1_NtNtNtCsbujzjYX0pAI_3rge6vulkan7context15debug_messengerNtB7_14DebugMessenger14debug_callback0Bd_
FNDA:0,_RNCNvMs1_NtNtNtCslHwOwCUw2lI_3rge6vulkan7context15debug_messengerNtB7_14DebugMessenger14debug_callback0Bd_
FNDA:0,_RNvMNtNtNtCslHwOwCUw2lI_3rge6vulkan7context15debug_messengerNtB2_14DebugMessenger3ext
FNDA:0,_RNvMs_NtNtNtCslHwOwCUw2lI_3rge6vulkan7context15debug_messengerNtB4_14DebugMessenger3new
FNDA:0,_RNvXs0_NtNtNtCslHwOwCUw2lI_3rge6vulkan7context15debug_messengerNtB5_14DebugMessengerNtNtNtCs1RoSZkFyxqL_4core3ops4drop4Drop4drop
FNDA:0,_RNvMs1_NtNtNtCslHwOwCUw2lI_3rge6vulkan7context15debug_messengerNtB5_14DebugMessenger14debug_callback
FNF:5
FNH:5
DA:31,6
DA:32,6
DA:33,6
DA:41,6
DA:42,6
DA:43,6
DA:44,6
DA:45,6
DA:46,6
DA:47,6
DA:48,6
DA:49,6
DA:50,6
DA:51,6
DA:52,6
DA:53,6
DA:54,6
DA:55,6
DA:56,6
DA:57,6
DA:58,6
DA:59,6
DA:60,6
DA:61,6
DA:62,6
DA:63,6
DA:64,6
DA:65,6
DA:66,6
DA:67,6
DA:68,6
DA:69,6
DA:70,6
DA:71,6
DA:72,6
DA:73,6
DA:77,6
DA:78,6
DA:79,6
DA:80,6
DA:81,6
DA:82,6
DA:91,60
DA:92,60
DA:93,60
DA:94,60
DA:95,60
DA:96,60
DA:97,60
DA:98,60
DA:99,60
DA:100,0
DA:101,0
DA:102,24
DA:103,36
DA:104,0
DA:106,60
DA:107,60
DA:108,0
DA:109,0
DA:110,0
DA:113,60
DA:114,60
DA:115,60
DA:116,60
DA:118,0
DA:119,0
DA:120,0
DA:123,60
DA:124,60
DA:125,60
DA:126,60
DA:127,60
BRF:0
BRH:0
LF:75
LH:66
end_of_record
SF:C:\Users\luigi\College\Spring 2023\Capstone\EricGrandizio\rge\src\vulkan\context\instance.rs
FN:69,_RNvXs_NtNtNtCsbujzjYX0pAI_3rge6vulkan7context8instanceNtB4_8InstanceNtNtNtCs1RoSZkFyxqL_4core3ops4drop4Drop4drop
FN:32,_RNvMNtNtNtCsbujzjYX0pAI_3rge6vulkan7context8instanceNtB2_8Instance3new
FN:69,_RNvXs_NtNtNtCslHwOwCUw2lI_3rge6vulkan7context8instanceNtB4_8InstanceNtNtNtCs1RoSZkFyxqL_4core3ops4drop4Drop4drop
FN:32,_RNvMNtNtNtCslHwOwCUw2lI_3rge6vulkan7context8instanceNtB2_8Instance3new
FNDA:6,_RNvXs_NtNtNtCsbujzjYX0pAI_3rge6vulkan7context8instanceNtB4_8InstanceNtNtNtCs1RoSZkFyxqL_4core3ops4drop4Drop4drop
FNDA:6,_RNvMNtNtNtCsbujzjYX0pAI_3rge6vulkan7context8instanceNtB2_8Instance3new
FNDA:0,_RNvXs_NtNtNtCslHwOwCUw2lI_3rge6vulkan7context8instanceNtB4_8InstanceNtNtNtCs1RoSZkFyxqL_4core3ops4drop4Drop4drop
FNDA:0,_RNvMNtNtNtCslHwOwCUw2lI_3rge6vulkan7context8instanceNtB2_8Instance3new
FNF:2
FNH:2
DA:32,6
DA:33,6
DA:34,6
DA:35,6
DA:36,6
DA:37,6
DA:39,6
DA:40,6
DA:41,6
DA:42,6
DA:44,6
DA:45,6
DA:46,6
DA:47,6
DA:48,6
DA:49,6
DA:50,6
DA:51,6
DA:52,6
DA:53,6
DA:54,6
DA:55,6
DA:56,6
DA:57,6
DA:58,6
DA:59,6
DA:60,6
DA:61,6
DA:62,6
DA:63,6
DA:64,6
DA:65,6
DA:69,6
DA:70,6
DA:71,6
BRF:0
BRH:0
LF:35
LH:35
end_of_record
SF:C:\Users\luigi\College\Spring 2023\Capstone\EricGrandizio\rge\src\vulkan\context\instance_exts.rs
FN:47,_RNvMNtNtNtCsbujzjYX0pAI_3rge6vulkan7context13instance_extsNtB2_12InstanceExts3new
FN:47,_RNvMNtNtNtCslHwOwCUw2lI_3rge6vulkan7context13instance_extsNtB2_12InstanceExts3new
FNDA:6,_RNvMNtNtNtCsbujzjYX0pAI_3rge6vulkan7context13instance_extsNtB2_12InstanceExts3new
FNDA:0,_RNvMNtNtNtCslHwOwCUw2lI_3rge6vulkan7context13instance_extsNtB2_12InstanceExts3new
FNF:1
FNH:1
DA:47,6
DA:48,6
DA:49,6
DA:50,6
DA:51,6
DA:52,6
DA:53,6
DA:54,6
DA:55,6
DA:56,6
DA:57,6
DA:58,6
DA:59,6
DA:60,6
BRF:0
BRH:0
LF:14
LH:14
end_of_record
SF:C:\Users\luigi\College\Spring 2023\Capstone\EricGrandizio\rge\src\vulkan\context\mod.rs
FN:56,_RNvMNtNtCsbujzjYX0pAI_3rge6vulkan7contextNtB2_13VulkanContext8instance
FN:52,_RNvMNtNtCsbujzjYX0pAI_3rge6vulkan7contextNtB2_13VulkanContext5entry
FN:60,_RNvMNtNtCsbujzjYX0pAI_3rge6vulkan7contextNtB2_13VulkanContext4exts
FN:69,_RNvMs_NtNtCsbujzjYX0pAI_3rge6vulkan7contextNtB4_13VulkanContext3new
FN:52,_RNvMNtNtCslHwOwCUw2lI_3rge6vulkan7contextNtB2_13VulkanContext5entry
FN:56,_RNvMNtNtCslHwOwCUw2lI_3rge6vulkan7contextNtB2_13VulkanContext8instance
FN:69,_RNvMs_NtNtCslHwOwCUw2lI_3rge6vulkan7contextNtB4_13VulkanContext3new
FN:60,_RNvMNtNtCslHwOwCUw2lI_3rge6vulkan7contextNtB2_13VulkanContext4exts
FNDA:6,_RNvMNtNtCsbujzjYX0pAI_3rge6vulkan7contextNtB2_13VulkanContext8instance
FNDA:0,_RNvMNtNtCsbujzjYX0pAI_3rge6vulkan7contextNtB2_13VulkanContext5entry
FNDA:6,_RNvMNtNtCsbujzjYX0pAI_3rge6vulkan7contextNtB2_13VulkanContext4exts
FNDA:6,_RNvMs_NtNtCsbujzjYX0pAI_3rge6vulkan7contextNtB4_13VulkanContext3new
FNDA:0,_RNvMNtNtCslHwOwCUw2lI_3rge6vulkan7contextNtB2_13VulkanContext5entry
FNDA:0,_RNvMNtNtCslHwOwCUw2lI_3rge6vulkan7contextNtB2_13VulkanContext8instance
FNDA:0,_RNvMs_NtNtCslHwOwCUw2lI_3rge6vulkan7contextNtB4_13VulkanContext3new
FNDA:0,_RNvMNtNtCslHwOwCUw2lI_3rge6vulkan7contextNtB2_13VulkanContext4exts
FNF:4
FNH:3
DA:52,0
DA:53,0
DA:54,0
DA:56,6
DA:57,6
DA:58,6
DA:60,6
DA:61,6
DA:62,6
DA:69,6
DA:70,6
DA:71,6
DA:72,6
DA:73,6
DA:74,6
DA:75,6
DA:76,6
DA:77,6
DA:78,6
DA:79,6
DA:80,6
DA:81,6
DA:82,6
DA:83,6
DA:85,6
DA:86,6
DA:87,6
DA:88,6
DA:89,6
DA:90,6
DA:91,6
DA:92,6
DA:93,6
DA:94,6
DA:95,6
BRF:0
BRH:0
LF:35
LH:32
end_of_record
SF:C:\Users\luigi\College\Spring 2023\Capstone\EricGrandizio\rge\src\vulkan\context\physical_device.rs
FN:50,_RNCNvMNtNtNtCsbujzjYX0pAI_3rge6vulkan7context15physical_deviceNtB4_14PhysicalDevice7collect0Ba_
FN:88,_RNvMs_NtNtNtCsbujzjYX0pAI_3rge6vulkan7context15physical_deviceNtB4_14PhysicalDevice12memory_heaps
FN:81,_RNvMs_NtNtNtCsbujzjYX0pAI_3rge6vulkan7context15physical_deviceNtB4_14PhysicalDevice12memory_types
FN:55,_RNvMNtNtNtCsbujzjYX0pAI_3rge6vulkan7context15physical_deviceNtB2_14PhysicalDevice3new
FN:44,_RNvMNtNtNtCsbujzjYX0pAI_3rge6vulkan7context15physical_deviceNtB2_14PhysicalDevice7collect
FN:88,_RNvMs_NtNtNtCslHwOwCUw2lI_3rge6vulkan7context15physical_deviceNtB4_14PhysicalDevice12memory_heaps
FN:55,_RNvMNtNtNtCslHwOwCUw2lI_3rge6vulkan7context15physical_deviceNtB2_14PhysicalDevice3new
FN:81,_RNvMs_NtNtNtCslHwOwCUw2lI_3rge6vulkan7context15physical_deviceNtB4_14PhysicalDevice12memory_types
FN:50,_RNCNvMNtNtNtCslHwOwCUw2lI_3rge6vulkan7context15physical_deviceNtB4_14PhysicalDevice7collect0Ba_
FN:44,_RNvMNtNtNtCslHwOwCUw2lI_3rge6vulkan7context15physical_deviceNtB2_14PhysicalDevice7collect
FNDA:12,_RNCNvMNtNtNtCsbujzjYX0pAI_3rge6vulkan7context15physical_deviceNtB4_14PhysicalDevice7collect0Ba_
FNDA:0,_RNvMs_NtNtNtCsbujzjYX0pAI_3rge6vulkan7context15physical_deviceNtB4_14PhysicalDevice12memory_heaps
FNDA:913,_RNvMs_NtNtNtCsbujzjYX0pAI_3rge6vulkan7context15physical_deviceNtB4_14PhysicalDevice12memory_types
FNDA:12,_RNvMNtNtNtCsbujzjYX0pAI_3rge6vulkan7context15physical_deviceNtB2_14PhysicalDevice3new
FNDA:6,_RNvMNtNtNtCsbujzjYX0pAI_3rge6vulkan7context15physical_deviceNtB2_14PhysicalDevice7collect
FNDA:0,_RNvMs_NtNtNtCslHwOwCUw2lI_3rge6vulkan7context15physical_deviceNtB4_14PhysicalDevice12memory_heaps
FNDA:0,_RNvMNtNtNtCslHwOwCUw2lI_3rge6vulkan7context15physical_deviceNtB2_14PhysicalDevice3new
FNDA:0,_RNvMs_NtNtNtCslHwOwCUw2lI_3rge6vulkan7context15physical_deviceNtB4_14PhysicalDevice12memory_types
FNDA:0,_RNCNvMNtNtNtCslHwOwCUw2lI_3rge6vulkan7context15physical_deviceNtB4_14PhysicalDevice7collect0Ba_
FNDA:0,_RNvMNtNtNtCslHwOwCUw2lI_3rge6vulkan7context15physical_deviceNtB2_14PhysicalDevice7collect
FNF:5
FNH:4
DA:44,6
DA:45,6
DA:46,6
DA:47,6
DA:48,6
DA:49,6
DA:50,12
DA:51,6
DA:52,6
DA:55,12
DA:56,12
DA:57,12
DA:58,12
DA:59,12
DA:60,12
DA:61,12
DA:62,12
DA:63,12
DA:64,12
DA:65,12
DA:66,12
DA:67,12
DA:68,12
DA:69,12
DA:70,12
DA:71,12
DA:72,12
DA:73,12
DA:74,12
DA:81,913
DA:82,913
DA:83,913
DA:84,913
DA:88,0
DA:89,0
DA:90,0
DA:91,0
BRF:0
BRH:0
LF:38
LH:34
end_of_record
SF:C:\Users\luigi\College\Spring 2023\Capstone\EricGrandizio\rge\src\vulkan\mod.rs
FN:57,_RNvMNtCsbujzjYX0pAI_3rge6vulkanNtB2_6Vulkan10renderable
FN:58,_RNCNvMNtCsbujzjYX0pAI_3rge6vulkanNtB4_6Vulkan10renderable0B6_
FN:94,_RNvMs_NtCsbujzjYX0pAI_3rge6vulkanNtB4_6Vulkan15destroy_surface
FN:70,_RNvMs_NtCsbujzjYX0pAI_3rge6vulkanNtB4_6Vulkan3new
FN:61,_RNvMNtCsbujzjYX0pAI_3rge6vulkanNtB2_6Vulkan14renderable_mut
FN:83,_RNvMs_NtCsbujzjYX0pAI_3rge6vulkanNtB4_6Vulkan14create_surface
FN:109,_RNvMs_NtCsbujzjYX0pAI_3rge6vulkanNtB4_6Vulkan12update_atlas
FN:53,_RNvMNtCsbujzjYX0pAI_3rge6vulkanNtB2_6Vulkan7context
FN:62,_RNCNvMNtCsbujzjYX0pAI_3rge6vulkanNtB4_6Vulkan14renderable_mut0B6_
FN:61,_RNvMNtCslHwOwCUw2lI_3rge6vulkanNtB2_6Vulkan14renderable_mut
FN:58,_RNCNvMNtCslHwOwCUw2lI_3rge6vulkanNtB4_6Vulkan10renderable0B6_
FN:70,_RNvMs_NtCslHwOwCUw2lI_3rge6vulkanNtB4_6Vulkan3new
FN:53,_RNvMNtCslHwOwCUw2lI_3rge6vulkanNtB2_6Vulkan7context
FN:94,_RNvMs_NtCslHwOwCUw2lI_3rge6vulkanNtB4_6Vulkan15destroy_surface
FN:83,_RNvMs_NtCslHwOwCUw2lI_3rge6vulkanNtB4_6Vulkan14create_surface
FN:62,_RNCNvMNtCslHwOwCUw2lI_3rge6vulkanNtB4_6Vulkan14renderable_mut0B6_
FN:57,_RNvMNtCslHwOwCUw2lI_3rge6vulkanNtB2_6Vulkan10renderable
FN:109,_RNvMs_NtCslHwOwCUw2lI_3rge6vulkanNtB4_6Vulkan12update_atlas
FNDA:0,_RNvMNtCsbujzjYX0pAI_3rge6vulkanNtB2_6Vulkan10renderable
FNDA:0,_RNCNvMNtCsbujzjYX0pAI_3rge6vulkanNtB4_6Vulkan10renderable0B6_
FNDA:6,_RNvMs_NtCsbujzjYX0pAI_3rge6vulkanNtB4_6Vulkan15destroy_surface
FNDA:6,_RNvMs_NtCsbujzjYX0pAI_3rge6vulkanNtB4_6Vulkan3new
FNDA:7837,_RNvMNtCsbujzjYX0pAI_3rge6vulkanNtB2_6Vulkan14renderable_mut
FNDA:6,_RNvMs_NtCsbujzjYX0pAI_3rge6vulkanNtB4_6Vulkan14create_surface
FNDA:901,_RNvMs_NtCsbujzjYX0pAI_3rge6vulkanNtB4_6Vulkan12update_atlas
FNDA:6,_RNvMNtCsbujzjYX0pAI_3rge6vulkanNtB2_6Vulkan7context
FNDA:7837,_RNCNvMNtCsbujzjYX0pAI_3rge6vulkanNtB4_6Vulkan14renderable_mut0B6_
FNDA:0,_RNvMNtCslHwOwCUw2lI_3rge6vulkanNtB2_6Vulkan14renderable_mut
FNDA:0,_RNCNvMNtCslHwOwCUw2lI_3rge6vulkanNtB4_6Vulkan10renderable0B6_
FNDA:0,_RNvMs_NtCslHwOwCUw2lI_3rge6vulkanNtB4_6Vulkan3new
FNDA:0,_RNvMNtCslHwOwCUw2lI_3rge6vulkanNtB2_6Vulkan7context
FNDA:0,_RNvMs_NtCslHwOwCUw2lI_3rge6vulkanNtB4_6Vulkan15destroy_surface
FNDA:0,_RNvMs_NtCslHwOwCUw2lI_3rge6vulkanNtB4_6Vulkan14create_surface
FNDA:0,_RNCNvMNtCslHwOwCUw2lI_3rge6vulkanNtB4_6Vulkan14renderable_mut0B6_
FNDA:0,_RNvMNtCslHwOwCUw2lI_3rge6vulkanNtB2_6Vulkan10renderable
FNDA:0,_RNvMs_NtCslHwOwCUw2lI_3rge6vulkanNtB4_6Vulkan12update_atlas
FNF:9
FNH:7
DA:53,6
DA:54,6
DA:55,6
DA:57,0
DA:58,0
DA:59,0
DA:61,7837
DA:62,7837
DA:63,7837
DA:70,6
DA:71,6
DA:72,6
DA:73,6
DA:74,6
DA:75,6
DA:76,6
DA:77,6
DA:78,6
DA:83,6
DA:84,6
DA:86,6
DA:87,6
DA:88,6
DA:89,6
DA:94,6
DA:95,6
DA:97,6
DA:98,6
DA:99,6
DA:100,6
DA:101,6
DA:103,6
DA:104,6
DA:109,901
DA:110,901
DA:114,901
DA:115,901
DA:116,901
DA:117,901
DA:118,901
DA:119,901
DA:120,901
DA:121,901
DA:122,901
DA:123,901
DA:124,901
BRF:0
BRH:0
LF:48
LH:44
end_of_record
SF:C:\Users\luigi\College\Spring 2023\Capstone\EricGrandizio\rge\src\vulkan\render.rs
FN:94,_RNvMNtNtCsbujzjYX0pAI_3rge6vulkan6renderNtNtB4_10renderable16VulkanRenderable11update_size
FN:116,_RNvMNtNtCsbujzjYX0pAI_3rge6vulkan6renderNtNtB4_10renderable16VulkanRenderable16update_swapchain
FN:822,_RNvMs_NtNtCsbujzjYX0pAI_3rge6vulkan6renderNtNtB6_10renderable16VulkanRenderable15transfer_staged
FN:71,_RNvMNtNtCsbujzjYX0pAI_3rge6vulkan6renderNtNtB4_10renderable16VulkanRenderable13number_frames
FN:670,_RNvMs_NtNtCsbujzjYX0pAI_3rge6vulkan6renderNtNtB6_10renderable16VulkanRenderable13texture_atlas
FN:747,_RNvMs_NtNtCsbujzjYX0pAI_3rge6vulkan6renderNtNtB6_10renderable16VulkanRenderable16transition_atlas
FN:132,_RNvMNtNtCsbujzjYX0pAI_3rge6vulkan6renderNtNtB4_10renderable16VulkanRenderable12render_frame
FN:108,_RNvMNtNtCsbujzjYX0pAI_3rge6vulkan6renderNtNtB4_10renderable16VulkanRenderable19update_surface_info
FN:806,_RNvMs_NtNtCsbujzjYX0pAI_3rge6vulkan6renderNtNtB6_10renderable16VulkanRenderable13stage_texture
FN:237,_RNvMNtNtCsbujzjYX0pAI_3rge6vulkan6renderNtNtB4_10renderable16VulkanRenderable15record_commands
FN:586,_RNvMNtNtCsbujzjYX0pAI_3rge6vulkan6renderNtNtB4_10renderable16VulkanRenderable15submit_commands
FN:81,_RNvMNtNtCsbujzjYX0pAI_3rge6vulkan6renderNtNtB4_10renderable16VulkanRenderable14prev_frame_idx
FN:175,_RNvMNtNtCsbujzjYX0pAI_3rge6vulkan6renderNtNtB4_10renderable16VulkanRenderable13acquire_image
FN:24,_RNvMNtNtCsbujzjYX0pAI_3rge6vulkan6renderNtNtB4_10renderable16VulkanRenderable6render
FN:76,_RNvMNtNtCsbujzjYX0pAI_3rge6vulkan6renderNtNtB4_10renderable16VulkanRenderable14next_frame_idx
FN:858,_RNvMs_NtNtCsbujzjYX0pAI_3rge6vulkan6renderNtNtB6_10renderable16VulkanRenderable18update_descriptors
FN:629,_RNvMNtNtCsbujzjYX0pAI_3rge6vulkan6renderNtNtB4_10renderable16VulkanRenderable13present_image
FN:375,_RNCNvMNtNtCsbujzjYX0pAI_3rge6vulkan6renderNtNtB6_10renderable16VulkanRenderable15record_commands0B8_
FN:387,_RNCNvMNtNtCsbujzjYX0pAI_3rge6vulkan6renderNtNtB6_10renderable16VulkanRenderable15record_commandss0_0B8_
FN:721,_RNCINvMs_NtNtCsbujzjYX0pAI_3rge6vulkan6renderNtNtB9_10renderable16VulkanRenderable15single_commandsNCNvB4_16transition_atlas0Es_0Bb_
FN:225,_RNCINvMNtNtCsbujzjYX0pAI_3rge6vulkan6renderNtNtB7_10renderable16VulkanRenderable9map_bytesKjc_E0B9_
FN:465,_RNCNvMNtNtCsbujzjYX0pAI_3rge6vulkan6renderNtNtB6_10renderable16VulkanRenderable15record_commandss3_0B8_
FN:706,_RNCINvMs_NtNtCsbujzjYX0pAI_3rge6vulkan6renderNtNtB9_10renderable16VulkanRenderable15single_commandsNCNvB4_15transfer_staged0E0Bb_
FN:706,_RNCINvMs_NtNtCsbujzjYX0pAI_3rge6vulkan6renderNtNtB9_10renderable16VulkanRenderable15single_commandsNCNvB4_16transition_atlas0E0Bb_
FN:842,_RNCNvMs_NtNtCsbujzjYX0pAI_3rge6vulkan6renderNtNtB8_10renderable16VulkanRenderable15transfer_staged0Ba_
FN:721,_RNCINvMs_NtNtCsbujzjYX0pAI_3rge6vulkan6renderNtNtB9_10renderable16VulkanRenderable15single_commandsNCNvB4_15transfer_staged0Es_0Bb_
FN:790,_RNCNvMs_NtNtCsbujzjYX0pAI_3rge6vulkan6renderNtNtB8_10renderable16VulkanRenderable16transition_atlas0Ba_
FN:391,_RNCNvMNtNtCsbujzjYX0pAI_3rge6vulkan6renderNtNtB6_10renderable16VulkanRenderable15record_commandss1_0B8_
FN:377,_RNCNvMNtNtCsbujzjYX0pAI_3rge6vulkan6renderNtNtB6_10renderable16VulkanRenderable15record_commandss_0B8_
FN:395,_RNCNvMNtNtCsbujzjYX0pAI_3rge6vulkan6renderNtNtB6_10renderable16VulkanRenderable15record_commandss2_0B8_
FN:694,_RINvMs_NtNtCsbujzjYX0pAI_3rge6vulkan6renderNtNtB7_10renderable16VulkanRenderable15single_commandsNCNvB2_15transfer_staged0EB9_
FN:694,_RINvMs_NtNtCsbujzjYX0pAI_3rge6vulkan6renderNtNtB7_10renderable16VulkanRenderable15single_commandsNCNvB2_16transition_atlas0EB9_
FN:216,_RINvMNtNtCsbujzjYX0pAI_3rge6vulkan6renderNtNtB5_10renderable16VulkanRenderable9map_bytesKjc_EB7_
FN:76,_RNvMNtNtCslHwOwCUw2lI_3rge6vulkan6renderNtNtB4_10renderable16VulkanRenderable14next_frame_idx
FN:375,_RNCNvMNtNtCslHwOwCUw2lI_3rge6vulkan6renderNtNtB6_10renderable16VulkanRenderable15record_commands0B8_
FN:387,_RNCNvMNtNtCslHwOwCUw2lI_3rge6vulkan6renderNtNtB6_10renderable16VulkanRenderable15record_commandss0_0B8_
FN:116,_RNvMNtNtCslHwOwCUw2lI_3rge6vulkan6renderNtNtB4_10renderable16VulkanRenderable16update_swapchain
FN:465,_RNCNvMNtNtCslHwOwCUw2lI_3rge6vulkan6renderNtNtB6_10renderable16VulkanRenderable15record_commandss3_0B8_
FN:721,_RNCINvMs_NtNtCslHwOwCUw2lI_3rge6vulkan6renderNtNtB9_10renderable16VulkanRenderable15single_commandspEs_0Bb_
FN:790,_RNCNvMs_NtNtCslHwOwCUw2lI_3rge6vulkan6renderNtNtB8_10renderable16VulkanRenderable16transition_atlas0Ba_
FN:391,_RNCNvMNtNtCslHwOwCUw2lI_3rge6vulkan6renderNtNtB6_10renderable16VulkanRenderable15record_commandss1_0B8_
FN:822,_RNvMs_NtNtCslHwOwCUw2lI_3rge6vulkan6renderNtNtB6_10renderable16VulkanRenderable15transfer_staged
FN:216,_RINvMNtNtCslHwOwCUw2lI_3rge6vulkan6renderNtNtB5_10renderable16VulkanRenderable9map_bytesKpEB7_
FN:225,_RNCINvMNtNtCslHwOwCUw2lI_3rge6vulkan6renderNtNtB7_10renderable16VulkanRenderable9map_bytesKpE0B9_
FN:108,_RNvMNtNtCslHwOwCUw2lI_3rge6vulkan6renderNtNtB4_10renderable16VulkanRenderable19update_surface_info
FN:747,_RNvMs_NtNtCslHwOwCUw2lI_3rge6vulkan6renderNtNtB6_10renderable16VulkanRenderable16transition_atlas
FN:377,_RNCNvMNtNtCslHwOwCUw2lI_3rge6vulkan6renderNtNtB6_10renderable16VulkanRenderable15record_commandss_0B8_
FN:132,_RNvMNtNtCslHwOwCUw2lI_3rge6vulkan6renderNtNtB4_10renderable16VulkanRenderable12render_frame
FN:629,_RNvMNtNtCslHwOwCUw2lI_3rge6vulkan6renderNtNtB4_10renderable16VulkanRenderable13present_image
FN:586,_RNvMNtNtCslHwOwCUw2lI_3rge6vulkan6renderNtNtB4_10renderable16VulkanRenderable15submit_commands
FN:694,_RINvMs_NtNtCslHwOwCUw2lI_3rge6vulkan6renderNtNtB7_10renderable16VulkanRenderable15single_commandspEB9_
FN:806,_RNvMs_NtNtCslHwOwCUw2lI_3rge6vulkan6renderNtNtB6_10renderable16VulkanRenderable13stage_texture
FN:71,_RNvMNtNtCslHwOwCUw2lI_3rge6vulkan6renderNtNtB4_10renderable16VulkanRenderable13number_frames
FN:706,_RNCINvMs_NtNtCslHwOwCUw2lI_3rge6vulkan6renderNtNtB9_10renderable16VulkanRenderable15single_commandspE0Bb_
FN:24,_RNvMNtNtCslHwOwCUw2lI_3rge6vulkan6renderNtNtB4_10renderable16VulkanRenderable6render
FN:94,_RNvMNtNtCslHwOwCUw2lI_3rge6vulkan6renderNtNtB4_10renderable16VulkanRenderable11update_size
FN:858,_RNvMs_NtNtCslHwOwCUw2lI_3rge6vulkan6renderNtNtB6_10renderable16VulkanRenderable18update_descriptors
FN:81,_RNvMNtNtCslHwOwCUw2lI_3rge6vulkan6renderNtNtB4_10renderable16VulkanRenderable14prev_frame_idx
FN:175,_RNvMNtNtCslHwOwCUw2lI_3rge6vulkan6renderNtNtB4_10renderable16VulkanRenderable13acquire_image
FN:237,_RNvMNtNtCslHwOwCUw2lI_3rge6vulkan6renderNtNtB4_10renderable16VulkanRenderable15record_commands
FN:842,_RNCNvMs_NtNtCslHwOwCUw2lI_3rge6vulkan6renderNtNtB8_10renderable16VulkanRenderable15transfer_staged0Ba_
FN:670,_RNvMs_NtNtCslHwOwCUw2lI_3rge6vulkan6renderNtNtB6_10renderable16VulkanRenderable13texture_atlas
FN:395,_RNCNvMNtNtCslHwOwCUw2lI_3rge6vulkan6renderNtNtB6_10renderable16VulkanRenderable15record_commandss2_0B8_
FNDA:7837,_RNvMNtNtCsbujzjYX0pAI_3rge6vulkan6renderNtNtB4_10renderable16VulkanRenderable11update_size
FNDA:76,_RNvMNtNtCsbujzjYX0pAI_3rge6vulkan6renderNtNtB4_10renderable16VulkanRenderable16update_swapchain
FNDA:907,_RNvMs_NtNtCsbujzjYX0pAI_3rge6vulkan6renderNtNtB6_10renderable16VulkanRenderable15transfer_staged
FNDA:10428,_RNvMNtNtCsbujzjYX0pAI_3rge6vulkan6renderNtNtB4_10renderable16VulkanRenderable13number_frames
FNDA:907,_RNvMs_NtNtCsbujzjYX0pAI_3rge6vulkan6renderNtNtB6_10renderable16VulkanRenderable13texture_atlas
FNDA:1814,_RNvMs_NtNtCsbujzjYX0pAI_3rge6vulkan6renderNtNtB6_10renderable16VulkanRenderable16transition_atlas
FNDA:7798,_RNvMNtNtCsbujzjYX0pAI_3rge6vulkan6renderNtNtB4_10renderable16VulkanRenderable12render_frame
FNDA:76,_RNvMNtNtCsbujzjYX0pAI_3rge6vulkan6renderNtNtB4_10renderable16VulkanRenderable19update_surface_info
FNDA:907,_RNvMs_NtNtCsbujzjYX0pAI_3rge6vulkan6renderNtNtB6_10renderable16VulkanRenderable13stage_texture
FNDA:7798,_RNvMNtNtCsbujzjYX0pAI_3rge6vulkan6renderNtNtB4_10renderable16VulkanRenderable15record_commands
FNDA:7798,_RNvMNtNtCsbujzjYX0pAI_3rge6vulkan6renderNtNtB4_10renderable16VulkanRenderable15submit_commands
FNDA:7798,_RNvMNtNtCsbujzjYX0pAI_3rge6vulkan6renderNtNtB4_10renderable16VulkanRenderable14prev_frame_idx
FNDA:7798,_RNvMNtNtCsbujzjYX0pAI_3rge6vulkan6renderNtNtB4_10renderable16VulkanRenderable13acquire_image
FNDA:7837,_RNvMNtNtCsbujzjYX0pAI_3rge6vulkan6renderNtNtB4_10renderable16VulkanRenderable6render
FNDA:7798,_RNvMNtNtCsbujzjYX0pAI_3rge6vulkan6renderNtNtB4_10renderable16VulkanRenderable14next_frame_idx
FNDA:907,_RNvMs_NtNtCsbujzjYX0pAI_3rge6vulkan6renderNtNtB6_10renderable16VulkanRenderable18update_descriptors
FNDA:7798,_RNvMNtNtCsbujzjYX0pAI_3rge6vulkan6renderNtNtB4_10renderable16VulkanRenderable13present_image
FNDA:46788,_RNCNvMNtNtCsbujzjYX0pAI_3rge6vulkan6renderNtNtB6_10renderable16VulkanRenderable15record_commands0B8_
FNDA:93576,_RNCNvMNtNtCsbujzjYX0pAI_3rge6vulkan6renderNtNtB6_10renderable16VulkanRenderable15record_commandss0_0B8_
FNDA:1814,_RNCINvMs_NtNtCsbujzjYX0pAI_3rge6vulkan6renderNtNtB9_10renderable16VulkanRenderable15single_commandsNCNvB4_16transition_atlas0Es_0Bb_
FNDA:187152,_RNCINvMNtNtCsbujzjYX0pAI_3rge6vulkan6renderNtNtB7_10renderable16VulkanRenderable9map_bytesKjc_E0B9_
FNDA:93576,_RNCNvMNtNtCsbujzjYX0pAI_3rge6vulkan6renderNtNtB6_10renderable16VulkanRenderable15record_commandss3_0B8_
FNDA:907,_RNCINvMs_NtNtCsbujzjYX0pAI_3rge6vulkan6renderNtNtB9_10renderable16VulkanRenderable15single_commandsNCNvB4_15transfer_staged0E0Bb_
FNDA:1814,_RNCINvMs_NtNtCsbujzjYX0pAI_3rge6vulkan6renderNtNtB9_10renderable16VulkanRenderable15single_commandsNCNvB4_16transition_atlas0E0Bb_
FNDA:907,_RNCNvMs_NtNtCsbujzjYX0pAI_3rge6vulkan6renderNtNtB8_10renderable16VulkanRenderable15transfer_staged0Ba_
FNDA:907,_RNCINvMs_NtNtCsbujzjYX0pAI_3rge6vulkan6renderNtNtB9_10renderable16VulkanRenderable15single_commandsNCNvB4_15transfer_staged0Es_0Bb_
FNDA:1814,_RNCNvMs_NtNtCsbujzjYX0pAI_3rge6vulkan6renderNtNtB8_10renderable16VulkanRenderable16transition_atlas0Ba_
FNDA:93576,_RNCNvMNtNtCsbujzjYX0pAI_3rge6vulkan6renderNtNtB6_10renderable16VulkanRenderable15record_commandss1_0B8_
FNDA:46788,_RNCNvMNtNtCsbujzjYX0pAI_3rge6vulkan6renderNtNtB6_10renderable16VulkanRenderable15record_commandss_0B8_
FNDA:93576,_RNCNvMNtNtCsbujzjYX0pAI_3rge6vulkan6renderNtNtB6_10renderable16VulkanRenderable15record_commandss2_0B8_
FNDA:907,_RINvMs_NtNtCsbujzjYX0pAI_3rge6vulkan6renderNtNtB7_10renderable16VulkanRenderable15single_commandsNCNvB2_15transfer_staged0EB9_
FNDA:1814,_RINvMs_NtNtCsbujzjYX0pAI_3rge6vulkan6renderNtNtB7_10renderable16VulkanRenderable15single_commandsNCNvB2_16transition_atlas0EB9_
FNDA:15596,_RINvMNtNtCsbujzjYX0pAI_3rge6vulkan6renderNtNtB5_10renderable16VulkanRenderable9map_bytesKjc_EB7_
FNDA:0,_RNvMNtNtCslHwOwCUw2lI_3rge6vulkan6renderNtNtB4_10renderable16VulkanRenderable14next_frame_idx
FNDA:0,_RNCNvMNtNtCslHwOwCUw2lI_3rge6vulkan6renderNtNtB6_10renderable16VulkanRenderable15record_commands0B8_
FNDA:0,_RNCNvMNtNtCslHwOwCUw2lI_3rge6vulkan6renderNtNtB6_10renderable16VulkanRenderable15record_commandss0_0B8_
FNDA:0,_RNvMNtNtCslHwOwCUw2lI_3rge6vulkan6renderNtNtB4_10renderable16VulkanRenderable16update_swapchain
FNDA:0,_RNCNvMNtNtCslHwOwCUw2lI_3rge6vulkan6renderNtNtB6_10renderable16VulkanRenderable15record_commandss3_0B8_
FNDA:0,_RNCINvMs_NtNtCslHwOwCUw2lI_3rge6vulkan6renderNtNtB9_10renderable16VulkanRenderable15single_commandspEs_0Bb_
FNDA:0,_RNCNvMs_NtNtCslHwOwCUw2lI_3rge6vulkan6renderNtNtB8_10renderable16VulkanRenderable16transition_atlas0Ba_
FNDA:0,_RNCNvMNtNtCslHwOwCUw2lI_3rge6vulkan6renderNtNtB6_10renderable16VulkanRenderable15record_commandss1_0B8_
FNDA:0,_RNvMs_NtNtCslHwOwCUw2lI_3rge6vulkan6renderNtNtB6_10renderable16VulkanRenderable15transfer_staged
FNDA:0,_RINvMNtNtCslHwOwCUw2lI_3rge6vulkan6renderNtNtB5_10renderable16VulkanRenderable9map_bytesKpEB7_
FNDA:0,_RNCINvMNtNtCslHwOwCUw2lI_3rge6vulkan6renderNtNtB7_10renderable16VulkanRenderable9map_bytesKpE0B9_
FNDA:0,_RNvMNtNtCslHwOwCUw2lI_3rge6vulkan6renderNtNtB4_10renderable16VulkanRenderable19update_surface_info
FNDA:0,_RNvMs_NtNtCslHwOwCUw2lI_3rge6vulkan6renderNtNtB6_10renderable16VulkanRenderable16transition_atlas
FNDA:0,_RNCNvMNtNtCslHwOwCUw2lI_3rge6vulkan6renderNtNtB6_10renderable16VulkanRenderable15record_commandss_0B8_
FNDA:0,_RNvMNtNtCslHwOwCUw2lI_3rge6vulkan6renderNtNtB4_10renderable16VulkanRenderable12render_frame
FNDA:0,_RNvMNtNtCslHwOwCUw2lI_3rge6vulkan6renderNtNtB4_10renderable16VulkanRenderable13present_image
FNDA:0,_RNvMNtNtCslHwOwCUw2lI_3rge6vulkan6renderNtNtB4_10renderable16VulkanRenderable15submit_commands
FNDA:0,_RINvMs_NtNtCslHwOwCUw2lI_3rge6vulkan6renderNtNtB7_10renderable16VulkanRenderable15single_commandspEB9_
FNDA:0,_RNvMs_NtNtCslHwOwCUw2lI_3rge6vulkan6renderNtNtB6_10renderable16VulkanRenderable13stage_texture
FNDA:0,_RNvMNtNtCslHwOwCUw2lI_3rge6vulkan6renderNtNtB4_10renderable16VulkanRenderable13number_frames
FNDA:0,_RNCINvMs_NtNtCslHwOwCUw2lI_3rge6vulkan6renderNtNtB9_10renderable16VulkanRenderable15single_commandspE0Bb_
FNDA:0,_RNvMNtNtCslHwOwCUw2lI_3rge6vulkan6renderNtNtB4_10renderable16VulkanRenderable6render
FNDA:0,_RNvMNtNtCslHwOwCUw2lI_3rge6vulkan6renderNtNtB4_10renderable16VulkanRenderable11update_size
FNDA:0,_RNvMs_NtNtCslHwOwCUw2lI_3rge6vulkan6renderNtNtB6_10renderable16VulkanRenderable18update_descriptors
FNDA:0,_RNvMNtNtCslHwOwCUw2lI_3rge6vulkan6renderNtNtB4_10renderable16VulkanRenderable14prev_frame_idx
FNDA:0,_RNvMNtNtCslHwOwCUw2lI_3rge6vulkan6renderNtNtB4_10renderable16VulkanRenderable13acquire_image
FNDA:0,_RNvMNtNtCslHwOwCUw2lI_3rge6vulkan6renderNtNtB4_10renderable16VulkanRenderable15record_commands
FNDA:0,_RNCNvMs_NtNtCslHwOwCUw2lI_3rge6vulkan6renderNtNtB8_10renderable16VulkanRenderable15transfer_staged0Ba_
FNDA:0,_RNvMs_NtNtCslHwOwCUw2lI_3rge6vulkan6renderNtNtB6_10renderable16VulkanRenderable13texture_atlas
FNDA:0,_RNCNvMNtNtCslHwOwCUw2lI_3rge6vulkan6renderNtNtB6_10renderable16VulkanRenderable15record_commandss2_0B8_
FNF:30
FNH:30
DA:24,7837
DA:25,7837
DA:27,7837
DA:28,7837
DA:29,7837
DA:30,7837
DA:32,7837
DA:34,39
DA:35,7798
DA:36,7798
DA:37,7798
DA:38,76
DA:39,76
DA:40,7722
DA:42,7798
DA:47,7798
DA:48,0
DA:49,0
DA:50,0
DA:51,0
DA:52,0
DA:53,0
DA:56,0
DA:57,0
DA:58,0
DA:59,0
DA:60,0
DA:61,0
DA:65,7798
DA:66,7837
DA:71,10428
DA:72,10428
DA:73,10428
DA:76,7798
DA:77,7798
DA:78,7798
DA:81,7798
DA:82,7798
DA:83,2630
DA:85,5168
DA:87,7798
DA:94,7837
DA:95,7837
DA:97,7837
DA:98,7837
DA:99,7837
DA:100,7837
DA:101,7837
DA:102,7837
DA:103,7837
DA:108,76
DA:109,76
DA:110,76
DA:111,76
DA:116,76
DA:117,76
DA:118,76
DA:119,76
DA:120,76
DA:121,76
DA:122,76
DA:123,76
DA:124,76
DA:125,76
DA:126,76
DA:132,7798
DA:133,7798
DA:134,7798
DA:135,7798
DA:136,7798
DA:137,7798
DA:138,7798
DA:139,7798
DA:147,7798
DA:149,0
DA:151,7798
DA:153,7798
DA:154,7798
DA:155,7798
DA:156,7798
DA:157,7798
DA:158,7798
DA:159,7798
DA:160,7798
DA:161,0
DA:162,7798
DA:163,7798
DA:164,7798
DA:165,0
DA:166,7798
DA:167,7798
DA:168,7798
DA:169,7798
DA:175,7798
DA:176,7798
DA:177,7798
DA:178,7798
DA:179,7798
DA:180,7798
DA:181,7798
DA:182,7798
DA:183,7798
DA:184,7798
DA:185,7798
DA:186,7798
DA:187,7798
DA:188,7798
DA:189,7798
DA:190,7798
DA:191,7798
DA:192,7798
DA:193,7798
DA:194,7798
DA:195,7798
DA:196,7798
DA:197,7798
DA:198,7798
DA:200,7798
DA:201,0
DA:202,7798
DA:203,7798
DA:204,7798
DA:205,7798
DA:206,7798
DA:207,7798
DA:208,7798
DA:209,7798
DA:210,7798
DA:211,7798
DA:216,15596
DA:217,15596
DA:218,15596
DA:219,15596
DA:220,15596
DA:221,15596
DA:222,15596
DA:223,15596
DA:224,15596
DA:225,187152
DA:226,187152
DA:227,187152
DA:228,187152
DA:229,187152
DA:230,15596
DA:231,15596
DA:232,15596
DA:237,7798
DA:238,7798
DA:239,7798
DA:240,7798
DA:241,7798
DA:242,7798
DA:243,7798
DA:244,7798
DA:245,7798
DA:246,7798
DA:247,7798
DA:248,7798
DA:249,7798
DA:250,7798
DA:251,7798
DA:252,7798
DA:253,7798
DA:254,7798
DA:255,7798
DA:256,7798
DA:257,7798
DA:258,7798
DA:259,7798
DA:260,7798
DA:261,7798
DA:262,7798
DA:263,7798
DA:264,7798
DA:265,7798
DA:266,7798
DA:267,7798
DA:268,7798
DA:269,7798
DA:270,7798
DA:271,7798
DA:272,7798
DA:273,7798
DA:274,7798
DA:275,7798
DA:276,7798
DA:277,7798
DA:278,7798
DA:279,7798
DA:280,7798
DA:281,7798
DA:282,7798
DA:283,7798
DA:284,7798
DA:285,7798
DA:286,7798
DA:287,7798
DA:288,7798
DA:289,7798
DA:290,7798
DA:291,7798
DA:292,7798
DA:293,7798
DA:294,7798
DA:295,7798
DA:296,7798
DA:297,7798
DA:298,7798
DA:299,7798
DA:300,7798
DA:301,7798
DA:302,7798
DA:303,7798
DA:304,7798
DA:305,7798
DA:306,7798
DA:307,7798
DA:308,7798
DA:309,7798
DA:310,7798
DA:311,7798
DA:312,7798
DA:313,7798
DA:314,7798
DA:315,7798
DA:316,7798
DA:317,7798
DA:318,7798
DA:319,7798
DA:320,7798
DA:321,7798
DA:322,7798
DA:323,7798
DA:324,7798
DA:325,7798
DA:326,7798
DA:327,7798
DA:328,7798
DA:329,7798
DA:330,7798
DA:331,7798
DA:332,7798
DA:333,7798
DA:334,7798
DA:335,7798
DA:336,7798
DA:337,7798
DA:338,7798
DA:339,7798
DA:340,7798
DA:341,7798
DA:342,7798
DA:343,7798
DA:344,7798
DA:345,7798
DA:346,7798
DA:347,7798
DA:348,7798
DA:349,7798
DA:350,7798
DA:351,7798
DA:352,7798
DA:353,7798
DA:354,7798
DA:355,7798
DA:356,7798
DA:357,7798
DA:358,7798
DA:359,7798
DA:360,7798
DA:361,7798
DA:362,7798
DA:363,7798
DA:364,7798
DA:365,7798
DA:366,7798
DA:367,7798
DA:368,7798
DA:369,7798
DA:370,7798
DA:371,7798
DA:372,7798
DA:373,7798
DA:374,7798
DA:375,46788
DA:376,7798
DA:377,46788
DA:378,7798
DA:379,7798
DA:380,7798
DA:381,7798
DA:382,7798
DA:383,7798
DA:384,7798
DA:385,7798
DA:386,7798
DA:387,93576
DA:388,7798
DA:389,7798
DA:390,7798
DA:391,93576
DA:392,7798
DA:393,7798
DA:394,7798
DA:395,93576
DA:396,7798
DA:397,7798
DA:398,7798
DA:399,7798
DA:400,7798
DA:401,7798
DA:402,7798
DA:403,7798
DA:404,7798
DA:405,7798
DA:406,7798
DA:407,7798
DA:408,7798
DA:409,7798
DA:410,7798
DA:443,7798
DA:444,7798
DA:445,7798
DA:446,7798
DA:447,7798
DA:448,7798
DA:449,7798
DA:450,7798
DA:452,7798
DA:453,7798
DA:454,7798
DA:455,7798
DA:456,7798
DA:457,7798
DA:458,7798
DA:459,7798
DA:460,7798
DA:461,7798
DA:462,7798
DA:463,7798
DA:464,7798
DA:465,93576
DA:466,93576
DA:467,93576
DA:468,93576
DA:469,93576
DA:470,93576
DA:471,93576
DA:472,93576
DA:473,93576
DA:474,93576
DA:475,93576
DA:476,93576
DA:477,93576
DA:479,93576
DA:480,77185
DA:482,16391
DA:483,16391
DA:484,16391
DA:485,16391
DA:488,93576
DA:489,93576
DA:490,93576
DA:491,93576
DA:492,93576
DA:493,93576
DA:494,93576
DA:495,93576
DA:496,7798
DA:497,7798
DA:498,7798
DA:499,7798
DA:500,7798
DA:501,7798
DA:502,7798
DA:503,7798
DA:504,7798
DA:505,7798
DA:506,7798
DA:507,7798
DA:508,7798
DA:509,7798
DA:510,7798
DA:511,7798
DA:512,7798
DA:513,7798
DA:514,7798
DA:515,7798
DA:516,7798
DA:517,7798
DA:518,7798
DA:519,7798
DA:520,7798
DA:521,7798
DA:522,7798
DA:523,7798
DA:525,101374
DA:526,93576
DA:527,93576
DA:528,93576
DA:529,93576
DA:530,93576
DA:531,93576
DA:532,93576
DA:533,93576
DA:534,93576
DA:535,93576
DA:536,93576
DA:537,93576
DA:538,93576
DA:539,93576
DA:540,93576
DA:541,93576
DA:542,93576
DA:544,93576
DA:545,16391
DA:546,16391
DA:547,16391
DA:548,16391
DA:549,16391
DA:550,16391
DA:551,16391
DA:552,16391
DA:553,77185
DA:555,93576
DA:556,46788
DA:557,46788
DA:558,46788
DA:559,46788
DA:560,46788
DA:561,46788
DA:562,46788
DA:563,46788
DA:564,46788
DA:566,93576
DA:567,16391
DA:568,16391
DA:569,77185
DA:570,77185
DA:571,77185
DA:572,77185
DA:574,7798
DA:575,7798
DA:576,7798
DA:577,7798
DA:578,7798
DA:579,7798
DA:580,7798
DA:586,7798
DA:587,7798
DA:588,7798
DA:589,7798
DA:590,7798
DA:591,7798
DA:592,7798
DA:593,7798
DA:594,7798
DA:595,7798
DA:596,7798
DA:597,7798
DA:598,7798
DA:599,7798
DA:600,7798
DA:601,7798
DA:602,7798
DA:603,7798
DA:604,7798
DA:605,7798
DA:606,7798
DA:607,7798
DA:608,7798
DA:609,7798
DA:610,7798
DA:611,7798
DA:612,7798
DA:613,7798
DA:614,7798
DA:615,7798
DA:616,0
DA:617,7798
DA:618,7798
DA:619,7798
DA:620,7798
DA:621,7798
DA:622,7798
DA:623,7798
DA:629,7798
DA:630,7798
DA:631,7798
DA:632,7798
DA:633,7798
DA:634,7798
DA:635,7798
DA:636,7798
DA:637,7798
DA:638,7798
DA:639,7798
DA:640,7798
DA:641,7798
DA:642,7798
DA:643,7798
DA:644,7798
DA:645,7798
DA:646,7798
DA:647,7798
DA:648,7798
DA:649,7798
DA:651,7798
DA:652,0
DA:653,7798
DA:654,7798
DA:655,7798
DA:656,7798
DA:657,0
DA:658,7798
DA:660,7798
DA:661,7798
DA:670,907
DA:671,907
DA:672,907
DA:673,907
DA:674,907
DA:675,907
DA:676,907
DA:677,907
DA:678,907
DA:679,907
DA:680,907
DA:681,907
DA:682,907
DA:683,907
DA:684,907
DA:685,907
DA:686,907
DA:687,907
DA:688,907
DA:689,907
DA:694,2721
DA:695,2721
DA:696,2721
DA:697,2721
DA:698,2721
DA:699,2721
DA:700,2721
DA:701,2721
DA:702,2721
DA:703,2721
DA:704,2721
DA:705,2721
DA:706,2721
DA:707,2721
DA:708,2721
DA:709,2721
DA:710,2721
DA:711,2721
DA:712,2721
DA:713,2721
DA:714,2721
DA:715,2721
DA:716,2721
DA:717,2721
DA:718,2721
DA:719,2721
DA:720,2721
DA:721,2721
DA:722,2721
DA:723,2721
DA:724,2721
DA:725,2721
DA:726,2721
DA:727,2721
DA:728,2721
DA:729,2721
DA:730,2721
DA:731,2721
DA:732,2721
DA:733,2721
DA:734,2721
DA:735,2721
DA:736,2721
DA:737,2721
DA:738,2721
DA:739,2721
DA:740,2721
DA:741,2721
DA:742,2721
DA:747,1814
DA:748,1814
DA:749,1814
DA:750,1814
DA:751,1814
DA:752,1814
DA:753,1814
DA:754,1814
DA:756,907
DA:757,907
DA:758,907
DA:759,907
DA:760,907
DA:763,907
DA:764,907
DA:765,907
DA:766,907
DA:767,907
DA:769,0
DA:772,1814
DA:773,1814
DA:774,1814
DA:775,1814
DA:776,1814
DA:777,1814
DA:778,1814
DA:779,1814
DA:780,1814
DA:781,1814
DA:782,1814
DA:783,1814
DA:784,1814
DA:785,1814
DA:786,1814
DA:787,1814
DA:788,1814
DA:789,1814
DA:790,1814
DA:791,1814
DA:792,1814
DA:793,1814
DA:794,1814
DA:795,1814
DA:796,1814
DA:797,1814
DA:798,1814
DA:799,1814
DA:800,1814
DA:801,1814
DA:806,907
DA:807,907
DA:808,907
DA:809,907
DA:811,907
DA:812,907
DA:813,907
DA:814,907
DA:815,907
DA:816,907
DA:817,907
DA:822,907
DA:823,907
DA:824,907
DA:825,907
DA:826,907
DA:827,907
DA:828,907
DA:829,907
DA:830,907
DA:831,907
DA:832,907
DA:833,907
DA:834,907
DA:835,907
DA:836,907
DA:837,907
DA:838,907
DA:839,907
DA:840,907
DA:841,907
DA:842,907
DA:843,907
DA:844,907
DA:845,907
DA:846,907
DA:847,907
DA:848,907
DA:849,907
DA:850,907
DA:851,907
DA:852,907
DA:853,907
DA:858,907
DA:859,907
DA:860,907
DA:861,907
DA:862,907
DA:863,907
DA:864,907
DA:865,907
DA:866,907
DA:867,907
DA:868,907
DA:869,907
DA:870,907
DA:871,907
DA:872,907
DA:873,907
DA:874,907
DA:875,907
DA:876,907
DA:877,907
DA:878,907
DA:879,907
DA:880,907
DA:881,907
DA:882,907
DA:883,907
DA:884,907
DA:885,907
BRF:0
BRH:0
LF:722
LH:702
end_of_record
SF:C:\Users\luigi\College\Spring 2023\Capstone\EricGrandizio\rge\src\vulkan\renderable\device.rs
FN:44,_RNvMNtNtNtCsbujzjYX0pAI_3rge6vulkan10renderable6deviceNtB2_6Device8instance
FN:40,_RNvMNtNtNtCsbujzjYX0pAI_3rge6vulkan10renderable6deviceNtB2_6Device7context
FN:36,_RNvMNtNtNtCsbujzjYX0pAI_3rge6vulkan10renderable6deviceNtB2_6Device4exts
FN:48,_RNvMNtNtNtCsbujzjYX0pAI_3rge6vulkan10renderable6deviceNtB2_6Device10ash_device
FN:57,_RNvMs_NtNtNtCsbujzjYX0pAI_3rge6vulkan10renderable6deviceNtB4_6Device3new
FN:40,_RNvMNtNtNtCslHwOwCUw2lI_3rge6vulkan10renderable6deviceNtB2_6Device7context
FN:48,_RNvMNtNtNtCslHwOwCUw2lI_3rge6vulkan10renderable6deviceNtB2_6Device10ash_device
FN:57,_RNvMs_NtNtNtCslHwOwCUw2lI_3rge6vulkan10renderable6deviceNtB4_6Device3new
FN:36,_RNvMNtNtNtCslHwOwCUw2lI_3rge6vulkan10renderable6deviceNtB2_6Device4exts
FN:44,_RNvMNtNtNtCslHwOwCUw2lI_3rge6vulkan10renderable6deviceNtB2_6Device8instance
FNDA:0,_RNvMNtNtNtCsbujzjYX0pAI_3rge6vulkan10renderable6deviceNtB2_6Device8instance
FNDA:0,_RNvMNtNtNtCsbujzjYX0pAI_3rge6vulkan10renderable6deviceNtB2_6Device7context
FNDA:82,_RNvMNtNtNtCsbujzjYX0pAI_3rge6vulkan10renderable6deviceNtB2_6Device4exts
FNDA:66920,_RNvMNtNtNtCsbujzjYX0pAI_3rge6vulkan10renderable6deviceNtB2_6Device10ash_device
FNDA:6,_RNvMs_NtNtNtCsbujzjYX0pAI_3rge6vulkan10renderable6deviceNtB4_6Device3new
FNDA:0,_RNvMNtNtNtCslHwOwCUw2lI_3rge6vulkan10renderable6deviceNtB2_6Device7context
FNDA:0,_RNvMNtNtNtCslHwOwCUw2lI_3rge6vulkan10renderable6deviceNtB2_6Device10ash_device
FNDA:0,_RNvMs_NtNtNtCslHwOwCUw2lI_3rge6vulkan10renderable6deviceNtB4_6Device3new
FNDA:0,_RNvMNtNtNtCslHwOwCUw2lI_3rge6vulkan10renderable6deviceNtB2_6Device4exts
FNDA:0,_RNvMNtNtNtCslHwOwCUw2lI_3rge6vulkan10renderable6deviceNtB2_6Device8instance
FNF:5
FNH:3
DA:36,82
DA:37,82
DA:38,82
DA:40,0
DA:41,0
DA:42,0
DA:44,0
DA:45,0
DA:46,0
DA:48,66920
DA:49,66920
DA:50,66920
DA:57,6
DA:58,6
DA:59,6
DA:60,6
DA:61,6
DA:62,6
DA:63,6
DA:64,6
DA:65,6
DA:66,6
DA:67,6
DA:68,6
DA:69,6
DA:70,6
DA:71,6
DA:72,6
DA:73,6
DA:74,6
DA:75,6
DA:76,6
DA:77,6
BRF:0
BRH:0
LF:33
LH:27
end_of_record
SF:C:\Users\luigi\College\Spring 2023\Capstone\EricGrandizio\rge\src\vulkan\renderable\device_exts.rs
FN:25,_RNvMNtNtNtCsbujzjYX0pAI_3rge6vulkan10renderable11device_extsNtB2_10DeviceExts3new
FN:25,_RNvMNtNtNtCslHwOwCUw2lI_3rge6vulkan10renderable11device_extsNtB2_10DeviceExts3new
FNDA:6,_RNvMNtNtNtCsbujzjYX0pAI_3rge6vulkan10renderable11device_extsNtB2_10DeviceExts3new
FNDA:0,_RNvMNtNtNtCslHwOwCUw2lI_3rge6vulkan10renderable11device_extsNtB2_10DeviceExts3new
FNF:1
FNH:1
DA:25,6
DA:26,6
DA:27,6
DA:28,6
DA:29,6
DA:30,6
BRF:0
BRH:0
LF:6
LH:6
end_of_record
SF:C:\Users\luigi\College\Spring 2023\Capstone\EricGrandizio\rge\src\vulkan\renderable\device_selection.rs
FN:17,_RNvXs7_NtNtNtCsbujzjYX0pAI_3rge6vulkan10renderable16device_selectionNtB5_7RankingNtNtCs1RoSZkFyxqL_4core3cmp9PartialEq2eqBb_
FN:69,_RNvMs0_NtNtNtCsbujzjYX0pAI_3rge6vulkan10renderable16device_selectionNtB5_15DeviceSelection15graphics_family
FN:73,_RNvMs0_NtNtNtCsbujzjYX0pAI_3rge6vulkan10renderable16device_selectionNtB5_15DeviceSelection14present_family
FN:17,_RNvXs4_NtNtNtCsbujzjYX0pAI_3rge6vulkan10renderable16device_selectionNtB5_7RankingNtNtCs1RoSZkFyxqL_4core5clone5Clone5cloneBb_
FN:33,_RNvXs_NtNtNtCsbujzjYX0pAI_3rge6vulkan10renderable16device_selectionNtB4_7RankingNtNtCs1RoSZkFyxqL_4core3cmp3Ord3cmp
FN:124,_RNvMs2_NtNtNtCsbujzjYX0pAI_3rge6vulkan10renderable16device_selectionNtB5_15DeviceSelection22concurrent_queue_count
FN:142,_RNvMs2_NtNtNtCsbujzjYX0pAI_3rge6vulkan10renderable16device_selectionNtB5_15DeviceSelection10queue_mode
FN:292,_RNvMs3_NtNtNtCsbujzjYX0pAI_3rge6vulkan10renderable16device_selectionNtB5_15DeviceSelection22present_queue_rankings
FN:114,_RNvMs2_NtNtNtCsbujzjYX0pAI_3rge6vulkan10renderable16device_selectionNtB5_15DeviceSelection13queues_unique
FN:219,_RNvMs3_NtNtNtCsbujzjYX0pAI_3rge6vulkan10renderable16device_selectionNtB5_15DeviceSelection18rank_queue_present
FN:158,_RNvMs3_NtNtNtCsbujzjYX0pAI_3rge6vulkan10renderable16device_selectionNtB5_15DeviceSelection11rank_device
FN:133,_RNvMs2_NtNtNtCsbujzjYX0pAI_3rge6vulkan10renderable16device_selectionNtB5_15DeviceSelection18unique_queue_count
FN:82,_RNvMs1_NtNtNtCsbujzjYX0pAI_3rge6vulkan10renderable16device_selectionNtB5_15DeviceSelection3new
FN:61,_RNvMs0_NtNtNtCsbujzjYX0pAI_3rge6vulkan10renderable16device_selectionNtB5_15DeviceSelection7context
FN:195,_RNvMs3_NtNtNtCsbujzjYX0pAI_3rge6vulkan10renderable16device_selectionNtB5_15DeviceSelection19rank_queue_graphics
FN:244,_RNvMs3_NtNtNtCsbujzjYX0pAI_3rge6vulkan10renderable16device_selectionNtB5_15DeviceSelection15device_rankings
FN:17,_RNvXsa_NtNtNtCsbujzjYX0pAI_3rge6vulkan10renderable16device_selectionNtB5_7RankingNtNtCs1RoSZkFyxqL_4core3fmt5Debug3fmt
FN:27,_RNvXNtNtNtCsbujzjYX0pAI_3rge6vulkan10renderable16device_selectionNtB2_7RankingNtNtCs1RoSZkFyxqL_4core3cmp10PartialOrd11partial_cmp
FN:119,_RNvMs2_NtNtNtCsbujzjYX0pAI_3rge6vulkan10renderable16device_selectionNtB5_15DeviceSelection13queue_indices
FN:272,_RNvMs3_NtNtNtCsbujzjYX0pAI_3rge6vulkan10renderable16device_selectionNtB5_15DeviceSelection23graphics_queue_rankings
FN:65,_RNvMs0_NtNtNtCsbujzjYX0pAI_3rge6vulkan10renderable16device_selectionNtB5_15DeviceSelection8physical
FN:308,_RNCNvMs3_NtNtNtCsbujzjYX0pAI_3rge6vulkan10renderable16device_selectionNtB7_15DeviceSelection22present_queue_rankingss_0Bd_
FN:268,_RNCNvMs3_NtNtNtCsbujzjYX0pAI_3rge6vulkan10renderable16device_selectionNtB7_15DeviceSelection15device_rankingss_0Bd_
FN:251,_RNCNvMs3_NtNtNtCsbujzjYX0pAI_3rge6vulkan10renderable16device_selectionNtB7_15DeviceSelection15device_rankings0Bd_
FN:278,_RNCNvMs3_NtNtNtCsbujzjYX0pAI_3rge6vulkan10renderable16device_selectionNtB7_15DeviceSelection23graphics_queue_rankings0Bd_
FN:298,_RNCNvMs3_NtNtNtCsbujzjYX0pAI_3rge6vulkan10renderable16device_selectionNtB7_15DeviceSelection22present_queue_rankings0Bd_
FN:288,_RNCNvMs3_NtNtNtCsbujzjYX0pAI_3rge6vulkan10renderable16device_selectionNtB7_15DeviceSelection23graphics_queue_rankingss_0Bd_
FN:158,_RNvMs3_NtNtNtCslHwOwCUw2lI_3rge6vulkan10renderable16device_selectionNtB5_15DeviceSelection11rank_device
FN:133,_RNvMs2_NtNtNtCslHwOwCUw2lI_3rge6vulkan10renderable16device_selectionNtB5_15DeviceSelection18unique_queue_count
FN:69,_RNvMs0_NtNtNtCslHwOwCUw2lI_3rge6vulkan10renderable16device_selectionNtB5_15DeviceSelection15graphics_family
FN:292,_RNvMs3_NtNtNtCslHwOwCUw2lI_3rge6vulkan10renderable16device_selectionNtB5_15DeviceSelection22present_queue_rankings
FN:298,_RNCNvMs3_NtNtNtCslHwOwCUw2lI_3rge6vulkan10renderable16device_selectionNtB7_15DeviceSelection22present_queue_rankings0Bd_
FN:219,_RNvMs3_NtNtNtCslHwOwCUw2lI_3rge6vulkan10renderable16device_selectionNtB5_15DeviceSelection18rank_queue_present
FN:142,_RNvMs2_NtNtNtCslHwOwCUw2lI_3rge6vulkan10renderable16device_selectionNtB5_15DeviceSelection10queue_mode
FN:308,_RNCNvMs3_NtNtNtCslHwOwCUw2lI_3rge6vulkan10renderable16device_selectionNtB7_15DeviceSelection22present_queue_rankingss_0Bd_
FN:82,_RNvMs1_NtNtNtCslHwOwCUw2lI_3rge6vulkan10renderable16device_selectionNtB5_15DeviceSelection3new
FN:244,_RNvMs3_NtNtNtCslHwOwCUw2lI_3rge6vulkan10renderable16device_selectionNtB5_15DeviceSelection15device_rankings
FN:17,_RNvXsa_NtNtNtCslHwOwCUw2lI_3rge6vulkan10renderable16device_selectionNtB5_7RankingNtNtCs1RoSZkFyxqL_4core3fmt5Debug3fmt
FN:65,_RNvMs0_NtNtNtCslHwOwCUw2lI_3rge6vulkan10renderable16device_selectionNtB5_15DeviceSelection8physical
FN:278,_RNCNvMs3_NtNtNtCslHwOwCUw2lI_3rge6vulkan10renderable16device_selectionNtB7_15DeviceSelection23graphics_queue_rankings0Bd_
FN:288,_RNCNvMs3_NtNtNtCslHwOwCUw2lI_3rge6vulkan10renderable16device_selectionNtB7_15DeviceSelection23graphics_queue_rankingss_0Bd_
FN:61,_RNvMs0_NtNtNtCslHwOwCUw2lI_3rge6vulkan10renderable16device_selectionNtB5_15DeviceSelection7context
FN:119,_RNvMs2_NtNtNtCslHwOwCUw2lI_3rge6vulkan10renderable16device_selectionNtB5_15DeviceSelection13queue_indices
FN:114,_RNvMs2_NtNtNtCslHwOwCUw2lI_3rge6vulkan10renderable16device_selectionNtB5_15DeviceSelection13queues_unique
FN:268,_RNCNvMs3_NtNtNtCslHwOwCUw2lI_3rge6vulkan10renderable16device_selectionNtB7_15DeviceSelection15device_rankingss_0Bd_
FN:33,_RNvXs_NtNtNtCslHwOwCUw2lI_3rge6vulkan10renderable16device_selectionNtB4_7RankingNtNtCs1RoSZkFyxqL_4core3cmp3Ord3cmp
FN:124,_RNvMs2_NtNtNtCslHwOwCUw2lI_3rge6vulkan10renderable16device_selectionNtB5_15DeviceSelection22concurrent_queue_count
FN:17,_RNvXs4_NtNtNtCslHwOwCUw2lI_3rge6vulkan10renderable16device_selectionNtB5_7RankingNtNtCs1RoSZkFyxqL_4core5clone5Clone5cloneBb_
FN:251,_RNCNvMs3_NtNtNtCslHwOwCUw2lI_3rge6vulkan10renderable16device_selectionNtB7_15DeviceSelection15device_rankings0Bd_
FN:272,_RNvMs3_NtNtNtCslHwOwCUw2lI_3rge6vulkan10renderable16device_selectionNtB5_15DeviceSelection23graphics_queue_rankings
FN:17,_RNvXs7_NtNtNtCslHwOwCUw2lI_3rge6vulkan10renderable16device_selectionNtB5_7RankingNtNtCs1RoSZkFyxqL_4core3cmp9PartialEq2eqBb_
FN:73,_RNvMs0_NtNtNtCslHwOwCUw2lI_3rge6vulkan10renderable16device_selectionNtB5_15DeviceSelection14present_family
FN:195,_RNvMs3_NtNtNtCslHwOwCUw2lI_3rge6vulkan10renderable16device_selectionNtB5_15DeviceSelection19rank_queue_graphics
FN:27,_RNvXNtNtNtCslHwOwCUw2lI_3rge6vulkan10renderable16device_selectionNtB2_7RankingNtNtCs1RoSZkFyxqL_4core3cmp10PartialOrd11partial_cmp
FNDA:0,_RNvXs7_NtNtNtCsbujzjYX0pAI_3rge6vulkan10renderable16device_selectionNtB5_7RankingNtNtCs1RoSZkFyxqL_4core3cmp9PartialEq2eqBb_
FNDA:0,_RNvMs0_NtNtNtCsbujzjYX0pAI_3rge6vulkan10renderable16device_selectionNtB5_15DeviceSelection15graphics_family
FNDA:0,_RNvMs0_NtNtNtCsbujzjYX0pAI_3rge6vulkan10renderable16device_selectionNtB5_15DeviceSelection14present_family
FNDA:0,_RNvXs4_NtNtNtCsbujzjYX0pAI_3rge6vulkan10renderable16device_selectionNtB5_7RankingNtNtCs1RoSZkFyxqL_4core5clone5Clone5cloneBb_
FNDA:12,_RNvXs_NtNtNtCsbujzjYX0pAI_3rge6vulkan10renderable16device_selectionNtB4_7RankingNtNtCs1RoSZkFyxqL_4core3cmp3Ord3cmp
FNDA:82,_RNvMs2_NtNtNtCsbujzjYX0pAI_3rge6vulkan10renderable16device_selectionNtB5_15DeviceSelection22concurrent_queue_count
FNDA:82,_RNvMs2_NtNtNtCsbujzjYX0pAI_3rge6vulkan10renderable16device_selectionNtB5_15DeviceSelection10queue_mode
FNDA:6,_RNvMs3_NtNtNtCsbujzjYX0pAI_3rge6vulkan10renderable16device_selectionNtB5_15DeviceSelection22present_queue_rankings
FNDA:252,_RNvMs2_NtNtNtCsbujzjYX0pAI_3rge6vulkan10renderable16device_selectionNtB5_15DeviceSelection13queues_unique
FNDA:24,_RNvMs3_NtNtNtCsbujzjYX0pAI_3rge6vulkan10renderable16device_selectionNtB5_15DeviceSelection18rank_queue_present
FNDA:12,_RNvMs3_NtNtNtCsbujzjYX0pAI_3rge6vulkan10renderable16device_selectionNtB5_15DeviceSelection11rank_device
FNDA:6,_RNvMs2_NtNtNtCsbujzjYX0pAI_3rge6vulkan10renderable16device_selectionNtB5_15DeviceSelection18unique_queue_count
FNDA:6,_RNvMs1_NtNtNtCsbujzjYX0pAI_3rge6vulkan10renderable16device_selectionNtB5_15DeviceSelection3new
FNDA:1001,_RNvMs0_NtNtNtCsbujzjYX0pAI_3rge6vulkan10renderable16device_selectionNtB5_15DeviceSelection7context
FNDA:24,_RNvMs3_NtNtNtCsbujzjYX0pAI_3rge6vulkan10renderable16device_selectionNtB5_15DeviceSelection19rank_queue_graphics
FNDA:6,_RNvMs3_NtNtNtCsbujzjYX0pAI_3rge6vulkan10renderable16device_selectionNtB5_15DeviceSelection15device_rankings
FNDA:0,_RNvXsa_NtNtNtCsbujzjYX0pAI_3rge6vulkan10renderable16device_selectionNtB5_7RankingNtNtCs1RoSZkFyxqL_4core3fmt5Debug3fmt
FNDA:0,_RNvXNtNtNtCsbujzjYX0pAI_3rge6vulkan10renderable16device_selectionNtB2_7RankingNtNtCs1RoSZkFyxqL_4core3cmp10PartialOrd11partial_cmp
FNDA:82,_RNvMs2_NtNtNtCsbujzjYX0pAI_3rge6vulkan10renderable16device_selectionNtB5_15DeviceSelection13queue_indices
FNDA:6,_RNvMs3_NtNtNtCsbujzjYX0pAI_3rge6vulkan10renderable16device_selectionNtB5_15DeviceSelection23graphics_queue_rankings
FNDA:1001,_RNvMs0_NtNtNtCsbujzjYX0pAI_3rge6vulkan10renderable16device_selectionNtB5_15DeviceSelection8physical
FNDA:24,_RNCNvMs3_NtNtNtCsbujzjYX0pAI_3rge6vulkan10renderable16device_selectionNtB7_15DeviceSelection22present_queue_rankingss_0Bd_
FNDA:12,_RNCNvMs3_NtNtNtCsbujzjYX0pAI_3rge6vulkan10renderable16device_selectionNtB7_15DeviceSelection15device_rankingss_0Bd_
FNDA:12,_RNCNvMs3_NtNtNtCsbujzjYX0pAI_3rge6vulkan10renderable16device_selectionNtB7_15DeviceSelection15device_rankings0Bd_
FNDA:24,_RNCNvMs3_NtNtNtCsbujzjYX0pAI_3rge6vulkan10renderable16device_selectionNtB7_15DeviceSelection23graphics_queue_rankings0Bd_
FNDA:24,_RNCNvMs3_NtNtNtCsbujzjYX0pAI_3rge6vulkan10renderable16device_selectionNtB7_15DeviceSelection22present_queue_rankings0Bd_
FNDA:24,_RNCNvMs3_NtNtNtCsbujzjYX0pAI_3rge6vulkan10renderable16device_selectionNtB7_15DeviceSelection23graphics_queue_rankingss_0Bd_
FNDA:0,_RNvMs3_NtNtNtCslHwOwCUw2lI_3rge6vulkan10renderable16device_selectionNtB5_15DeviceSelection11rank_device
FNDA:0,_RNvMs2_NtNtNtCslHwOwCUw2lI_3rge6vulkan10renderable16device_selectionNtB5_15DeviceSelection18unique_queue_count
FNDA:0,_RNvMs0_NtNtNtCslHwOwCUw2lI_3rge6vulkan10renderable16device_selectionNtB5_15DeviceSelection15graphics_family
FNDA:0,_RNvMs3_NtNtNtCslHwOwCUw2lI_3rge6vulkan10renderable16device_selectionNtB5_15DeviceSelection22present_queue_rankings
FNDA:0,_RNCNvMs3_NtNtNtCslHwOwCUw2lI_3rge6vulkan10renderable16device_selectionNtB7_15DeviceSelection22present_queue_rankings0Bd_
FNDA:0,_RNvMs3_NtNtNtCslHwOwCUw2lI_3rge6vulkan10renderable16device_selectionNtB5_15DeviceSelection18rank_queue_present
FNDA:0,_RNvMs2_NtNtNtCslHwOwCUw2lI_3rge6vulkan10renderable16device_selectionNtB5_15DeviceSelection10queue_mode
FNDA:0,_RNCNvMs3_NtNtNtCslHwOwCUw2lI_3rge6vulkan10renderable16device_selectionNtB7_15DeviceSelection22present_queue_rankingss_0Bd_
FNDA:0,_RNvMs1_NtNtNtCslHwOwCUw2lI_3rge6vulkan10renderable16device_selectionNtB5_15DeviceSelection3new
FNDA:0,_RNvMs3_NtNtNtCslHwOwCUw2lI_3rge6vulkan10renderable16device_selectionNtB5_15DeviceSelection15device_rankings
FNDA:0,_RNvXsa_NtNtNtCslHwOwCUw2lI_3rge6vulkan10renderable16device_selectionNtB5_7RankingNtNtCs1RoSZkFyxqL_4core3fmt5Debug3fmt
FNDA:0,_RNvMs0_NtNtNtCslHwOwCUw2lI_3rge6vulkan10renderable16device_selectionNtB5_15DeviceSelection8physical
FNDA:0,_RNCNvMs3_NtNtNtCslHwOwCUw2lI_3rge6vulkan10renderable16device_selectionNtB7_15DeviceSelection23graphics_queue_rankings0Bd_
FNDA:0,_RNCNvMs3_NtNtNtCslHwOwCUw2lI_3rge6vulkan10renderable16device_selectionNtB7_15DeviceSelection23graphics_queue_rankingss_0Bd_
FNDA:0,_RNvMs0_NtNtNtCslHwOwCUw2lI_3rge6vulkan10renderable16device_selectionNtB5_15DeviceSelection7context
FNDA:0,_RNvMs2_NtNtNtCslHwOwCUw2lI_3rge6vulkan10renderable16device_selectionNtB5_15DeviceSelection13queue_indices
FNDA:0,_RNvMs2_NtNtNtCslHwOwCUw2lI_3rge6vulkan10renderable16device_selectionNtB5_15DeviceSelection13queues_unique
FNDA:0,_RNCNvMs3_NtNtNtCslHwOwCUw2lI_3rge6vulkan10renderable16device_selectionNtB7_15DeviceSelection15device_rankingss_0Bd_
FNDA:0,_RNvXs_NtNtNtCslHwOwCUw2lI_3rge6vulkan10renderable16device_selectionNtB4_7RankingNtNtCs1RoSZkFyxqL_4core3cmp3Ord3cmp
FNDA:0,_RNvMs2_NtNtNtCslHwOwCUw2lI_3rge6vulkan10renderable16device_selectionNtB5_15DeviceSelection22concurrent_queue_count
FNDA:0,_RNvXs4_NtNtNtCslHwOwCUw2lI_3rge6vulkan10renderable16device_selectionNtB5_7RankingNtNtCs1RoSZkFyxqL_4core5clone5Clone5cloneBb_
FNDA:0,_RNCNvMs3_NtNtNtCslHwOwCUw2lI_3rge6vulkan10renderable16device_selectionNtB7_15DeviceSelection15device_rankings0Bd_
FNDA:0,_RNvMs3_NtNtNtCslHwOwCUw2lI_3rge6vulkan10renderable16device_selectionNtB5_15DeviceSelection23graphics_queue_rankings
FNDA:0,_RNvXs7_NtNtNtCslHwOwCUw2lI_3rge6vulkan10renderable16device_selectionNtB5_7RankingNtNtCs1RoSZkFyxqL_4core3cmp9PartialEq2eqBb_
FNDA:0,_RNvMs0_NtNtNtCslHwOwCUw2lI_3rge6vulkan10renderable16device_selectionNtB5_15DeviceSelection14present_family
FNDA:0,_RNvMs3_NtNtNtCslHwOwCUw2lI_3rge6vulkan10renderable16device_selectionNtB5_15DeviceSelection19rank_queue_graphics
FNDA:0,_RNvXNtNtNtCslHwOwCUw2lI_3rge6vulkan10renderable16device_selectionNtB2_7RankingNtNtCs1RoSZkFyxqL_4core3cmp10PartialOrd11partial_cmp
FNF:27
FNH:21
DA:17,0
DA:27,0
DA:28,0
DA:29,0
DA:33,12
DA:34,12
DA:35,12
DA:61,1001
DA:62,1001
DA:63,1001
DA:65,1001
DA:66,1001
DA:67,1001
DA:69,0
DA:70,0
DA:71,0
DA:73,0
DA:74,0
DA:75,0
DA:82,6
DA:83,6
DA:84,6
DA:85,6
DA:86,6
DA:87,6
DA:88,6
DA:89,6
DA:90,6
DA:91,6
DA:92,6
DA:93,6
DA:95,6
DA:96,6
DA:97,6
DA:98,6
DA:100,6
DA:101,6
DA:102,6
DA:103,6
DA:104,6
DA:105,6
DA:106,6
DA:114,252
DA:115,252
DA:116,252
DA:119,82
DA:120,82
DA:121,82
DA:124,82
DA:125,82
DA:126,0
DA:128,82
DA:130,82
DA:133,6
DA:134,6
DA:135,0
DA:137,6
DA:139,6
DA:142,82
DA:143,82
DA:144,0
DA:146,82
DA:148,82
DA:158,12
DA:159,12
DA:160,12
DA:161,12
DA:162,12
DA:163,12
DA:164,12
DA:165,12
DA:166,0
DA:167,12
DA:168,12
DA:169,12
DA:170,0
DA:171,12
DA:172,12
DA:173,12
DA:174,0
DA:175,12
DA:176,12
DA:177,12
DA:178,12
DA:179,12
DA:180,12
DA:181,6
DA:182,6
DA:183,0
DA:184,0
DA:185,0
DA:186,0
DA:189,12
DA:191,12
DA:195,24
DA:196,24
DA:197,24
DA:198,24
DA:199,24
DA:200,24
DA:201,24
DA:202,24
DA:203,24
DA:204,24
DA:205,18
DA:206,6
DA:207,6
DA:208,6
DA:209,6
DA:210,6
DA:211,6
DA:212,6
DA:213,6
DA:215,24
DA:219,24
DA:220,24
DA:221,24
DA:222,24
DA:223,24
DA:224,24
DA:225,24
DA:226,24
DA:227,24
DA:228,24
DA:229,12
DA:230,12
DA:231,12
DA:232,12
DA:233,12
DA:234,12
DA:235,12
DA:236,12
DA:237,12
DA:239,24
DA:244,6
DA:245,6
DA:246,6
DA:247,6
DA:248,6
DA:249,6
DA:250,6
DA:251,12
DA:252,12
DA:253,12
DA:254,12
DA:255,12
DA:256,12
DA:257,12
DA:258,12
DA:259,12
DA:260,12
DA:261,12
DA:262,12
DA:264,6
DA:265,6
DA:266,6
DA:267,6
DA:268,12
DA:269,6
DA:272,6
DA:273,6
DA:274,6
DA:275,6
DA:276,6
DA:277,6
DA:278,24
DA:279,24
DA:280,24
DA:281,24
DA:283,6
DA:284,6
DA:285,6
DA:286,6
DA:287,6
DA:288,24
DA:289,6
DA:292,6
DA:293,6
DA:294,6
DA:295,6
DA:296,6
DA:297,6
DA:298,24
DA:299,24
DA:300,24
DA:301,24
DA:303,6
DA:304,6
DA:305,6
DA:306,6
DA:307,6
DA:308,24
DA:309,6
BRF:0
BRH:0
LF:201
LH:179
end_of_record
SF:C:\Users\luigi\College\Spring 2023\Capstone\EricGrandizio\rge\src\vulkan\renderable\ds_info.rs
FN:93,_RNCNCNvMs_NtNtNtCsbujzjYX0pAI_3rge6vulkan10renderable7ds_infoNtB8_17DeviceSurfaceInfo10ideal_mode00Be_
FN:77,_RNCNvMs_NtNtNtCsbujzjYX0pAI_3rge6vulkan10renderable7ds_infoNtB6_17DeviceSurfaceInfo12ideal_format0Bc_
FN:78,_RNCNCNvMs_NtNtNtCsbujzjYX0pAI_3rge6vulkan10renderable7ds_infoNtB8_17DeviceSurfaceInfo12ideal_format00Be_
FN:38,_RNCNvMNtNtNtCsbujzjYX0pAI_3rge6vulkan10renderable7ds_infoNtB4_17DeviceSurfaceInfo3new0Ba_
FN:93,_RNCNvMs_NtNtNtCsbujzjYX0pAI_3rge6vulkan10renderable7ds_infoNtB6_17DeviceSurfaceInfo10ideal_mode0Bc_
FN:34,_RNvMNtNtNtCsbujzjYX0pAI_3rge6vulkan10renderable7ds_infoNtB2_17DeviceSurfaceInfo3new
FN:91,_RNvMs_NtNtNtCsbujzjYX0pAI_3rge6vulkan10renderable7ds_infoNtB4_17DeviceSurfaceInfo10ideal_mode
FN:154,_RNvMs_NtNtNtCsbujzjYX0pAI_3rge6vulkan10renderable7ds_infoNtB4_17DeviceSurfaceInfo22ideal_viewport_scissor
FN:76,_RNvMs_NtNtNtCsbujzjYX0pAI_3rge6vulkan10renderable7ds_infoNtB4_17DeviceSurfaceInfo12ideal_format
FN:116,_RNvMs_NtNtNtCsbujzjYX0pAI_3rge6vulkan10renderable7ds_infoNtB4_17DeviceSurfaceInfo16ideal_resolution
FN:38,_RNCNvMNtNtNtCslHwOwCUw2lI_3rge6vulkan10renderable7ds_infoNtB4_17DeviceSurfaceInfo3new0Ba_
FN:93,_RNCNCNvMs_NtNtNtCslHwOwCUw2lI_3rge6vulkan10renderable7ds_infoNtB8_17DeviceSurfaceInfo10ideal_mode00Be_
FN:93,_RNCNvMs_NtNtNtCslHwOwCUw2lI_3rge6vulkan10renderable7ds_infoNtB6_17DeviceSurfaceInfo10ideal_mode0Bc_
FN:116,_RNvMs_NtNtNtCslHwOwCUw2lI_3rge6vulkan10renderable7ds_infoNtB4_17DeviceSurfaceInfo16ideal_resolution
FN:91,_RNvMs_NtNtNtCslHwOwCUw2lI_3rge6vulkan10renderable7ds_infoNtB4_17DeviceSurfaceInfo10ideal_mode
FN:77,_RNCNvMs_NtNtNtCslHwOwCUw2lI_3rge6vulkan10renderable7ds_infoNtB6_17DeviceSurfaceInfo12ideal_format0Bc_
FN:76,_RNvMs_NtNtNtCslHwOwCUw2lI_3rge6vulkan10renderable7ds_infoNtB4_17DeviceSurfaceInfo12ideal_format
FN:78,_RNCNCNvMs_NtNtNtCslHwOwCUw2lI_3rge6vulkan10renderable7ds_infoNtB8_17DeviceSurfaceInfo12ideal_format00Be_
FN:34,_RNvMNtNtNtCslHwOwCUw2lI_3rge6vulkan10renderable7ds_infoNtB2_17DeviceSurfaceInfo3new
FN:154,_RNvMs_NtNtNtCslHwOwCUw2lI_3rge6vulkan10renderable7ds_infoNtB4_17DeviceSurfaceInfo22ideal_viewport_scissor
FNDA:820,_RNCNCNvMs_NtNtNtCsbujzjYX0pAI_3rge6vulkan10renderable7ds_infoNtB8_17DeviceSurfaceInfo10ideal_mode00Be_
FNDA:334,_RNCNvMs_NtNtNtCsbujzjYX0pAI_3rge6vulkan10renderable7ds_infoNtB6_17DeviceSurfaceInfo12ideal_format0Bc_
FNDA:668,_RNCNCNvMs_NtNtNtCsbujzjYX0pAI_3rge6vulkan10renderable7ds_infoNtB8_17DeviceSurfaceInfo12ideal_format00Be_
FNDA:418,_RNCNvMNtNtNtCsbujzjYX0pAI_3rge6vulkan10renderable7ds_infoNtB4_17DeviceSurfaceInfo3new0Ba_
FNDA:328,_RNCNvMs_NtNtNtCsbujzjYX0pAI_3rge6vulkan10renderable7ds_infoNtB6_17DeviceSurfaceInfo10ideal_mode0Bc_
FNDA:106,_RNvMNtNtNtCsbujzjYX0pAI_3rge6vulkan10renderable7ds_infoNtB2_17DeviceSurfaceInfo3new
FNDA:82,_RNvMs_NtNtNtCsbujzjYX0pAI_3rge6vulkan10renderable7ds_infoNtB4_17DeviceSurfaceInfo10ideal_mode
FNDA:7810,_RNvMs_NtNtNtCsbujzjYX0pAI_3rge6vulkan10renderable7ds_infoNtB4_17DeviceSurfaceInfo22ideal_viewport_scissor
FNDA:334,_RNvMs_NtNtNtCsbujzjYX0pAI_3rge6vulkan10renderable7ds_infoNtB4_17DeviceSurfaceInfo12ideal_format
FNDA:15936,_RNvMs_NtNtNtCsbujzjYX0pAI_3rge6vulkan10renderable7ds_infoNtB4_17DeviceSurfaceInfo16ideal_resolution
FNDA:0,_RNCNvMNtNtNtCslHwOwCUw2lI_3rge6vulkan10renderable7ds_infoNtB4_17DeviceSurfaceInfo3new0Ba_
FNDA:0,_RNCNCNvMs_NtNtNtCslHwOwCUw2lI_3rge6vulkan10renderable7ds_infoNtB8_17DeviceSurfaceInfo10ideal_mode00Be_
FNDA:0,_RNCNvMs_NtNtNtCslHwOwCUw2lI_3rge6vulkan10renderable7ds_infoNtB6_17DeviceSurfaceInfo10ideal_mode0Bc_
FNDA:0,_RNvMs_NtNtNtCslHwOwCUw2lI_3rge6vulkan10renderable7ds_infoNtB4_17DeviceSurfaceInfo16ideal_resolution
FNDA:0,_RNvMs_NtNtNtCslHwOwCUw2lI_3rge6vulkan10renderable7ds_infoNtB4_17DeviceSurfaceInfo10ideal_mode
FNDA:0,_RNCNvMs_NtNtNtCslHwOwCUw2lI_3rge6vulkan10renderable7ds_infoNtB6_17DeviceSurfaceInfo12ideal_format0Bc_
FNDA:0,_RNvMs_NtNtNtCslHwOwCUw2lI_3rge6vulkan10renderable7ds_infoNtB4_17DeviceSurfaceInfo12ideal_format
FNDA:0,_RNCNCNvMs_NtNtNtCslHwOwCUw2lI_3rge6vulkan10renderable7ds_infoNtB8_17DeviceSurfaceInfo12ideal_format00Be_
FNDA:0,_RNvMNtNtNtCslHwOwCUw2lI_3rge6vulkan10renderable7ds_infoNtB2_17DeviceSurfaceInfo3new
FNDA:0,_RNvMs_NtNtNtCslHwOwCUw2lI_3rge6vulkan10renderable7ds_infoNtB4_17DeviceSurfaceInfo22ideal_viewport_scissor
FNF:10
FNH:10
DA:34,106
DA:35,106
DA:36,106
DA:37,106
DA:38,418
DA:39,418
DA:40,418
DA:41,418
DA:42,418
DA:43,418
DA:44,418
DA:45,418
DA:46,106
DA:47,106
DA:48,106
DA:49,106
DA:50,106
DA:51,106
DA:52,106
DA:53,106
DA:54,106
DA:55,106
DA:56,106
DA:57,106
DA:58,106
DA:59,106
DA:60,106
DA:61,106
DA:62,106
DA:63,106
DA:64,106
DA:65,106
DA:66,106
DA:67,106
DA:68,106
DA:69,106
DA:76,334
DA:77,334
DA:78,668
DA:79,668
DA:80,668
DA:81,334
DA:83,334
DA:84,334
DA:85,334
DA:86,334
DA:87,334
DA:91,82
DA:92,82
DA:93,820
DA:96,82
DA:97,82
DA:98,82
DA:99,82
DA:100,82
DA:101,82
DA:102,82
DA:103,82
DA:104,82
DA:105,82
DA:106,82
DA:107,82
DA:108,79
DA:110,3
DA:113,82
DA:116,15936
DA:117,15936
DA:118,15936
DA:119,15936
DA:120,15936
DA:121,15936
DA:122,15936
DA:123,15936
DA:124,15936
DA:125,15936
DA:126,15936
DA:127,15936
DA:128,15936
DA:129,15936
DA:130,15936
DA:131,0
DA:133,15936
DA:134,15936
DA:135,15936
DA:136,15936
DA:137,15936
DA:138,15936
DA:139,15936
DA:140,15936
DA:141,15936
DA:142,15936
DA:143,15936
DA:144,15936
DA:145,15936
DA:146,15936
DA:147,15936
DA:148,15936
DA:149,15936
DA:151,15936
DA:154,7810
DA:155,7810
DA:156,7810
DA:157,7810
DA:158,7810
DA:159,7810
DA:160,7810
DA:161,7810
DA:162,7810
DA:163,7810
DA:164,7810
DA:165,7810
DA:166,7810
DA:167,7810
DA:168,7810
DA:169,7810
DA:170,7810
DA:171,7810
DA:172,7810
BRF:0
BRH:0
LF:124
LH:123
end_of_record
SF:C:\Users\luigi\College\Spring 2023\Capstone\EricGrandizio\rge\src\vulkan\renderable\frames.rs
FN:131,_RNvXs0_NtNtNtCsbujzjYX0pAI_3rge6vulkan10renderable6framesNtB5_5FrameNtNtNtCs1RoSZkFyxqL_4core3ops4drop4Drop4drop
FN:42,_RNvMNtNtNtCsbujzjYX0pAI_3rge6vulkan10renderable6framesNtB2_5Frame6device
FN:193,_RNvMs1_NtNtNtCsbujzjYX0pAI_3rge6vulkan10renderable6framesNtB5_6Frames6update
FN:55,_RNvMs_NtNtNtCsbujzjYX0pAI_3rge6vulkan10renderable6framesNtB4_5Frame3new
FN:46,_RNvMNtNtNtCsbujzjYX0pAI_3rge6vulkan10renderable6framesNtB2_5Frame10ash_device
FN:164,_RNvMs1_NtNtNtCsbujzjYX0pAI_3rge6vulkan10renderable6framesNtB5_6Frames7collect
FN:107,_RNvMs_NtNtNtCsbujzjYX0pAI_3rge6vulkan10renderable6framesNtB4_5Frame13create_buffer
FN:86,_RNvMs_NtNtNtCsbujzjYX0pAI_3rge6vulkan10renderable6framesNtB4_5Frame11create_view
FN:214,_RNCNvMs1_NtNtNtCsbujzjYX0pAI_3rge6vulkan10renderable6framesNtB7_6Frames6update0Bd_
FN:180,_RNCNvMs1_NtNtNtCsbujzjYX0pAI_3rge6vulkan10renderable6framesNtB7_6Frames7collect0Bd_
FN:131,_RNvXs0_NtNtNtCslHwOwCUw2lI_3rge6vulkan10renderable6framesNtB5_5FrameNtNtNtCs1RoSZkFyxqL_4core3ops4drop4Drop4drop
FN:214,_RNCNvMs1_NtNtNtCslHwOwCUw2lI_3rge6vulkan10renderable6framesNtB7_6Frames6update0Bd_
FN:107,_RNvMs_NtNtNtCslHwOwCUw2lI_3rge6vulkan10renderable6framesNtB4_5Frame13create_buffer
FN:46,_RNvMNtNtNtCslHwOwCUw2lI_3rge6vulkan10renderable6framesNtB2_5Frame10ash_device
FN:164,_RNvMs1_NtNtNtCslHwOwCUw2lI_3rge6vulkan10renderable6framesNtB5_6Frames7collect
FN:180,_RNCNvMs1_NtNtNtCslHwOwCUw2lI_3rge6vulkan10renderable6framesNtB7_6Frames7collect0Bd_
FN:55,_RNvMs_NtNtNtCslHwOwCUw2lI_3rge6vulkan10renderable6framesNtB4_5Frame3new
FN:193,_RNvMs1_NtNtNtCslHwOwCUw2lI_3rge6vulkan10renderable6framesNtB5_6Frames6update
FN:42,_RNvMNtNtNtCslHwOwCUw2lI_3rge6vulkan10renderable6framesNtB2_5Frame6device
FN:86,_RNvMs_NtNtNtCslHwOwCUw2lI_3rge6vulkan10renderable6framesNtB4_5Frame11create_view
FNDA:246,_RNvXs0_NtNtNtCsbujzjYX0pAI_3rge6vulkan10renderable6framesNtB5_5FrameNtNtNtCs1RoSZkFyxqL_4core3ops4drop4Drop4drop
FNDA:246,_RNvMNtNtNtCsbujzjYX0pAI_3rge6vulkan10renderable6framesNtB2_5Frame6device
FNDA:76,_RNvMs1_NtNtNtCsbujzjYX0pAI_3rge6vulkan10renderable6framesNtB5_6Frames6update
FNDA:246,_RNvMs_NtNtNtCsbujzjYX0pAI_3rge6vulkan10renderable6framesNtB4_5Frame3new
FNDA:246,_RNvMNtNtNtCsbujzjYX0pAI_3rge6vulkan10renderable6framesNtB2_5Frame10ash_device
FNDA:6,_RNvMs1_NtNtNtCsbujzjYX0pAI_3rge6vulkan10renderable6framesNtB5_6Frames7collect
FNDA:246,_RNvMs_NtNtNtCsbujzjYX0pAI_3rge6vulkan10renderable6framesNtB4_5Frame13create_buffer
FNDA:246,_RNvMs_NtNtNtCsbujzjYX0pAI_3rge6vulkan10renderable6framesNtB4_5Frame11create_view
FNDA:228,_RNCNvMs1_NtNtNtCsbujzjYX0pAI_3rge6vulkan10renderable6framesNtB7_6Frames6update0Bd_
FNDA:18,_RNCNvMs1_NtNtNtCsbujzjYX0pAI_3rge6vulkan10renderable6framesNtB7_6Frames7collect0Bd_
FNDA:0,_RNvXs0_NtNtNtCslHwOwCUw2lI_3rge6vulkan10renderable6framesNtB5_5FrameNtNtNtCs1RoSZkFyxqL_4core3ops4drop4Drop4drop
FNDA:0,_RNCNvMs1_NtNtNtCslHwOwCUw2lI_3rge6vulkan10renderable6framesNtB7_6Frames6update0Bd_
FNDA:0,_RNvMs_NtNtNtCslHwOwCUw2lI_3rge6vulkan10renderable6framesNtB4_5Frame13create_buffer
FNDA:0,_RNvMNtNtNtCslHwOwCUw2lI_3rge6vulkan10renderable6framesNtB2_5Frame10ash_device
FNDA:0,_RNvMs1_NtNtNtCslHwOwCUw2lI_3rge6vulkan10renderable6framesNtB5_6Frames7collect
FNDA:0,_RNCNvMs1_NtNtNtCslHwOwCUw2lI_3rge6vulkan10renderable6framesNtB7_6Frames7collect0Bd_
FNDA:0,_RNvMs_NtNtNtCslHwOwCUw2lI_3rge6vulkan10renderable6framesNtB4_5Frame3new
FNDA:0,_RNvMs1_NtNtNtCslHwOwCUw2lI_3rge6vulkan10renderable6framesNtB5_6Frames6update
FNDA:0,_RNvMNtNtNtCslHwOwCUw2lI_3rge6vulkan10renderable6framesNtB2_5Frame6device
FNDA:0,_RNvMs_NtNtNtCslHwOwCUw2lI_3rge6vulkan10renderable6framesNtB4_5Frame11create_view
FNF:10
FNH:10
DA:42,246
DA:43,246
DA:44,246
DA:46,246
DA:47,246
DA:48,246
DA:55,246
DA:56,246
DA:57,246
DA:58,246
DA:59,246
DA:60,246
DA:61,246
DA:62,246
DA:63,246
DA:64,246
DA:65,246
DA:66,246
DA:67,246
DA:68,246
DA:69,246
DA:70,246
DA:71,246
DA:72,246
DA:73,246
DA:74,246
DA:75,246
DA:76,246
DA:77,246
DA:78,246
DA:79,246
DA:80,246
DA:81,246
DA:82,246
DA:83,246
DA:86,246
DA:87,246
DA:88,246
DA:89,246
DA:90,246
DA:91,246
DA:92,246
DA:93,246
DA:94,246
DA:95,246
DA:96,246
DA:97,246
DA:98,246
DA:99,246
DA:100,246
DA:101,246
DA:102,246
DA:103,246
DA:104,246
DA:107,246
DA:108,246
DA:109,246
DA:110,246
DA:111,246
DA:112,246
DA:113,246
DA:114,246
DA:115,246
DA:116,246
DA:117,246
DA:118,246
DA:119,246
DA:120,246
DA:121,246
DA:122,246
DA:123,246
DA:124,246
DA:125,246
DA:126,246
DA:127,246
DA:131,246
DA:132,246
DA:133,246
DA:134,246
DA:135,246
DA:136,246
DA:137,246
DA:139,246
DA:140,246
DA:141,246
DA:143,246
DA:164,6
DA:165,6
DA:166,6
DA:167,6
DA:168,6
DA:169,6
DA:170,6
DA:171,6
DA:172,6
DA:173,6
DA:174,6
DA:175,6
DA:176,6
DA:177,6
DA:178,6
DA:179,6
DA:180,18
DA:181,18
DA:182,18
DA:183,6
DA:184,6
DA:185,6
DA:186,6
DA:187,6
DA:188,6
DA:189,6
DA:190,6
DA:193,76
DA:194,76
DA:195,76
DA:196,76
DA:197,76
DA:198,76
DA:199,76
DA:200,76
DA:201,76
DA:202,76
DA:203,76
DA:204,76
DA:205,76
DA:206,76
DA:207,76
DA:208,76
DA:209,76
DA:210,76
DA:211,76
DA:212,76
DA:213,76
DA:214,228
DA:215,228
DA:216,228
DA:217,76
DA:218,76
BRF:0
BRH:0
LF:143
LH:143
end_of_record
SF:C:\Users\luigi\College\Spring 2023\Capstone\EricGrandizio\rge\src\vulkan\renderable\logical_device.rs
FN:83,_RNvXs_NtNtNtCsbujzjYX0pAI_3rge6vulkan10renderable14logical_deviceNtB4_13LogicalDeviceNtNtNtCs1RoSZkFyxqL_4core3ops4drop4Drop4drop
FN:32,_RNvMNtNtNtCsbujzjYX0pAI_3rge6vulkan10renderable14logical_deviceNtB2_13LogicalDevice3new
FN:83,_RNvXs_NtNtNtCslHwOwCUw2lI_3rge6vulkan10renderable14logical_deviceNtB4_13LogicalDeviceNtNtNtCs1RoSZkFyxqL_4core3ops4drop4Drop4drop
FN:32,_RNvMNtNtNtCslHwOwCUw2lI_3rge6vulkan10renderable14logical_deviceNtB2_13LogicalDevice3new
FNDA:6,_RNvXs_NtNtNtCsbujzjYX0pAI_3rge6vulkan10renderable14logical_deviceNtB4_13LogicalDeviceNtNtNtCs1RoSZkFyxqL_4core3ops4drop4Drop4drop
FNDA:6,_RNvMNtNtNtCsbujzjYX0pAI_3rge6vulkan10renderable14logical_deviceNtB2_13LogicalDevice3new
FNDA:0,_RNvXs_NtNtNtCslHwOwCUw2lI_3rge6vulkan10renderable14logical_deviceNtB4_13LogicalDeviceNtNtNtCs1RoSZkFyxqL_4core3ops4drop4Drop4drop
FNDA:0,_RNvMNtNtNtCslHwOwCUw2lI_3rge6vulkan10renderable14logical_deviceNtB2_13LogicalDevice3new
FNF:2
FNH:2
DA:32,6
DA:33,6
DA:34,6
DA:35,6
DA:36,6
DA:37,6
DA:38,6
DA:39,6
DA:40,6
DA:41,6
DA:42,6
DA:43,6
DA:44,6
DA:45,6
DA:46,6
DA:47,6
DA:48,6
DA:49,6
DA:50,6
DA:51,6
DA:52,6
DA:53,6
DA:54,6
DA:55,6
DA:56,6
DA:57,6
DA:58,6
DA:59,6
DA:60,6
DA:61,6
DA:62,6
DA:63,6
DA:64,6
DA:65,6
DA:66,6
DA:67,6
DA:68,6
DA:69,6
DA:70,6
DA:71,6
DA:72,6
DA:73,6
DA:74,6
DA:75,6
DA:76,6
DA:77,6
DA:78,6
DA:79,6
DA:83,6
DA:84,6
DA:85,6
BRF:0
BRH:0
LF:51
LH:51
end_of_record
SF:C:\Users\luigi\College\Spring 2023\Capstone\EricGrandizio\rge\src\vulkan\renderable\mod.rs
FN:144,_RNvXs0_NtNtCsbujzjYX0pAI_3rge6vulkan10renderableNtB5_16VulkanRenderableNtNtNtCs1RoSZkFyxqL_4core3ops4drop4Drop4drop
FN:81,_RNvMNtNtCsbujzjYX0pAI_3rge6vulkan10renderableNtB2_16VulkanRenderable7context
FN:94,_RNvMs_NtNtCsbujzjYX0pAI_3rge6vulkan10renderableNtB4_16VulkanRenderable3new
FN:85,_RNvMNtNtCsbujzjYX0pAI_3rge6vulkan10renderableNtB2_16VulkanRenderable6device
FN:81,_RNvMNtNtCslHwOwCUw2lI_3rge6vulkan10renderableNtB2_16VulkanRenderable7context
FN:144,_RNvXs0_NtNtCslHwOwCUw2lI_3rge6vulkan10renderableNtB5_16VulkanRenderableNtNtNtCs1RoSZkFyxqL_4core3ops4drop4Drop4drop
FN:85,_RNvMNtNtCslHwOwCUw2lI_3rge6vulkan10renderableNtB2_16VulkanRenderable6device
FN:94,_RNvMs_NtNtCslHwOwCUw2lI_3rge6vulkan10renderableNtB4_16VulkanRenderable3new
FNDA:6,_RNvXs0_NtNtCsbujzjYX0pAI_3rge6vulkan10renderableNtB5_16VulkanRenderableNtNtNtCs1RoSZkFyxqL_4core3ops4drop4Drop4drop
FNDA:0,_RNvMNtNtCsbujzjYX0pAI_3rge6vulkan10renderableNtB2_16VulkanRenderable7context
FNDA:6,_RNvMs_NtNtCsbujzjYX0pAI_3rge6vulkan10renderableNtB4_16VulkanRenderable3new
FNDA:33082,_RNvMNtNtCsbujzjYX0pAI_3rge6vulkan10renderableNtB2_16VulkanRenderable6device
FNDA:0,_RNvMNtNtCslHwOwCUw2lI_3rge6vulkan10renderableNtB2_16VulkanRenderable7context
FNDA:0,_RNvXs0_NtNtCslHwOwCUw2lI_3rge6vulkan10renderableNtB5_16VulkanRenderableNtNtNtCs1RoSZkFyxqL_4core3ops4drop4Drop4drop
FNDA:0,_RNvMNtNtCslHwOwCUw2lI_3rge6vulkan10renderableNtB2_16VulkanRenderable6device
FNDA:0,_RNvMs_NtNtCslHwOwCUw2lI_3rge6vulkan10renderableNtB4_16VulkanRenderable3new
FNF:4
FNH:3
DA:81,0
DA:82,0
DA:83,0
DA:85,33082
DA:86,33082
DA:87,33082
DA:94,6
DA:95,6
DA:96,6
DA:97,6
DA:98,6
DA:99,6
DA:100,6
DA:101,6
DA:102,6
DA:103,6
DA:104,6
DA:105,6
DA:106,6
DA:107,6
DA:108,6
DA:109,6
DA:110,6
DA:111,6
DA:112,6
DA:113,6
DA:114,6
DA:115,6
DA:116,6
DA:117,6
DA:118,6
DA:119,6
DA:120,6
DA:121,6
DA:122,6
DA:123,6
DA:124,6
DA:125,6
DA:126,6
DA:127,6
DA:128,6
DA:129,6
DA:130,6
DA:131,6
DA:132,6
DA:133,6
DA:134,6
DA:135,6
DA:136,6
DA:137,6
DA:138,6
DA:139,6
DA:140,6
DA:144,6
DA:145,6
DA:146,6
DA:147,6
BRF:0
BRH:0
LF:57
LH:54
end_of_record
SF:C:\Users\luigi\College\Spring 2023\Capstone\EricGrandizio\rge\src\vulkan\renderable\surface.rs
FN:109,_RNvXs0_NtNtNtCsbujzjYX0pAI_3rge6vulkan10renderable7surfaceNtB5_7SurfaceNtNtNtCs1RoSZkFyxqL_4core3ops4drop4Drop4drop
FN:39,_RNvMNtNtNtCsbujzjYX0pAI_3rge6vulkan10renderable7surfaceNtB2_7Surface11surface_ext
FN:94,_RNvMs_NtNtNtCsbujzjYX0pAI_3rge6vulkan10renderable7surfaceNtB4_7Surface11window_size
FN:43,_RNvMNtNtNtCsbujzjYX0pAI_3rge6vulkan10renderable7surfaceNtB2_7Surface10native_ext
FN:53,_RNvMs_NtNtNtCsbujzjYX0pAI_3rge6vulkan10renderable7surfaceNtB4_7Surface3new
FN:89,_RNvMs_NtNtNtCsbujzjYX0pAI_3rge6vulkan10renderable7surfaceNtB4_7Surface9real_size
FN:39,_RNvMNtNtNtCslHwOwCUw2lI_3rge6vulkan10renderable7surfaceNtB2_7Surface11surface_ext
FN:109,_RNvXs0_NtNtNtCslHwOwCUw2lI_3rge6vulkan10renderable7surfaceNtB5_7SurfaceNtNtNtCs1RoSZkFyxqL_4core3ops4drop4Drop4drop
FN:89,_RNvMs_NtNtNtCslHwOwCUw2lI_3rge6vulkan10renderable7surfaceNtB4_7Surface9real_size
FN:53,_RNvMs_NtNtNtCslHwOwCUw2lI_3rge6vulkan10renderable7surfaceNtB4_7Surface3new
FN:43,_RNvMNtNtNtCslHwOwCUw2lI_3rge6vulkan10renderable7surfaceNtB2_7Surface10native_ext
FN:94,_RNvMs_NtNtNtCslHwOwCUw2lI_3rge6vulkan10renderable7surfaceNtB4_7Surface11window_size
FNDA:6,_RNvXs0_NtNtNtCsbujzjYX0pAI_3rge6vulkan10renderable7surfaceNtB5_7SurfaceNtNtNtCs1RoSZkFyxqL_4core3ops4drop4Drop4drop
FNDA:112,_RNvMNtNtNtCsbujzjYX0pAI_3rge6vulkan10renderable7surfaceNtB2_7Surface11surface_ext
FNDA:7843,_RNvMs_NtNtNtCsbujzjYX0pAI_3rge6vulkan10renderable7surfaceNtB4_7Surface11window_size
FNDA:0,_RNvMNtNtNtCsbujzjYX0pAI_3rge6vulkan10renderable7surfaceNtB2_7Surface10native_ext
FNDA:6,_RNvMs_NtNtNtCsbujzjYX0pAI_3rge6vulkan10renderable7surfaceNtB4_7Surface3new
FNDA:7837,_RNvMs_NtNtNtCsbujzjYX0pAI_3rge6vulkan10renderable7surfaceNtB4_7Surface9real_size
FNDA:0,_RNvMNtNtNtCslHwOwCUw2lI_3rge6vulkan10renderable7surfaceNtB2_7Surface11surface_ext
FNDA:0,_RNvXs0_NtNtNtCslHwOwCUw2lI_3rge6vulkan10renderable7surfaceNtB5_7SurfaceNtNtNtCs1RoSZkFyxqL_4core3ops4drop4Drop4drop
FNDA:0,_RNvMs_NtNtNtCslHwOwCUw2lI_3rge6vulkan10renderable7surfaceNtB4_7Surface9real_size
FNDA:0,_RNvMs_NtNtNtCslHwOwCUw2lI_3rge6vulkan10renderable7surfaceNtB4_7Surface3new
FNDA:0,_RNvMNtNtNtCslHwOwCUw2lI_3rge6vulkan10renderable7surfaceNtB2_7Surface10native_ext
FNDA:0,_RNvMs_NtNtNtCslHwOwCUw2lI_3rge6vulkan10renderable7surfaceNtB4_7Surface11window_size
FNF:6
FNH:5
DA:39,112
DA:40,112
DA:41,112
DA:43,0
DA:44,0
DA:45,0
DA:53,6
DA:54,6
DA:55,6
DA:56,6
DA:57,6
DA:58,6
DA:59,6
DA:61,6
DA:62,6
DA:64,6
DA:65,6
DA:66,6
DA:67,6
DA:68,6
DA:69,6
DA:70,6
DA:71,6
DA:72,6
DA:73,6
DA:74,6
DA:75,6
DA:76,6
DA:77,6
DA:78,6
DA:79,6
DA:80,6
DA:81,6
DA:82,6
DA:83,6
DA:84,6
DA:85,6
DA:86,6
DA:89,7837
DA:90,7837
DA:91,7837
DA:94,7843
DA:95,7843
DA:96,7843
DA:97,7843
DA:99,7843
DA:100,7843
DA:101,7843
DA:102,7843
DA:103,7843
DA:109,6
DA:110,6
DA:111,6
BRF:0
BRH:0
LF:53
LH:50
end_of_record
SF:C:\Users\luigi\College\Spring 2023\Capstone\EricGrandizio\rge\src\vulkan\renderable\swapchain.rs
FN:110,_RNvXs0_NtNtNtCsbujzjYX0pAI_3rge6vulkan10renderable9swapchainNtB5_9SwapchainNtNtNtCs1RoSZkFyxqL_4core3ops4drop4Drop4drop
FN:34,_RNvMNtNtNtCsbujzjYX0pAI_3rge6vulkan10renderable9swapchainNtB2_9Swapchain3ext
FN:44,_RNvMs_NtNtNtCsbujzjYX0pAI_3rge6vulkan10renderable9swapchainNtB4_9Swapchain3new
FN:119,_RNvMs1_NtNtNtCsbujzjYX0pAI_3rge6vulkan10renderable9swapchainNtB5_9Swapchain14collect_images
FN:110,_RNvXs0_NtNtNtCslHwOwCUw2lI_3rge6vulkan10renderable9swapchainNtB5_9SwapchainNtNtNtCs1RoSZkFyxqL_4core3ops4drop4Drop4drop
FN:44,_RNvMs_NtNtNtCslHwOwCUw2lI_3rge6vulkan10renderable9swapchainNtB4_9Swapchain3new
FN:119,_RNvMs1_NtNtNtCslHwOwCUw2lI_3rge6vulkan10renderable9swapchainNtB5_9Swapchain14collect_images
FN:34,_RNvMNtNtNtCslHwOwCUw2lI_3rge6vulkan10renderable9swapchainNtB2_9Swapchain3ext
FNDA:82,_RNvXs0_NtNtNtCsbujzjYX0pAI_3rge6vulkan10renderable9swapchainNtB5_9SwapchainNtNtNtCs1RoSZkFyxqL_4core3ops4drop4Drop4drop
FNDA:15760,_RNvMNtNtNtCsbujzjYX0pAI_3rge6vulkan10renderable9swapchainNtB2_9Swapchain3ext
FNDA:82,_RNvMs_NtNtNtCsbujzjYX0pAI_3rge6vulkan10renderable9swapchainNtB4_9Swapchain3new
FNDA:82,_RNvMs1_NtNtNtCsbujzjYX0pAI_3rge6vulkan10renderable9swapchainNtB5_9Swapchain14collect_images
FNDA:0,_RNvXs0_NtNtNtCslHwOwCUw2lI_3rge6vulkan10renderable9swapchainNtB5_9SwapchainNtNtNtCs1RoSZkFyxqL_4core3ops4drop4Drop4drop
FNDA:0,_RNvMs_NtNtNtCslHwOwCUw2lI_3rge6vulkan10renderable9swapchainNtB4_9Swapchain3new
FNDA:0,_RNvMs1_NtNtNtCslHwOwCUw2lI_3rge6vulkan10renderable9swapchainNtB5_9Swapchain14collect_images
FNDA:0,_RNvMNtNtNtCslHwOwCUw2lI_3rge6vulkan10renderable9swapchainNtB2_9Swapchain3ext
FNF:4
FNH:4
DA:34,15760
DA:35,15760
DA:36,15760
DA:44,82
DA:45,82
DA:46,82
DA:47,82
DA:48,82
DA:49,82
DA:50,82
DA:51,82
DA:52,82
DA:53,82
DA:54,82
DA:55,82
DA:56,82
DA:59,82
DA:60,0
DA:62,82
DA:65,82
DA:66,82
DA:67,82
DA:68,82
DA:69,82
DA:70,82
DA:71,82
DA:72,82
DA:73,0
DA:75,82
DA:78,82
DA:79,82
DA:80,82
DA:81,82
DA:82,82
DA:83,82
DA:84,82
DA:85,82
DA:86,82
DA:87,82
DA:88,82
DA:89,82
DA:90,82
DA:91,82
DA:92,82
DA:93,82
DA:94,82
DA:95,82
DA:96,82
DA:97,82
DA:98,82
DA:99,82
DA:100,82
DA:101,82
DA:102,82
DA:103,82
DA:104,82
DA:105,82
DA:106,82
DA:110,82
DA:111,82
DA:112,82
DA:119,82
DA:120,82
DA:121,82
DA:122,82
BRF:0
BRH:0
LF:65
LH:63
end_of_record
SF:C:\Users\luigi\College\Spring 2023\Capstone\EricGrandizio\rge\src\vulkan\renderable\sync.rs
FN:117,_RNvXs3_NtNtNtCsbujzjYX0pAI_3rge6vulkan10renderable4syncNtB5_5FenceNtNtNtCs1RoSZkFyxqL_4core3ops4drop4Drop4drop
FN:59,_RNvXs0_NtNtNtCsbujzjYX0pAI_3rge6vulkan10renderable4syncNtB5_9SemaphoreNtNtNtCs1RoSZkFyxqL_4core3ops4drop4Drop4drop
FN:31,_RNvMNtNtNtCsbujzjYX0pAI_3rge6vulkan10renderable4syncNtB2_9Semaphore6device
FN:82,_RNvMs1_NtNtNtCsbujzjYX0pAI_3rge6vulkan10renderable4syncNtB5_5Fence6device
FN:95,_RNvMs2_NtNtNtCsbujzjYX0pAI_3rge6vulkan10renderable4syncNtB5_5Fence3new
FN:44,_RNvMs_NtNtNtCsbujzjYX0pAI_3rge6vulkan10renderable4syncNtB4_9Semaphore3new
FN:86,_RNvMs1_NtNtNtCsbujzjYX0pAI_3rge6vulkan10renderable4syncNtB5_5Fence10ash_device
FN:35,_RNvMNtNtNtCsbujzjYX0pAI_3rge6vulkan10renderable4syncNtB2_9Semaphore10ash_device
FN:140,_RNvMs4_NtNtNtCsbujzjYX0pAI_3rge6vulkan10renderable4syncNtB5_4Sync3new
FN:82,_RNvMs1_NtNtNtCslHwOwCUw2lI_3rge6vulkan10renderable4syncNtB5_5Fence6device
FN:44,_RNvMs_NtNtNtCslHwOwCUw2lI_3rge6vulkan10renderable4syncNtB4_9Semaphore3new
FN:31,_RNvMNtNtNtCslHwOwCUw2lI_3rge6vulkan10renderable4syncNtB2_9Semaphore6device
FN:35,_RNvMNtNtNtCslHwOwCUw2lI_3rge6vulkan10renderable4syncNtB2_9Semaphore10ash_device
FN:95,_RNvMs2_NtNtNtCslHwOwCUw2lI_3rge6vulkan10renderable4syncNtB5_5Fence3new
FN:140,_RNvMs4_NtNtNtCslHwOwCUw2lI_3rge6vulkan10renderable4syncNtB5_4Sync3new
FN:59,_RNvXs0_NtNtNtCslHwOwCUw2lI_3rge6vulkan10renderable4syncNtB5_9SemaphoreNtNtNtCs1RoSZkFyxqL_4core3ops4drop4Drop4drop
FN:86,_RNvMs1_NtNtNtCslHwOwCUw2lI_3rge6vulkan10renderable4syncNtB5_5Fence10ash_device
FN:117,_RNvXs3_NtNtNtCslHwOwCUw2lI_3rge6vulkan10renderable4syncNtB5_5FenceNtNtNtCs1RoSZkFyxqL_4core3ops4drop4Drop4drop
FNDA:246,_RNvXs3_NtNtNtCsbujzjYX0pAI_3rge6vulkan10renderable4syncNtB5_5FenceNtNtNtCs1RoSZkFyxqL_4core3ops4drop4Drop4drop
FNDA:492,_RNvXs0_NtNtNtCsbujzjYX0pAI_3rge6vulkan10renderable4syncNtB5_9SemaphoreNtNtNtCs1RoSZkFyxqL_4core3ops4drop4Drop4drop
FNDA:492,_RNvMNtNtNtCsbujzjYX0pAI_3rge6vulkan10renderable4syncNtB2_9Semaphore6device
FNDA:246,_RNvMs1_NtNtNtCsbujzjYX0pAI_3rge6vulkan10renderable4syncNtB5_5Fence6device
FNDA:246,_RNvMs2_NtNtNtCsbujzjYX0pAI_3rge6vulkan10renderable4syncNtB5_5Fence3new
FNDA:492,_RNvMs_NtNtNtCsbujzjYX0pAI_3rge6vulkan10renderable4syncNtB4_9Semaphore3new
FNDA:246,_RNvMs1_NtNtNtCsbujzjYX0pAI_3rge6vulkan10renderable4syncNtB5_5Fence10ash_device
FNDA:492,_RNvMNtNtNtCsbujzjYX0pAI_3rge6vulkan10renderable4syncNtB2_9Semaphore10ash_device
FNDA:246,_RNvMs4_NtNtNtCsbujzjYX0pAI_3rge6vulkan10renderable4syncNtB5_4Sync3new
FNDA:0,_RNvMs1_NtNtNtCslHwOwCUw2lI_3rge6vulkan10renderable4syncNtB5_5Fence6device
FNDA:0,_RNvMs_NtNtNtCslHwOwCUw2lI_3rge6vulkan10renderable4syncNtB4_9Semaphore3new
FNDA:0,_RNvMNtNtNtCslHwOwCUw2lI_3rge6vulkan10renderable4syncNtB2_9Semaphore6device
FNDA:0,_RNvMNtNtNtCslHwOwCUw2lI_3rge6vulkan10renderable4syncNtB2_9Semaphore10ash_device
FNDA:0,_RNvMs2_NtNtNtCslHwOwCUw2lI_3rge6vulkan10renderable4syncNtB5_5Fence3new
FNDA:0,_RNvMs4_NtNtNtCslHwOwCUw2lI_3rge6vulkan10renderable4syncNtB5_4Sync3new
FNDA:0,_RNvXs0_NtNtNtCslHwOwCUw2lI_3rge6vulkan10renderable4syncNtB5_9SemaphoreNtNtNtCs1RoSZkFyxqL_4core3ops4drop4Drop4drop
FNDA:0,_RNvMs1_NtNtNtCslHwOwCUw2lI_3rge6vulkan10renderable4syncNtB5_5Fence10ash_device
FNDA:0,_RNvXs3_NtNtNtCslHwOwCUw2lI_3rge6vulkan10renderable4syncNtB5_5FenceNtNtNtCs1RoSZkFyxqL_4core3ops4drop4Drop4drop
FNF:9
FNH:9
DA:31,492
DA:32,492
DA:33,492
DA:35,492
DA:36,492
DA:37,492
DA:44,492
DA:45,492
DA:46,492
DA:47,492
DA:48,492
DA:49,492
DA:50,492
DA:51,492
DA:52,492
DA:53,492
DA:54,492
DA:55,492
DA:59,492
DA:60,492
DA:61,492
DA:82,246
DA:83,246
DA:84,246
DA:86,246
DA:87,246
DA:88,246
DA:95,246
DA:96,246
DA:98,246
DA:99,246
DA:101,0
DA:104,246
DA:105,246
DA:106,246
DA:107,246
DA:108,246
DA:109,246
DA:110,246
DA:111,246
DA:112,246
DA:113,246
DA:117,246
DA:118,246
DA:119,246
DA:140,246
DA:141,246
DA:142,246
DA:143,246
DA:144,246
DA:145,246
DA:146,246
DA:147,246
DA:148,246
DA:149,246
DA:150,246
BRF:0
BRH:0
LF:56
LH:55
end_of_record
SF:C:\Users\luigi\College\Spring 2023\Capstone\EricGrandizio\rge\src\vulkan\shaders\atlas.rs
FN:212,_RNvXs1_NtNtNtCsbujzjYX0pAI_3rge6vulkan7shaders5atlasNtB5_5ImageNtNtNtCs1RoSZkFyxqL_4core3ops4drop4Drop4drop
FN:306,_RNvXs7_NtNtNtCsbujzjYX0pAI_3rge6vulkan7shaders5atlasNtB5_7SamplerNtNtNtCs1RoSZkFyxqL_4core3ops4drop4Drop4drop
FN:259,_RNvXs4_NtNtNtCsbujzjYX0pAI_3rge6vulkan7shaders5atlasNtB5_9ImageViewNtNtNtCs1RoSZkFyxqL_4core3ops4drop4Drop4drop
FN:206,_RNvMs0_NtNtNtCsbujzjYX0pAI_3rge6vulkan7shaders5atlasNtB5_5Image8end_offs
FN:154,_RNvMs_NtNtNtCsbujzjYX0pAI_3rge6vulkan7shaders5atlasNtB4_5Image10ash_device
FN:194,_RNvMs0_NtNtNtCsbujzjYX0pAI_3rge6vulkan7shaders5atlasNtB5_5Image4bind
FN:286,_RNvMs5_NtNtNtCsbujzjYX0pAI_3rge6vulkan7shaders5atlasNtB5_7Sampler10ash_device
FN:239,_RNvMs2_NtNtNtCsbujzjYX0pAI_3rge6vulkan7shaders5atlasNtB5_9ImageView10ash_device
FN:163,_RNvMs0_NtNtNtCsbujzjYX0pAI_3rge6vulkan7shaders5atlasNtB5_5Image3new
FN:248,_RNvMs3_NtNtNtCsbujzjYX0pAI_3rge6vulkan7shaders5atlasNtB5_9ImageView3new
FN:282,_RNvMs5_NtNtNtCsbujzjYX0pAI_3rge6vulkan7shaders5atlasNtB5_7Sampler6device
FN:150,_RNvMs_NtNtNtCsbujzjYX0pAI_3rge6vulkan7shaders5atlasNtB4_5Image6device
FN:235,_RNvMs2_NtNtNtCsbujzjYX0pAI_3rge6vulkan7shaders5atlasNtB5_9ImageView6device
FN:295,_RNvMs6_NtNtNtCsbujzjYX0pAI_3rge6vulkan7shaders5atlasNtB5_7Sampler3new
FN:34,_RNvMNtNtNtCsbujzjYX0pAI_3rge6vulkan7shaders5atlasNtB2_5Atlas3new
FN:295,_RNvMs6_NtNtNtCslHwOwCUw2lI_3rge6vulkan7shaders5atlasNtB5_7Sampler3new
FN:34,_RNvMNtNtNtCslHwOwCUw2lI_3rge6vulkan7shaders5atlasNtB2_5Atlas3new
FN:194,_RNvMs0_NtNtNtCslHwOwCUw2lI_3rge6vulkan7shaders5atlasNtB5_5Image4bind
FN:235,_RNvMs2_NtNtNtCslHwOwCUw2lI_3rge6vulkan7shaders5atlasNtB5_9ImageView6device
FN:286,_RNvMs5_NtNtNtCslHwOwCUw2lI_3rge6vulkan7shaders5atlasNtB5_7Sampler10ash_device
FN:206,_RNvMs0_NtNtNtCslHwOwCUw2lI_3rge6vulkan7shaders5atlasNtB5_5Image8end_offs
FN:154,_RNvMs_NtNtNtCslHwOwCUw2lI_3rge6vulkan7shaders5atlasNtB4_5Image10ash_device
FN:306,_RNvXs7_NtNtNtCslHwOwCUw2lI_3rge6vulkan7shaders5atlasNtB5_7SamplerNtNtNtCs1RoSZkFyxqL_4core3ops4drop4Drop4drop
FN:282,_RNvMs5_NtNtNtCslHwOwCUw2lI_3rge6vulkan7shaders5atlasNtB5_7Sampler6device
FN:239,_RNvMs2_NtNtNtCslHwOwCUw2lI_3rge6vulkan7shaders5atlasNtB5_9ImageView10ash_device
FN:150,_RNvMs_NtNtNtCslHwOwCUw2lI_3rge6vulkan7shaders5atlasNtB4_5Image6device
FN:259,_RNvXs4_NtNtNtCslHwOwCUw2lI_3rge6vulkan7shaders5atlasNtB5_9ImageViewNtNtNtCs1RoSZkFyxqL_4core3ops4drop4Drop4drop
FN:163,_RNvMs0_NtNtNtCslHwOwCUw2lI_3rge6vulkan7shaders5atlasNtB5_5Image3new
FN:248,_RNvMs3_NtNtNtCslHwOwCUw2lI_3rge6vulkan7shaders5atlasNtB5_9ImageView3new
FN:212,_RNvXs1_NtNtNtCslHwOwCUw2lI_3rge6vulkan7shaders5atlasNtB5_5ImageNtNtNtCs1RoSZkFyxqL_4core3ops4drop4Drop4drop
FNDA:907,_RNvXs1_NtNtNtCsbujzjYX0pAI_3rge6vulkan7shaders5atlasNtB5_5ImageNtNtNtCs1RoSZkFyxqL_4core3ops4drop4Drop4drop
FNDA:907,_RNvXs7_NtNtNtCsbujzjYX0pAI_3rge6vulkan7shaders5atlasNtB5_7SamplerNtNtNtCs1RoSZkFyxqL_4core3ops4drop4Drop4drop
FNDA:907,_RNvXs4_NtNtNtCsbujzjYX0pAI_3rge6vulkan7shaders5atlasNtB5_9ImageViewNtNtNtCs1RoSZkFyxqL_4core3ops4drop4Drop4drop
FNDA:0,_RNvMs0_NtNtNtCsbujzjYX0pAI_3rge6vulkan7shaders5atlasNtB5_5Image8end_offs
FNDA:907,_RNvMs_NtNtNtCsbujzjYX0pAI_3rge6vulkan7shaders5atlasNtB4_5Image10ash_device
FNDA:907,_RNvMs0_NtNtNtCsbujzjYX0pAI_3rge6vulkan7shaders5atlasNtB5_5Image4bind
FNDA:907,_RNvMs5_NtNtNtCsbujzjYX0pAI_3rge6vulkan7shaders5atlasNtB5_7Sampler10ash_device
FNDA:907,_RNvMs2_NtNtNtCsbujzjYX0pAI_3rge6vulkan7shaders5atlasNtB5_9ImageView10ash_device
FNDA:907,_RNvMs0_NtNtNtCsbujzjYX0pAI_3rge6vulkan7shaders5atlasNtB5_5Image3new
FNDA:907,_RNvMs3_NtNtNtCsbujzjYX0pAI_3rge6vulkan7shaders5atlasNtB5_9ImageView3new
FNDA:907,_RNvMs5_NtNtNtCsbujzjYX0pAI_3rge6vulkan7shaders5atlasNtB5_7Sampler6device
FNDA:907,_RNvMs_NtNtNtCsbujzjYX0pAI_3rge6vulkan7shaders5atlasNtB4_5Image6device
FNDA:907,_RNvMs2_NtNtNtCsbujzjYX0pAI_3rge6vulkan7shaders5atlasNtB5_9ImageView6device
FNDA:907,_RNvMs6_NtNtNtCsbujzjYX0pAI_3rge6vulkan7shaders5atlasNtB5_7Sampler3new
FNDA:907,_RNvMNtNtNtCsbujzjYX0pAI_3rge6vulkan7shaders5atlasNtB2_5Atlas3new
FNDA:0,_RNvMs6_NtNtNtCslHwOwCUw2lI_3rge6vulkan7shaders5atlasNtB5_7Sampler3new
FNDA:0,_RNvMNtNtNtCslHwOwCUw2lI_3rge6vulkan7shaders5atlasNtB2_5Atlas3new
FNDA:0,_RNvMs0_NtNtNtCslHwOwCUw2lI_3rge6vulkan7shaders5atlasNtB5_5Image4bind
FNDA:0,_RNvMs2_NtNtNtCslHwOwCUw2lI_3rge6vulkan7shaders5atlasNtB5_9ImageView6device
FNDA:0,_RNvMs5_NtNtNtCslHwOwCUw2lI_3rge6vulkan7shaders5atlasNtB5_7Sampler10ash_device
FNDA:0,_RNvMs0_NtNtNtCslHwOwCUw2lI_3rge6vulkan7shaders5atlasNtB5_5Image8end_offs
FNDA:0,_RNvMs_NtNtNtCslHwOwCUw2lI_3rge6vulkan7shaders5atlasNtB4_5Image10ash_device
FNDA:0,_RNvXs7_NtNtNtCslHwOwCUw2lI_3rge6vulkan7shaders5atlasNtB5_7SamplerNtNtNtCs1RoSZkFyxqL_4core3ops4drop4Drop4drop
FNDA:0,_RNvMs5_NtNtNtCslHwOwCUw2lI_3rge6vulkan7shaders5atlasNtB5_7Sampler6device
FNDA:0,_RNvMs2_NtNtNtCslHwOwCUw2lI_3rge6vulkan7shaders5atlasNtB5_9ImageView10ash_device
FNDA:0,_RNvMs_NtNtNtCslHwOwCUw2lI_3rge6vulkan7shaders5atlasNtB4_5Image6device
FNDA:0,_RNvXs4_NtNtNtCslHwOwCUw2lI_3rge6vulkan7shaders5atlasNtB5_9ImageViewNtNtNtCs1RoSZkFyxqL_4core3ops4drop4Drop4drop
FNDA:0,_RNvMs0_NtNtNtCslHwOwCUw2lI_3rge6vulkan7shaders5atlasNtB5_5Image3new
FNDA:0,_RNvMs3_NtNtNtCslHwOwCUw2lI_3rge6vulkan7shaders5atlasNtB5_9ImageView3new
FNDA:0,_RNvXs1_NtNtNtCslHwOwCUw2lI_3rge6vulkan7shaders5atlasNtB5_5ImageNtNtNtCs1RoSZkFyxqL_4core3ops4drop4Drop4drop
FNF:15
FNH:14
DA:34,907
DA:35,907
DA:39,907
DA:40,907
DA:41,907
DA:42,907
DA:43,907
DA:44,907
DA:45,907
DA:46,907
DA:47,907
DA:48,907
DA:49,907
DA:50,907
DA:51,907
DA:52,907
DA:53,907
DA:54,907
DA:55,907
DA:56,907
DA:57,907
DA:58,907
DA:59,907
DA:60,907
DA:61,907
DA:62,907
DA:63,907
DA:64,907
DA:65,907
DA:66,907
DA:67,907
DA:68,907
DA:69,907
DA:70,907
DA:71,907
DA:72,907
DA:73,907
DA:74,907
DA:75,907
DA:76,907
DA:77,907
DA:78,907
DA:79,907
DA:80,907
DA:81,907
DA:82,907
DA:83,907
DA:84,907
DA:85,907
DA:86,907
DA:87,907
DA:88,907
DA:89,907
DA:90,907
DA:91,907
DA:92,907
DA:93,907
DA:94,907
DA:95,907
DA:96,907
DA:97,907
DA:98,907
DA:99,907
DA:100,907
DA:101,907
DA:102,907
DA:103,907
DA:104,907
DA:105,907
DA:106,907
DA:107,907
DA:108,907
DA:109,907
DA:110,907
DA:111,907
DA:112,907
DA:113,907
DA:114,907
DA:115,907
DA:116,907
DA:117,907
DA:118,907
DA:119,907
DA:120,907
DA:150,907
DA:151,907
DA:152,907
DA:154,907
DA:155,907
DA:156,907
DA:163,907
DA:164,907
DA:165,907
DA:166,907
DA:167,907
DA:168,907
DA:169,907
DA:170,907
DA:171,907
DA:172,907
DA:173,907
DA:174,907
DA:175,907
DA:176,907
DA:177,907
DA:178,907
DA:179,907
DA:180,907
DA:181,907
DA:182,907
DA:183,907
DA:184,907
DA:185,907
DA:186,907
DA:187,907
DA:188,907
DA:189,907
DA:190,907
DA:191,907
DA:194,907
DA:195,907
DA:196,907
DA:197,907
DA:198,907
DA:199,907
DA:200,907
DA:201,907
DA:202,907
DA:206,0
DA:207,0
DA:208,0
DA:212,907
DA:213,907
DA:214,907
DA:235,907
DA:236,907
DA:237,907
DA:239,907
DA:240,907
DA:241,907
DA:248,907
DA:249,907
DA:250,907
DA:251,907
DA:252,907
DA:253,907
DA:254,907
DA:255,907
DA:259,907
DA:260,907
DA:261,907
DA:282,907
DA:283,907
DA:284,907
DA:286,907
DA:287,907
DA:288,907
DA:295,907
DA:296,907
DA:297,907
DA:298,907
DA:299,907
DA:300,907
DA:301,907
DA:302,907
DA:306,907
DA:307,907
DA:308,907
DA:309,907
DA:310,907
DA:311,907
DA:312,907
DA:313,907
DA:314,907
DA:315,907
DA:316,907
BRF:0
BRH:0
LF:176
LH:173
end_of_record
SF:C:\Users\luigi\College\Spring 2023\Capstone\EricGrandizio\rge\src\vulkan\shaders\buffers.rs
FN:197,_RNvXs1_NtNtNtCsbujzjYX0pAI_3rge6vulkan7shaders7buffersNtB5_6BufferNtNtNtCs1RoSZkFyxqL_4core3ops4drop4Drop4drop
FN:191,_RNvMs0_NtNtNtCsbujzjYX0pAI_3rge6vulkan7shaders7buffersNtB5_6Buffer8end_offs
FN:180,_RNvMs0_NtNtNtCsbujzjYX0pAI_3rge6vulkan7shaders7buffersNtB5_6Buffer4bind
FN:134,_RNvMs_NtNtNtCsbujzjYX0pAI_3rge6vulkan7shaders7buffersNtB4_6Buffer6device
FN:49,_RNvMNtNtNtCsbujzjYX0pAI_3rge6vulkan7shaders7buffersNtB2_7Buffers3new
FN:147,_RNvMs0_NtNtNtCsbujzjYX0pAI_3rge6vulkan7shaders7buffersNtB5_6Buffer3new
FN:138,_RNvMs_NtNtNtCsbujzjYX0pAI_3rge6vulkan7shaders7buffersNtB4_6Buffer10ash_device
FN:191,_RNvMs0_NtNtNtCslHwOwCUw2lI_3rge6vulkan7shaders7buffersNtB5_6Buffer8end_offs
FN:49,_RNvMNtNtNtCslHwOwCUw2lI_3rge6vulkan7shaders7buffersNtB2_7Buffers3new
FN:134,_RNvMs_NtNtNtCslHwOwCUw2lI_3rge6vulkan7shaders7buffersNtB4_6Buffer6device
FN:180,_RNvMs0_NtNtNtCslHwOwCUw2lI_3rge6vulkan7shaders7buffersNtB5_6Buffer4bind
FN:138,_RNvMs_NtNtNtCslHwOwCUw2lI_3rge6vulkan7shaders7buffersNtB4_6Buffer10ash_device
FN:147,_RNvMs0_NtNtNtCslHwOwCUw2lI_3rge6vulkan7shaders7buffersNtB5_6Buffer3new
FN:197,_RNvXs1_NtNtNtCslHwOwCUw2lI_3rge6vulkan7shaders7buffersNtB5_6BufferNtNtNtCs1RoSZkFyxqL_4core3ops4drop4Drop4drop
FNDA:18,_RNvXs1_NtNtNtCsbujzjYX0pAI_3rge6vulkan7shaders7buffersNtB5_6BufferNtNtNtCs1RoSZkFyxqL_4core3ops4drop4Drop4drop
FNDA:12,_RNvMs0_NtNtNtCsbujzjYX0pAI_3rge6vulkan7shaders7buffersNtB5_6Buffer8end_offs
FNDA:18,_RNvMs0_NtNtNtCsbujzjYX0pAI_3rge6vulkan7shaders7buffersNtB5_6Buffer4bind
FNDA:18,_RNvMs_NtNtNtCsbujzjYX0pAI_3rge6vulkan7shaders7buffersNtB4_6Buffer6device
FNDA:6,_RNvMNtNtNtCsbujzjYX0pAI_3rge6vulkan7shaders7buffersNtB2_7Buffers3new
FNDA:18,_RNvMs0_NtNtNtCsbujzjYX0pAI_3rge6vulkan7shaders7buffersNtB5_6Buffer3new
FNDA:18,_RNvMs_NtNtNtCsbujzjYX0pAI_3rge6vulkan7shaders7buffersNtB4_6Buffer10ash_device
FNDA:0,_RNvMs0_NtNtNtCslHwOwCUw2lI_3rge6vulkan7shaders7buffersNtB5_6Buffer8end_offs
FNDA:0,_RNvMNtNtNtCslHwOwCUw2lI_3rge6vulkan7shaders7buffersNtB2_7Buffers3new
FNDA:0,_RNvMs_NtNtNtCslHwOwCUw2lI_3rge6vulkan7shaders7buffersNtB4_6Buffer6device
FNDA:0,_RNvMs0_NtNtNtCslHwOwCUw2lI_3rge6vulkan7shaders7buffersNtB5_6Buffer4bind
FNDA:0,_RNvMs_NtNtNtCslHwOwCUw2lI_3rge6vulkan7shaders7buffersNtB4_6Buffer10ash_device
FNDA:0,_RNvMs0_NtNtNtCslHwOwCUw2lI_3rge6vulkan7shaders7buffersNtB5_6Buffer3new
FNDA:0,_RNvXs1_NtNtNtCslHwOwCUw2lI_3rge6vulkan7shaders7buffersNtB5_6BufferNtNtNtCs1RoSZkFyxqL_4core3ops4drop4Drop4drop
FNF:7
FNH:7
DA:49,6
DA:50,6
DA:51,6
DA:52,6
DA:53,6
DA:54,6
DA:55,6
DA:56,6
DA:57,6
DA:58,6
DA:59,6
DA:60,6
DA:61,6
DA:62,6
DA:63,6
DA:64,6
DA:65,6
DA:66,6
DA:67,6
DA:68,6
DA:69,6
DA:70,6
DA:71,6
DA:72,6
DA:73,6
DA:74,6
DA:75,6
DA:76,6
DA:77,6
DA:78,6
DA:79,6
DA:80,6
DA:81,6
DA:82,6
DA:83,6
DA:84,6
DA:85,6
DA:86,6
DA:87,6
DA:88,6
DA:89,6
DA:90,6
DA:91,6
DA:92,6
DA:93,6
DA:94,6
DA:95,6
DA:96,6
DA:97,6
DA:98,6
DA:134,18
DA:135,18
DA:136,18
DA:138,18
DA:139,18
DA:140,18
DA:147,18
DA:148,18
DA:149,18
DA:150,18
DA:151,18
DA:152,18
DA:153,18
DA:154,18
DA:155,18
DA:156,18
DA:157,18
DA:158,18
DA:159,18
DA:160,18
DA:161,18
DA:162,18
DA:163,18
DA:164,18
DA:165,18
DA:166,18
DA:167,18
DA:168,18
DA:169,18
DA:170,18
DA:171,18
DA:172,18
DA:173,18
DA:174,18
DA:175,18
DA:176,18
DA:177,18
DA:180,18
DA:181,18
DA:182,18
DA:183,18
DA:184,18
DA:185,18
DA:186,18
DA:187,18
DA:188,18
DA:191,12
DA:192,12
DA:193,12
DA:197,18
DA:198,18
DA:199,18
BRF:0
BRH:0
LF:102
LH:102
end_of_record
SF:C:\Users\luigi\College\Spring 2023\Capstone\EricGrandizio\rge\src\vulkan\shaders\command_pool.rs
FN:60,_RNvXs0_NtNtNtCsbujzjYX0pAI_3rge6vulkan7shaders12command_poolNtB5_11CommandPoolNtNtNtCs1RoSZkFyxqL_4core3ops4drop4Drop4drop
FN:44,_RNvMs_NtNtNtCsbujzjYX0pAI_3rge6vulkan7shaders12command_poolNtB4_11CommandPool3new
FN:31,_RNvMNtNtNtCsbujzjYX0pAI_3rge6vulkan7shaders12command_poolNtB2_11CommandPool6device
FN:35,_RNvMNtNtNtCsbujzjYX0pAI_3rge6vulkan7shaders12command_poolNtB2_11CommandPool10ash_device
FN:69,_RNvMs1_NtNtNtCsbujzjYX0pAI_3rge6vulkan7shaders12command_poolNtB5_11CommandPool16allocate_buffers
FN:44,_RNvMs_NtNtNtCslHwOwCUw2lI_3rge6vulkan7shaders12command_poolNtB4_11CommandPool3new
FN:35,_RNvMNtNtNtCslHwOwCUw2lI_3rge6vulkan7shaders12command_poolNtB2_11CommandPool10ash_device
FN:31,_RNvMNtNtNtCslHwOwCUw2lI_3rge6vulkan7shaders12command_poolNtB2_11CommandPool6device
FN:60,_RNvXs0_NtNtNtCslHwOwCUw2lI_3rge6vulkan7shaders12command_poolNtB5_11CommandPoolNtNtNtCs1RoSZkFyxqL_4core3ops4drop4Drop4drop
FN:69,_RNvMs1_NtNtNtCslHwOwCUw2lI_3rge6vulkan7shaders12command_poolNtB5_11CommandPool16allocate_buffers
FNDA:6,_RNvXs0_NtNtNtCsbujzjYX0pAI_3rge6vulkan7shaders12command_poolNtB5_11CommandPoolNtNtNtCs1RoSZkFyxqL_4core3ops4drop4Drop4drop
FNDA:6,_RNvMs_NtNtNtCsbujzjYX0pAI_3rge6vulkan7shaders12command_poolNtB4_11CommandPool3new
FNDA:2733,_RNvMNtNtNtCsbujzjYX0pAI_3rge6vulkan7shaders12command_poolNtB2_11CommandPool6device
FNDA:2733,_RNvMNtNtNtCsbujzjYX0pAI_3rge6vulkan7shaders12command_poolNtB2_11CommandPool10ash_device
FNDA:2727,_RNvMs1_NtNtNtCsbujzjYX0pAI_3rge6vulkan7shaders12command_poolNtB5_11CommandPool16allocate_buffers
FNDA:0,_RNvMs_NtNtNtCslHwOwCUw2lI_3rge6vulkan7shaders12command_poolNtB4_11CommandPool3new
FNDA:0,_RNvMNtNtNtCslHwOwCUw2lI_3rge6vulkan7shaders12command_poolNtB2_11CommandPool10ash_device
FNDA:0,_RNvMNtNtNtCslHwOwCUw2lI_3rge6vulkan7shaders12command_poolNtB2_11CommandPool6device
FNDA:0,_RNvXs0_NtNtNtCslHwOwCUw2lI_3rge6vulkan7shaders12command_poolNtB5_11CommandPoolNtNtNtCs1RoSZkFyxqL_4core3ops4drop4Drop4drop
FNDA:0,_RNvMs1_NtNtNtCslHwOwCUw2lI_3rge6vulkan7shaders12command_poolNtB5_11CommandPool16allocate_buffers
FNF:5
FNH:5
DA:31,2733
DA:32,2733
DA:33,2733
DA:35,2733
DA:36,2733
DA:37,2733
DA:44,6
DA:45,6
DA:46,6
DA:47,6
DA:48,6
DA:49,6
DA:50,6
DA:51,6
DA:52,6
DA:53,6
DA:54,6
DA:55,6
DA:56,6
DA:60,6
DA:61,6
DA:62,6
DA:69,2727
DA:70,2727
DA:71,2727
DA:72,2727
DA:73,2727
DA:74,2727
DA:75,2727
DA:76,2727
DA:77,2727
DA:78,2727
DA:79,2727
BRF:0
BRH:0
LF:33
LH:33
end_of_record
SF:C:\Users\luigi\College\Spring 2023\Capstone\EricGrandizio\rge\src\vulkan\shaders\descriptors.rs
FN:59,_RNvXs0_NtNtNtCsbujzjYX0pAI_3rge6vulkan7shaders11descriptorsNtB5_19DescriptorSetLayoutNtNtNtCs1RoSZkFyxqL_4core3ops4drop4Drop4drop
FN:114,_RNvXs3_NtNtNtCsbujzjYX0pAI_3rge6vulkan7shaders11descriptorsNtB5_14DescriptorPoolNtNtNtCs1RoSZkFyxqL_4core3ops4drop4Drop4drop
FN:44,_RNvMs_NtNtNtCsbujzjYX0pAI_3rge6vulkan7shaders11descriptorsNtB4_19DescriptorSetLayout3new
FN:89,_RNvMs1_NtNtNtCsbujzjYX0pAI_3rge6vulkan7shaders11descriptorsNtB5_14DescriptorPool10ash_device
FN:99,_RNvMs2_NtNtNtCsbujzjYX0pAI_3rge6vulkan7shaders11descriptorsNtB5_14DescriptorPool3new
FN:85,_RNvMs1_NtNtNtCsbujzjYX0pAI_3rge6vulkan7shaders11descriptorsNtB5_14DescriptorPool6device
FN:31,_RNvMNtNtNtCsbujzjYX0pAI_3rge6vulkan7shaders11descriptorsNtB2_19DescriptorSetLayout6device
FN:35,_RNvMNtNtNtCsbujzjYX0pAI_3rge6vulkan7shaders11descriptorsNtB2_19DescriptorSetLayout10ash_device
FN:85,_RNvMs1_NtNtNtCslHwOwCUw2lI_3rge6vulkan7shaders11descriptorsNtB5_14DescriptorPool6device
FN:59,_RNvXs0_NtNtNtCslHwOwCUw2lI_3rge6vulkan7shaders11descriptorsNtB5_19DescriptorSetLayoutNtNtNtCs1RoSZkFyxqL_4core3ops4drop4Drop4drop
FN:35,_RNvMNtNtNtCslHwOwCUw2lI_3rge6vulkan7shaders11descriptorsNtB2_19DescriptorSetLayout10ash_device
FN:31,_RNvMNtNtNtCslHwOwCUw2lI_3rge6vulkan7shaders11descriptorsNtB2_19DescriptorSetLayout6device
FN:44,_RNvMs_NtNtNtCslHwOwCUw2lI_3rge6vulkan7shaders11descriptorsNtB4_19DescriptorSetLayout3new
FN:89,_RNvMs1_NtNtNtCslHwOwCUw2lI_3rge6vulkan7shaders11descriptorsNtB5_14DescriptorPool10ash_device
FN:114,_RNvXs3_NtNtNtCslHwOwCUw2lI_3rge6vulkan7shaders11descriptorsNtB5_14DescriptorPoolNtNtNtCs1RoSZkFyxqL_4core3ops4drop4Drop4drop
FN:99,_RNvMs2_NtNtNtCslHwOwCUw2lI_3rge6vulkan7shaders11descriptorsNtB5_14DescriptorPool3new
FNDA:6,_RNvXs0_NtNtNtCsbujzjYX0pAI_3rge6vulkan7shaders11descriptorsNtB5_19DescriptorSetLayoutNtNtNtCs1RoSZkFyxqL_4core3ops4drop4Drop4drop
FNDA:6,_RNvXs3_NtNtNtCsbujzjYX0pAI_3rge6vulkan7shaders11descriptorsNtB5_14DescriptorPoolNtNtNtCs1RoSZkFyxqL_4core3ops4drop4Drop4drop
FNDA:6,_RNvMs_NtNtNtCsbujzjYX0pAI_3rge6vulkan7shaders11descriptorsNtB4_19DescriptorSetLayout3new
FNDA:6,_RNvMs1_NtNtNtCsbujzjYX0pAI_3rge6vulkan7shaders11descriptorsNtB5_14DescriptorPool10ash_device
FNDA:6,_RNvMs2_NtNtNtCsbujzjYX0pAI_3rge6vulkan7shaders11descriptorsNtB5_14DescriptorPool3new
FNDA:6,_RNvMs1_NtNtNtCsbujzjYX0pAI_3rge6vulkan7shaders11descriptorsNtB5_14DescriptorPool6device
FNDA:6,_RNvMNtNtNtCsbujzjYX0pAI_3rge6vulkan7shaders11descriptorsNtB2_19DescriptorSetLayout6device
FNDA:6,_RNvMNtNtNtCsbujzjYX0pAI_3rge6vulkan7shaders11descriptorsNtB2_19DescriptorSetLayout10ash_device
FNDA:0,_RNvMs1_NtNtNtCslHwOwCUw2lI_3rge6vulkan7shaders11descriptorsNtB5_14DescriptorPool6device
FNDA:0,_RNvXs0_NtNtNtCslHwOwCUw2lI_3rge6vulkan7shaders11descriptorsNtB5_19DescriptorSetLayoutNtNtNtCs1RoSZkFyxqL_4core3ops4drop4Drop4drop
FNDA:0,_RNvMNtNtNtCslHwOwCUw2lI_3rge6vulkan7shaders11descriptorsNtB2_19DescriptorSetLayout10ash_device
FNDA:0,_RNvMNtNtNtCslHwOwCUw2lI_3rge6vulkan7shaders11descriptorsNtB2_19DescriptorSetLayout6device
FNDA:0,_RNvMs_NtNtNtCslHwOwCUw2lI_3rge6vulkan7shaders11descriptorsNtB4_19DescriptorSetLayout3new
FNDA:0,_RNvMs1_NtNtNtCslHwOwCUw2lI_3rge6vulkan7shaders11descriptorsNtB5_14DescriptorPool10ash_device
FNDA:0,_RNvXs3_NtNtNtCslHwOwCUw2lI_3rge6vulkan7shaders11descriptorsNtB5_14DescriptorPoolNtNtNtCs1RoSZkFyxqL_4core3ops4drop4Drop4drop
FNDA:0,_RNvMs2_NtNtNtCslHwOwCUw2lI_3rge6vulkan7shaders11descriptorsNtB5_14DescriptorPool3new
FNF:8
FNH:8
DA:31,6
DA:32,6
DA:33,6
DA:35,6
DA:36,6
DA:37,6
DA:44,6
DA:45,6
DA:46,6
DA:47,6
DA:48,6
DA:49,6
DA:50,6
DA:51,6
DA:52,6
DA:53,6
DA:54,6
DA:55,6
DA:59,6
DA:60,6
DA:61,6
DA:62,6
DA:63,6
DA:64,6
DA:85,6
DA:86,6
DA:87,6
DA:89,6
DA:90,6
DA:91,6
DA:99,6
DA:100,6
DA:101,6
DA:102,6
DA:103,6
DA:104,6
DA:105,6
DA:106,6
DA:107,6
DA:108,6
DA:109,6
DA:110,6
DA:114,6
DA:115,6
DA:116,6
BRF:0
BRH:0
LF:45
LH:45
end_of_record
SF:C:\Users\luigi\College\Spring 2023\Capstone\EricGrandizio\rge\src\vulkan\shaders\glsl.rs
FN:103,_RNvXsu_NtNtNtCsbujzjYX0pAI_3rge6vulkan7shaders4glslNtB5_5ivec4NtNtCs1RoSZkFyxqL_4core5clone5Clone5cloneBb_
FN:114,_RNvXsC_NtNtNtCsbujzjYX0pAI_3rge6vulkan7shaders4glslNtB5_5uvec2NtNtCs1RoSZkFyxqL_4core5clone5Clone5cloneBb_
FN:147,_RNvXs14_NtNtNtCsbujzjYX0pAI_3rge6vulkan7shaders4glslNtB6_4vec2NtNtCs1RoSZkFyxqL_4core7default7Default7defaultBc_
FN:103,_RNvXsA_NtNtNtCsbujzjYX0pAI_3rge6vulkan7shaders4glslNtB5_5ivec4NtNtCs1RoSZkFyxqL_4core7default7Default7defaultBb_
FN:136,_RNvXsX_NtNtNtCsbujzjYX0pAI_3rge6vulkan7shaders4glslNtB5_5uvec4NtNtCs1RoSZkFyxqL_4core3cmp9PartialEq2eqBb_
FN:92,_RNvXsm_NtNtNtCsbujzjYX0pAI_3rge6vulkan7shaders4glslNtB5_5ivec3NtNtCs1RoSZkFyxqL_4core5clone5Clone5cloneBb_
FN:191,_RNvXs1s_NtNtNtCsbujzjYX0pAI_3rge6vulkan7shaders4glslNtB6_5dvec3NtNtCs1RoSZkFyxqL_4core7default7Default7defaultBc_
FN:81,_RNvXsk_NtNtNtCsbujzjYX0pAI_3rge6vulkan7shaders4glslNtB5_5ivec2NtNtCs1RoSZkFyxqL_4core7default7Default7defaultBb_
FN:114,_RNvXsH_NtNtNtCsbujzjYX0pAI_3rge6vulkan7shaders4glslNtB5_5uvec2NtNtCs1RoSZkFyxqL_4core3cmp9PartialEq2eqBb_
FN:92,_RNvXsr_NtNtNtCsbujzjYX0pAI_3rge6vulkan7shaders4glslNtB5_5ivec3NtNtCs1RoSZkFyxqL_4core3cmp9PartialEq2eqBb_
FN:81,_RNvXse_NtNtNtCsbujzjYX0pAI_3rge6vulkan7shaders4glslNtB5_5ivec2NtNtCs1RoSZkFyxqL_4core5clone5Clone5cloneBb_
FN:125,_RNvXsQ_NtNtNtCsbujzjYX0pAI_3rge6vulkan7shaders4glslNtB5_5uvec3NtNtCs1RoSZkFyxqL_4core7default7Default7defaultBb_
FN:180,_RNvXs1l_NtNtNtCsbujzjYX0pAI_3rge6vulkan7shaders4glslNtB6_5dvec2NtNtCs1RoSZkFyxqL_4core3cmp9PartialEq2eqBc_
FN:103,_RNvXsz_NtNtNtCsbujzjYX0pAI_3rge6vulkan7shaders4glslNtB5_5ivec4NtNtCs1RoSZkFyxqL_4core3cmp9PartialEq2eqBb_
FN:180,_RNvXs1i_NtNtNtCsbujzjYX0pAI_3rge6vulkan7shaders4glslNtB6_5dvec2NtNtCs1RoSZkFyxqL_4core5clone5Clone5cloneBc_
FN:202,_RNvXs1y_NtNtNtCsbujzjYX0pAI_3rge6vulkan7shaders4glslNtB6_5dvec4NtNtCs1RoSZkFyxqL_4core7default7Default7defaultBc_
FN:147,_RNvXs13_NtNtNtCsbujzjYX0pAI_3rge6vulkan7shaders4glslNtB6_4vec2NtNtCs1RoSZkFyxqL_4core3cmp9PartialEq2eqBc_
FN:158,_RNvXs1a_NtNtNtCsbujzjYX0pAI_3rge6vulkan7shaders4glslNtB6_4vec3NtNtCs1RoSZkFyxqL_4core7default7Default7defaultBc_
FN:136,_RNvXsY_NtNtNtCsbujzjYX0pAI_3rge6vulkan7shaders4glslNtB5_5uvec4NtNtCs1RoSZkFyxqL_4core7default7Default7defaultBb_
FN:125,_RNvXsK_NtNtNtCsbujzjYX0pAI_3rge6vulkan7shaders4glslNtB5_5uvec3NtNtCs1RoSZkFyxqL_4core5clone5Clone5cloneBb_
FN:92,_RNvXss_NtNtNtCsbujzjYX0pAI_3rge6vulkan7shaders4glslNtB5_5ivec3NtNtCs1RoSZkFyxqL_4core7default7Default7defaultBb_
FN:81,_RNvXsj_NtNtNtCsbujzjYX0pAI_3rge6vulkan7shaders4glslNtB5_5ivec2NtNtCs1RoSZkFyxqL_4core3cmp9PartialEq2eqBb_
FN:147,_RNvXs10_NtNtNtCsbujzjYX0pAI_3rge6vulkan7shaders4glslNtB6_4vec2NtNtCs1RoSZkFyxqL_4core5clone5Clone5cloneBc_
FN:125,_RNvXsP_NtNtNtCsbujzjYX0pAI_3rge6vulkan7shaders4glslNtB5_5uvec3NtNtCs1RoSZkFyxqL_4core3cmp9PartialEq2eqBb_
FN:191,_RNvXs1o_NtNtNtCsbujzjYX0pAI_3rge6vulkan7shaders4glslNtB6_5dvec3NtNtCs1RoSZkFyxqL_4core5clone5Clone5cloneBc_
FN:202,_RNvXs1x_NtNtNtCsbujzjYX0pAI_3rge6vulkan7shaders4glslNtB6_5dvec4NtNtCs1RoSZkFyxqL_4core3cmp9PartialEq2eqBc_
FN:158,_RNvXs16_NtNtNtCsbujzjYX0pAI_3rge6vulkan7shaders4glslNtB6_4vec3NtNtCs1RoSZkFyxqL_4core5clone5Clone5cloneBc_
FN:114,_RNvXsI_NtNtNtCsbujzjYX0pAI_3rge6vulkan7shaders4glslNtB5_5uvec2NtNtCs1RoSZkFyxqL_4core7default7Default7defaultBb_
FN:191,_RNvXs1r_NtNtNtCsbujzjYX0pAI_3rge6vulkan7shaders4glslNtB6_5dvec3NtNtCs1RoSZkFyxqL_4core3cmp9PartialEq2eqBc_
FN:202,_RNvXs1u_NtNtNtCsbujzjYX0pAI_3rge6vulkan7shaders4glslNtB6_5dvec4NtNtCs1RoSZkFyxqL_4core5clone5Clone5cloneBc_
FN:169,_RNvXs1c_NtNtNtCsbujzjYX0pAI_3rge6vulkan7shaders4glslNtB6_4vec4NtNtCs1RoSZkFyxqL_4core5clone5Clone5cloneBc_
FN:169,_RNvXs1f_NtNtNtCsbujzjYX0pAI_3rge6vulkan7shaders4glslNtB6_4vec4NtNtCs1RoSZkFyxqL_4core3cmp9PartialEq2eqBc_
FN:136,_RNvXsS_NtNtNtCsbujzjYX0pAI_3rge6vulkan7shaders4glslNtB5_5uvec4NtNtCs1RoSZkFyxqL_4core5clone5Clone5cloneBb_
FN:158,_RNvXs19_NtNtNtCsbujzjYX0pAI_3rge6vulkan7shaders4glslNtB6_4vec3NtNtCs1RoSZkFyxqL_4core3cmp9PartialEq2eqBc_
FN:180,_RNvXs1m_NtNtNtCsbujzjYX0pAI_3rge6vulkan7shaders4glslNtB6_5dvec2NtNtCs1RoSZkFyxqL_4core7default7Default7defaultBc_
FN:180,_RNvXs1n_NtNtNtCsbujzjYX0pAI_3rge6vulkan7shaders4glslNtB6_5dvec2NtNtCs1RoSZkFyxqL_4core3fmt5Debug3fmt
FN:147,_RNvXs15_NtNtNtCsbujzjYX0pAI_3rge6vulkan7shaders4glslNtB6_4vec2NtNtCs1RoSZkFyxqL_4core3fmt5Debug3fmt
FN:158,_RNvXs1b_NtNtNtCsbujzjYX0pAI_3rge6vulkan7shaders4glslNtB6_4vec3NtNtCs1RoSZkFyxqL_4core3fmt5Debug3fmt
FN:191,_RNvXs1t_NtNtNtCsbujzjYX0pAI_3rge6vulkan7shaders4glslNtB6_5dvec3NtNtCs1RoSZkFyxqL_4core3fmt5Debug3fmt
FN:92,_RNvXst_NtNtNtCsbujzjYX0pAI_3rge6vulkan7shaders4glslNtB5_5ivec3NtNtCs1RoSZkFyxqL_4core3fmt5Debug3fmt
FN:125,_RNvXsR_NtNtNtCsbujzjYX0pAI_3rge6vulkan7shaders4glslNtB5_5uvec3NtNtCs1RoSZkFyxqL_4core3fmt5Debug3fmt
FN:81,_RNvXsl_NtNtNtCsbujzjYX0pAI_3rge6vulkan7shaders4glslNtB5_5ivec2NtNtCs1RoSZkFyxqL_4core3fmt5Debug3fmt
FN:103,_RNvXsB_NtNtNtCsbujzjYX0pAI_3rge6vulkan7shaders4glslNtB5_5ivec4NtNtCs1RoSZkFyxqL_4core3fmt5Debug3fmt
FN:114,_RNvXsJ_NtNtNtCsbujzjYX0pAI_3rge6vulkan7shaders4glslNtB5_5uvec2NtNtCs1RoSZkFyxqL_4core3fmt5Debug3fmt
FN:136,_RNvXsZ_NtNtNtCsbujzjYX0pAI_3rge6vulkan7shaders4glslNtB5_5uvec4NtNtCs1RoSZkFyxqL_4core3fmt5Debug3fmt
FN:169,_RNvXs1g_NtNtNtCsbujzjYX0pAI_3rge6vulkan7shaders4glslNtB6_4vec4NtNtCs1RoSZkFyxqL_4core7default7Default7defaultBc_
FN:169,_RNvXs1h_NtNtNtCsbujzjYX0pAI_3rge6vulkan7shaders4glslNtB6_4vec4NtNtCs1RoSZkFyxqL_4core3fmt5Debug3fmt
FN:202,_RNvXs1z_NtNtNtCsbujzjYX0pAI_3rge6vulkan7shaders4glslNtB6_5dvec4NtNtCs1RoSZkFyxqL_4core3fmt5Debug3fmt
FN:180,_RNvXs1m_NtNtNtCsbujzjYX0pAI_3rge6vulkan7shaders4glslNtB6_5dvec2NtNtCs1RoSZkFyxqL_4core7default7Default7defaultCs3BCTKtn6Vg0_4glsl
FN:103,_RNvXsz_NtNtNtCsbujzjYX0pAI_3rge6vulkan7shaders4glslNtB5_5ivec4NtNtCs1RoSZkFyxqL_4core3cmp9PartialEq2eqCs3BCTKtn6Vg0_4glsl
FN:136,_RNvXsX_NtNtNtCsbujzjYX0pAI_3rge6vulkan7shaders4glslNtB5_5uvec4NtNtCs1RoSZkFyxqL_4core3cmp9PartialEq2eqCs3BCTKtn6Vg0_4glsl
FN:92,_RNvXsr_NtNtNtCsbujzjYX0pAI_3rge6vulkan7shaders4glslNtB5_5ivec3NtNtCs1RoSZkFyxqL_4core3cmp9PartialEq2eqCs3BCTKtn6Vg0_4glsl
FN:136,_RNvXsY_NtNtNtCsbujzjYX0pAI_3rge6vulkan7shaders4glslNtB5_5uvec4NtNtCs1RoSZkFyxqL_4core7default7Default7defaultCs3BCTKtn6Vg0_4glsl
FN:103,_RNvXsu_NtNtNtCsbujzjYX0pAI_3rge6vulkan7shaders4glslNtB5_5ivec4NtNtCs1RoSZkFyxqL_4core5clone5Clone5cloneCs3BCTKtn6Vg0_4glsl
FN:136,_RNvXsS_NtNtNtCsbujzjYX0pAI_3rge6vulkan7shaders4glslNtB5_5uvec4NtNtCs1RoSZkFyxqL_4core5clone5Clone5cloneCs3BCTKtn6Vg0_4glsl
FN:147,_RNvXs14_NtNtNtCsbujzjYX0pAI_3rge6vulkan7shaders4glslNtB6_4vec2NtNtCs1RoSZkFyxqL_4core7default7Default7defaultCs3BCTKtn6Vg0_4glsl
FN:191,_RNvXs1o_NtNtNtCsbujzjYX0pAI_3rge6vulkan7shaders4glslNtB6_5dvec3NtNtCs1RoSZkFyxqL_4core5clone5Clone5cloneCs3BCTKtn6Vg0_4glsl
FN:103,_RNvXsA_NtNtNtCsbujzjYX0pAI_3rge6vulkan7shaders4glslNtB5_5ivec4NtNtCs1RoSZkFyxqL_4core7default7Default7defaultCs3BCTKtn6Vg0_4glsl
FN:114,_RNvXsI_NtNtNtCsbujzjYX0pAI_3rge6vulkan7shaders4glslNtB5_5uvec2NtNtCs1RoSZkFyxqL_4core7default7Default7defaultCs3BCTKtn6Vg0_4glsl
FN:158,_RNvXs16_NtNtNtCsbujzjYX0pAI_3rge6vulkan7shaders4glslNtB6_4vec3NtNtCs1RoSZkFyxqL_4core5clone5Clone5cloneCs3BCTKtn6Vg0_4glsl
FN:169,_RNvXs1f_NtNtNtCsbujzjYX0pAI_3rge6vulkan7shaders4glslNtB6_4vec4NtNtCs1RoSZkFyxqL_4core3cmp9PartialEq2eqCs3BCTKtn6Vg0_4glsl
FN:202,_RNvXs1x_NtNtNtCsbujzjYX0pAI_3rge6vulkan7shaders4glslNtB6_5dvec4NtNtCs1RoSZkFyxqL_4core3cmp9PartialEq2eqCs3BCTKtn6Vg0_4glsl
FN:202,_RNvXs1y_NtNtNtCsbujzjYX0pAI_3rge6vulkan7shaders4glslNtB6_5dvec4NtNtCs1RoSZkFyxqL_4core7default7Default7defaultCs3BCTKtn6Vg0_4glsl
FN:191,_RNvXs1r_NtNtNtCsbujzjYX0pAI_3rge6vulkan7shaders4glslNtB6_5dvec3NtNtCs1RoSZkFyxqL_4core3cmp9PartialEq2eqCs3BCTKtn6Vg0_4glsl
FN:191,_RNvXs1s_NtNtNtCsbujzjYX0pAI_3rge6vulkan7shaders4glslNtB6_5dvec3NtNtCs1RoSZkFyxqL_4core7default7Default7defaultCs3BCTKtn6Vg0_4glsl
FN:158,_RNvXs1a_NtNtNtCsbujzjYX0pAI_3rge6vulkan7shaders4glslNtB6_4vec3NtNtCs1RoSZkFyxqL_4core7default7Default7defaultCs3BCTKtn6Vg0_4glsl
FN:158,_RNvXs19_NtNtNtCsbujzjYX0pAI_3rge6vulkan7shaders4glslNtB6_4vec3NtNtCs1RoSZkFyxqL_4core3cmp9PartialEq2eqCs3BCTKtn6Vg0_4glsl
FN:81,_RNvXsj_NtNtNtCsbujzjYX0pAI_3rge6vulkan7shaders4glslNtB5_5ivec2NtNtCs1RoSZkFyxqL_4core3cmp9PartialEq2eqCs3BCTKtn6Vg0_4glsl
FN:125,_RNvXsP_NtNtNtCsbujzjYX0pAI_3rge6vulkan7shaders4glslNtB5_5uvec3NtNtCs1RoSZkFyxqL_4core3cmp9PartialEq2eqCs3BCTKtn6Vg0_4glsl
FN:125,_RNvXsQ_NtNtNtCsbujzjYX0pAI_3rge6vulkan7shaders4glslNtB5_5uvec3NtNtCs1RoSZkFyxqL_4core7default7Default7defaultCs3BCTKtn6Vg0_4glsl
FN:92,_RNvXss_NtNtNtCsbujzjYX0pAI_3rge6vulkan7shaders4glslNtB5_5ivec3NtNtCs1RoSZkFyxqL_4core7default7Default7defaultCs3BCTKtn6Vg0_4glsl
FN:114,_RNvXsH_NtNtNtCsbujzjYX0pAI_3rge6vulkan7shaders4glslNtB5_5uvec2NtNtCs1RoSZkFyxqL_4core3cmp9PartialEq2eqCs3BCTKtn6Vg0_4glsl
FN:92,_RNvXsm_NtNtNtCsbujzjYX0pAI_3rge6vulkan7shaders4glslNtB5_5ivec3NtNtCs1RoSZkFyxqL_4core5clone5Clone5cloneCs3BCTKtn6Vg0_4glsl
FN:169,_RNvXs1g_NtNtNtCsbujzjYX0pAI_3rge6vulkan7shaders4glslNtB6_4vec4NtNtCs1RoSZkFyxqL_4core7default7Default7defaultCs3BCTKtn6Vg0_4glsl
FN:202,_RNvXs1u_NtNtNtCsbujzjYX0pAI_3rge6vulkan7shaders4glslNtB6_5dvec4NtNtCs1RoSZkFyxqL_4core5clone5Clone5cloneCs3BCTKtn6Vg0_4glsl
FN:169,_RNvXs1c_NtNtNtCsbujzjYX0pAI_3rge6vulkan7shaders4glslNtB6_4vec4NtNtCs1RoSZkFyxqL_4core5clone5Clone5cloneCs3BCTKtn6Vg0_4glsl
FN:81,_RNvXse_NtNtNtCsbujzjYX0pAI_3rge6vulkan7shaders4glslNtB5_5ivec2NtNtCs1RoSZkFyxqL_4core5clone5Clone5cloneCs3BCTKtn6Vg0_4glsl
FN:114,_RNvXsC_NtNtNtCsbujzjYX0pAI_3rge6vulkan7shaders4glslNtB5_5uvec2NtNtCs1RoSZkFyxqL_4core5clone5Clone5cloneCs3BCTKtn6Vg0_4glsl
FN:180,_RNvXs1i_NtNtNtCsbujzjYX0pAI_3rge6vulkan7shaders4glslNtB6_5dvec2NtNtCs1RoSZkFyxqL_4core5clone5Clone5cloneCs3BCTKtn6Vg0_4glsl
FN:81,_RNvXsk_NtNtNtCsbujzjYX0pAI_3rge6vulkan7shaders4glslNtB5_5ivec2NtNtCs1RoSZkFyxqL_4core7default7Default7defaultCs3BCTKtn6Vg0_4glsl
FN:147,_RNvXs10_NtNtNtCsbujzjYX0pAI_3rge6vulkan7shaders4glslNtB6_4vec2NtNtCs1RoSZkFyxqL_4core5clone5Clone5cloneCs3BCTKtn6Vg0_4glsl
FN:180,_RNvXs1l_NtNtNtCsbujzjYX0pAI_3rge6vulkan7shaders4glslNtB6_5dvec2NtNtCs1RoSZkFyxqL_4core3cmp9PartialEq2eqCs3BCTKtn6Vg0_4glsl
FN:147,_RNvXs13_NtNtNtCsbujzjYX0pAI_3rge6vulkan7shaders4glslNtB6_4vec2NtNtCs1RoSZkFyxqL_4core3cmp9PartialEq2eqCs3BCTKtn6Vg0_4glsl
FN:125,_RNvXsK_NtNtNtCsbujzjYX0pAI_3rge6vulkan7shaders4glslNtB5_5uvec3NtNtCs1RoSZkFyxqL_4core5clone5Clone5cloneCs3BCTKtn6Vg0_4glsl
FN:81,_RNvXse_NtNtNtCslHwOwCUw2lI_3rge6vulkan7shaders4glslNtB5_5ivec2NtNtCs1RoSZkFyxqL_4core5clone5Clone5cloneBb_
FN:81,_RNvXsj_NtNtNtCslHwOwCUw2lI_3rge6vulkan7shaders4glslNtB5_5ivec2NtNtCs1RoSZkFyxqL_4core3cmp9PartialEq2eqBb_
FN:180,_RNvXs1l_NtNtNtCslHwOwCUw2lI_3rge6vulkan7shaders4glslNtB6_5dvec2NtNtCs1RoSZkFyxqL_4core3cmp9PartialEq2eqBc_
FN:147,_RNvXs13_NtNtNtCslHwOwCUw2lI_3rge6vulkan7shaders4glslNtB6_4vec2NtNtCs1RoSZkFyxqL_4core3cmp9PartialEq2eqBc_
FN:103,_RNvXsz_NtNtNtCslHwOwCUw2lI_3rge6vulkan7shaders4glslNtB5_5ivec4NtNtCs1RoSZkFyxqL_4core3cmp9PartialEq2eqBb_
FN:81,_RNvXsl_NtNtNtCslHwOwCUw2lI_3rge6vulkan7shaders4glslNtB5_5ivec2NtNtCs1RoSZkFyxqL_4core3fmt5Debug3fmt
FN:125,_RNvXsP_NtNtNtCslHwOwCUw2lI_3rge6vulkan7shaders4glslNtB5_5uvec3NtNtCs1RoSZkFyxqL_4core3cmp9PartialEq2eqBb_
FN:103,_RNvXsA_NtNtNtCslHwOwCUw2lI_3rge6vulkan7shaders4glslNtB5_5ivec4NtNtCs1RoSZkFyxqL_4core7default7Default7defaultBb_
FN:136,_RNvXsX_NtNtNtCslHwOwCUw2lI_3rge6vulkan7shaders4glslNtB5_5uvec4NtNtCs1RoSZkFyxqL_4core3cmp9PartialEq2eqBb_
FN:169,_RNvXs1c_NtNtNtCslHwOwCUw2lI_3rge6vulkan7shaders4glslNtB6_4vec4NtNtCs1RoSZkFyxqL_4core5clone5Clone5cloneBc_
FN:202,_RNvXs1u_NtNtNtCslHwOwCUw2lI_3rge6vulkan7shaders4glslNtB6_5dvec4NtNtCs1RoSZkFyxqL_4core5clone5Clone5cloneBc_
FN:92,_RNvXst_NtNtNtCslHwOwCUw2lI_3rge6vulkan7shaders4glslNtB5_5ivec3NtNtCs1RoSZkFyxqL_4core3fmt5Debug3fmt
FN:136,_RNvXsZ_NtNtNtCslHwOwCUw2lI_3rge6vulkan7shaders4glslNtB5_5uvec4NtNtCs1RoSZkFyxqL_4core3fmt5Debug3fmt
FN:125,_RNvXsK_NtNtNtCslHwOwCUw2lI_3rge6vulkan7shaders4glslNtB5_5uvec3NtNtCs1RoSZkFyxqL_4core5clone5Clone5cloneBb_
FN:92,_RNvXss_NtNtNtCslHwOwCUw2lI_3rge6vulkan7shaders4glslNtB5_5ivec3NtNtCs1RoSZkFyxqL_4core7default7Default7defaultBb_
FN:147,_RNvXs15_NtNtNtCslHwOwCUw2lI_3rge6vulkan7shaders4glslNtB6_4vec2NtNtCs1RoSZkFyxqL_4core3fmt5Debug3fmt
FN:125,_RNvXsR_NtNtNtCslHwOwCUw2lI_3rge6vulkan7shaders4glslNtB5_5uvec3NtNtCs1RoSZkFyxqL_4core3fmt5Debug3fmt
FN:158,_RNvXs19_NtNtNtCslHwOwCUw2lI_3rge6vulkan7shaders4glslNtB6_4vec3NtNtCs1RoSZkFyxqL_4core3cmp9PartialEq2eqBc_
FN:191,_RNvXs1r_NtNtNtCslHwOwCUw2lI_3rge6vulkan7shaders4glslNtB6_5dvec3NtNtCs1RoSZkFyxqL_4core3cmp9PartialEq2eqBc_
FN:158,_RNvXs1b_NtNtNtCslHwOwCUw2lI_3rge6vulkan7shaders4glslNtB6_4vec3NtNtCs1RoSZkFyxqL_4core3fmt5Debug3fmt
FN:92,_RNvXsm_NtNtNtCslHwOwCUw2lI_3rge6vulkan7shaders4glslNtB5_5ivec3NtNtCs1RoSZkFyxqL_4core5clone5Clone5cloneBb_
FN:81,_RNvXsk_NtNtNtCslHwOwCUw2lI_3rge6vulkan7shaders4glslNtB5_5ivec2NtNtCs1RoSZkFyxqL_4core7default7Default7defaultBb_
FN:103,_RNvXsu_NtNtNtCslHwOwCUw2lI_3rge6vulkan7shaders4glslNtB5_5ivec4NtNtCs1RoSZkFyxqL_4core5clone5Clone5cloneBb_
FN:191,_RNvXs1s_NtNtNtCslHwOwCUw2lI_3rge6vulkan7shaders4glslNtB6_5dvec3NtNtCs1RoSZkFyxqL_4core7default7Default7defaultBc_
FN:114,_RNvXsH_NtNtNtCslHwOwCUw2lI_3rge6vulkan7shaders4glslNtB5_5uvec2NtNtCs1RoSZkFyxqL_4core3cmp9PartialEq2eqBb_
FN:158,_RNvXs1a_NtNtNtCslHwOwCUw2lI_3rge6vulkan7shaders4glslNtB6_4vec3NtNtCs1RoSZkFyxqL_4core7default7Default7defaultBc_
FN:125,_RNvXsQ_NtNtNtCslHwOwCUw2lI_3rge6vulkan7shaders4glslNtB5_5uvec3NtNtCs1RoSZkFyxqL_4core7default7Default7defaultBb_
FN:103,_RNvXsB_NtNtNtCslHwOwCUw2lI_3rge6vulkan7shaders4glslNtB5_5ivec4NtNtCs1RoSZkFyxqL_4core3fmt5Debug3fmt
FN:136,_RNvXsY_NtNtNtCslHwOwCUw2lI_3rge6vulkan7shaders4glslNtB5_5uvec4NtNtCs1RoSZkFyxqL_4core7default7Default7defaultBb_
FN:180,_RNvXs1i_NtNtNtCslHwOwCUw2lI_3rge6vulkan7shaders4glslNtB6_5dvec2NtNtCs1RoSZkFyxqL_4core5clone5Clone5cloneBc_
FN:191,_RNvXs1o_NtNtNtCslHwOwCUw2lI_3rge6vulkan7shaders4glslNtB6_5dvec3NtNtCs1RoSZkFyxqL_4core5clone5Clone5cloneBc_
FN:114,_RNvXsI_NtNtNtCslHwOwCUw2lI_3rge6vulkan7shaders4glslNtB5_5uvec2NtNtCs1RoSZkFyxqL_4core7default7Default7defaultBb_
FN:169,_RNvXs1f_NtNtNtCslHwOwCUw2lI_3rge6vulkan7shaders4glslNtB6_4vec4NtNtCs1RoSZkFyxqL_4core3cmp9PartialEq2eqBc_
FN:202,_RNvXs1x_NtNtNtCslHwOwCUw2lI_3rge6vulkan7shaders4glslNtB6_5dvec4NtNtCs1RoSZkFyxqL_4core3cmp9PartialEq2eqBc_
FN:147,_RNvXs14_NtNtNtCslHwOwCUw2lI_3rge6vulkan7shaders4glslNtB6_4vec2NtNtCs1RoSZkFyxqL_4core7default7Default7defaultBc_
FN:202,_RNvXs1y_NtNtNtCslHwOwCUw2lI_3rge6vulkan7shaders4glslNtB6_5dvec4NtNtCs1RoSZkFyxqL_4core7default7Default7defaultBc_
FN:147,_RNvXs10_NtNtNtCslHwOwCUw2lI_3rge6vulkan7shaders4glslNtB6_4vec2NtNtCs1RoSZkFyxqL_4core5clone5Clone5cloneBc_
FN:136,_RNvXsS_NtNtNtCslHwOwCUw2lI_3rge6vulkan7shaders4glslNtB5_5uvec4NtNtCs1RoSZkFyxqL_4core5clone5Clone5cloneBb_
FN:158,_RNvXs16_NtNtNtCslHwOwCUw2lI_3rge6vulkan7shaders4glslNtB6_4vec3NtNtCs1RoSZkFyxqL_4core5clone5Clone5cloneBc_
FN:169,_RNvXs1h_NtNtNtCslHwOwCUw2lI_3rge6vulkan7shaders4glslNtB6_4vec4NtNtCs1RoSZkFyxqL_4core3fmt5Debug3fmt
FN:180,_RNvXs1m_NtNtNtCslHwOwCUw2lI_3rge6vulkan7shaders4glslNtB6_5dvec2NtNtCs1RoSZkFyxqL_4core7default7Default7defaultBc_
FN:191,_RNvXs1t_NtNtNtCslHwOwCUw2lI_3rge6vulkan7shaders4glslNtB6_5dvec3NtNtCs1RoSZkFyxqL_4core3fmt5Debug3fmt
FN:202,_RNvXs1z_NtNtNtCslHwOwCUw2lI_3rge6vulkan7shaders4glslNtB6_5dvec4NtNtCs1RoSZkFyxqL_4core3fmt5Debug3fmt
FN:114,_RNvXsC_NtNtNtCslHwOwCUw2lI_3rge6vulkan7shaders4glslNtB5_5uvec2NtNtCs1RoSZkFyxqL_4core5clone5Clone5cloneBb_
FN:92,_RNvXsr_NtNtNtCslHwOwCUw2lI_3rge6vulkan7shaders4glslNtB5_5ivec3NtNtCs1RoSZkFyxqL_4core3cmp9PartialEq2eqBb_
FN:114,_RNvXsJ_NtNtNtCslHwOwCUw2lI_3rge6vulkan7shaders4glslNtB5_5uvec2NtNtCs1RoSZkFyxqL_4core3fmt5Debug3fmt
FN:180,_RNvXs1n_NtNtNtCslHwOwCUw2lI_3rge6vulkan7shaders4glslNtB6_5dvec2NtNtCs1RoSZkFyxqL_4core3fmt5Debug3fmt
FN:169,_RNvXs1g_NtNtNtCslHwOwCUw2lI_3rge6vulkan7shaders4glslNtB6_4vec4NtNtCs1RoSZkFyxqL_4core7default7Default7defaultBc_
FN:169,_RNvXs1c_NtNtNtCsbujzjYX0pAI_3rge6vulkan7shaders4glslNtB6_4vec4NtNtCs1RoSZkFyxqL_4core5clone5Clone5cloneCspRPBrERIy3_5space
FN:147,_RNvXs10_NtNtNtCsbujzjYX0pAI_3rge6vulkan7shaders4glslNtB6_4vec2NtNtCs1RoSZkFyxqL_4core5clone5Clone5cloneCspRPBrERIy3_5space
FNDA:0,_RNvXsu_NtNtNtCsbujzjYX0pAI_3rge6vulkan7shaders4glslNtB5_5ivec4NtNtCs1RoSZkFyxqL_4core5clone5Clone5cloneBb_
FNDA:0,_RNvXsC_NtNtNtCsbujzjYX0pAI_3rge6vulkan7shaders4glslNtB5_5uvec2NtNtCs1RoSZkFyxqL_4core5clone5Clone5cloneBb_
FNDA:0,_RNvXs14_NtNtNtCsbujzjYX0pAI_3rge6vulkan7shaders4glslNtB6_4vec2NtNtCs1RoSZkFyxqL_4core7default7Default7defaultBc_
FNDA:0,_RNvXsA_NtNtNtCsbujzjYX0pAI_3rge6vulkan7shaders4glslNtB5_5ivec4NtNtCs1RoSZkFyxqL_4core7default7Default7defaultBb_
FNDA:0,_RNvXsX_NtNtNtCsbujzjYX0pAI_3rge6vulkan7shaders4glslNtB5_5uvec4NtNtCs1RoSZkFyxqL_4core3cmp9PartialEq2eqBb_
FNDA:0,_RNvXsm_NtNtNtCsbujzjYX0pAI_3rge6vulkan7shaders4glslNtB5_5ivec3NtNtCs1RoSZkFyxqL_4core5clone5Clone5cloneBb_
FNDA:0,_RNvXs1s_NtNtNtCsbujzjYX0pAI_3rge6vulkan7shaders4glslNtB6_5dvec3NtNtCs1RoSZkFyxqL_4core7default7Default7defaultBc_
FNDA:0,_RNvXsk_NtNtNtCsbujzjYX0pAI_3rge6vulkan7shaders4glslNtB5_5ivec2NtNtCs1RoSZkFyxqL_4core7default7Default7defaultBb_
FNDA:0,_RNvXsH_NtNtNtCsbujzjYX0pAI_3rge6vulkan7shaders4glslNtB5_5uvec2NtNtCs1RoSZkFyxqL_4core3cmp9PartialEq2eqBb_
FNDA:0,_RNvXsr_NtNtNtCsbujzjYX0pAI_3rge6vulkan7shaders4glslNtB5_5ivec3NtNtCs1RoSZkFyxqL_4core3cmp9PartialEq2eqBb_
FNDA:0,_RNvXse_NtNtNtCsbujzjYX0pAI_3rge6vulkan7shaders4glslNtB5_5ivec2NtNtCs1RoSZkFyxqL_4core5clone5Clone5cloneBb_
FNDA:0,_RNvXsQ_NtNtNtCsbujzjYX0pAI_3rge6vulkan7shaders4glslNtB5_5uvec3NtNtCs1RoSZkFyxqL_4core7default7Default7defaultBb_
FNDA:0,_RNvXs1l_NtNtNtCsbujzjYX0pAI_3rge6vulkan7shaders4glslNtB6_5dvec2NtNtCs1RoSZkFyxqL_4core3cmp9PartialEq2eqBc_
FNDA:0,_RNvXsz_NtNtNtCsbujzjYX0pAI_3rge6vulkan7shaders4glslNtB5_5ivec4NtNtCs1RoSZkFyxqL_4core3cmp9PartialEq2eqBb_
FNDA:0,_RNvXs1i_NtNtNtCsbujzjYX0pAI_3rge6vulkan7shaders4glslNtB6_5dvec2NtNtCs1RoSZkFyxqL_4core5clone5Clone5cloneBc_
FNDA:0,_RNvXs1y_NtNtNtCsbujzjYX0pAI_3rge6vulkan7shaders4glslNtB6_5dvec4NtNtCs1RoSZkFyxqL_4core7default7Default7defaultBc_
FNDA:0,_RNvXs13_NtNtNtCsbujzjYX0pAI_3rge6vulkan7shaders4glslNtB6_4vec2NtNtCs1RoSZkFyxqL_4core3cmp9PartialEq2eqBc_
FNDA:0,_RNvXs1a_NtNtNtCsbujzjYX0pAI_3rge6vulkan7shaders4glslNtB6_4vec3NtNtCs1RoSZkFyxqL_4core7default7Default7defaultBc_
FNDA:0,_RNvXsY_NtNtNtCsbujzjYX0pAI_3rge6vulkan7shaders4glslNtB5_5uvec4NtNtCs1RoSZkFyxqL_4core7default7Default7defaultBb_
FNDA:0,_RNvXsK_NtNtNtCsbujzjYX0pAI_3rge6vulkan7shaders4glslNtB5_5uvec3NtNtCs1RoSZkFyxqL_4core5clone5Clone5cloneBb_
FNDA:0,_RNvXss_NtNtNtCsbujzjYX0pAI_3rge6vulkan7shaders4glslNtB5_5ivec3NtNtCs1RoSZkFyxqL_4core7default7Default7defaultBb_
FNDA:0,_RNvXsj_NtNtNtCsbujzjYX0pAI_3rge6vulkan7shaders4glslNtB5_5ivec2NtNtCs1RoSZkFyxqL_4core3cmp9PartialEq2eqBb_
FNDA:0,_RNvXs10_NtNtNtCsbujzjYX0pAI_3rge6vulkan7shaders4glslNtB6_4vec2NtNtCs1RoSZkFyxqL_4core5clone5Clone5cloneBc_
FNDA:0,_RNvXsP_NtNtNtCsbujzjYX0pAI_3rge6vulkan7shaders4glslNtB5_5uvec3NtNtCs1RoSZkFyxqL_4core3cmp9PartialEq2eqBb_
FNDA:0,_RNvXs1o_NtNtNtCsbujzjYX0pAI_3rge6vulkan7shaders4glslNtB6_5dvec3NtNtCs1RoSZkFyxqL_4core5clone5Clone5cloneBc_
FNDA:0,_RNvXs1x_NtNtNtCsbujzjYX0pAI_3rge6vulkan7shaders4glslNtB6_5dvec4NtNtCs1RoSZkFyxqL_4core3cmp9PartialEq2eqBc_
FNDA:0,_RNvXs16_NtNtNtCsbujzjYX0pAI_3rge6vulkan7shaders4glslNtB6_4vec3NtNtCs1RoSZkFyxqL_4core5clone5Clone5cloneBc_
FNDA:0,_RNvXsI_NtNtNtCsbujzjYX0pAI_3rge6vulkan7shaders4glslNtB5_5uvec2NtNtCs1RoSZkFyxqL_4core7default7Default7defaultBb_
FNDA:0,_RNvXs1r_NtNtNtCsbujzjYX0pAI_3rge6vulkan7shaders4glslNtB6_5dvec3NtNtCs1RoSZkFyxqL_4core3cmp9PartialEq2eqBc_
FNDA:0,_RNvXs1u_NtNtNtCsbujzjYX0pAI_3rge6vulkan7shaders4glslNtB6_5dvec4NtNtCs1RoSZkFyxqL_4core5clone5Clone5cloneBc_
FNDA:0,_RNvXs1c_NtNtNtCsbujzjYX0pAI_3rge6vulkan7shaders4glslNtB6_4vec4NtNtCs1RoSZkFyxqL_4core5clone5Clone5cloneBc_
FNDA:0,_RNvXs1f_NtNtNtCsbujzjYX0pAI_3rge6vulkan7shaders4glslNtB6_4vec4NtNtCs1RoSZkFyxqL_4core3cmp9PartialEq2eqBc_
FNDA:0,_RNvXsS_NtNtNtCsbujzjYX0pAI_3rge6vulkan7shaders4glslNtB5_5uvec4NtNtCs1RoSZkFyxqL_4core5clone5Clone5cloneBb_
FNDA:0,_RNvXs19_NtNtNtCsbujzjYX0pAI_3rge6vulkan7shaders4glslNtB6_4vec3NtNtCs1RoSZkFyxqL_4core3cmp9PartialEq2eqBc_
FNDA:0,_RNvXs1m_NtNtNtCsbujzjYX0pAI_3rge6vulkan7shaders4glslNtB6_5dvec2NtNtCs1RoSZkFyxqL_4core7default7Default7defaultBc_
FNDA:1,_RNvXs1n_NtNtNtCsbujzjYX0pAI_3rge6vulkan7shaders4glslNtB6_5dvec2NtNtCs1RoSZkFyxqL_4core3fmt5Debug3fmt
FNDA:1,_RNvXs15_NtNtNtCsbujzjYX0pAI_3rge6vulkan7shaders4glslNtB6_4vec2NtNtCs1RoSZkFyxqL_4core3fmt5Debug3fmt
FNDA:1,_RNvXs1b_NtNtNtCsbujzjYX0pAI_3rge6vulkan7shaders4glslNtB6_4vec3NtNtCs1RoSZkFyxqL_4core3fmt5Debug3fmt
FNDA:1,_RNvXs1t_NtNtNtCsbujzjYX0pAI_3rge6vulkan7shaders4glslNtB6_5dvec3NtNtCs1RoSZkFyxqL_4core3fmt5Debug3fmt
FNDA:1,_RNvXst_NtNtNtCsbujzjYX0pAI_3rge6vulkan7shaders4glslNtB5_5ivec3NtNtCs1RoSZkFyxqL_4core3fmt5Debug3fmt
FNDA:1,_RNvXsR_NtNtNtCsbujzjYX0pAI_3rge6vulkan7shaders4glslNtB5_5uvec3NtNtCs1RoSZkFyxqL_4core3fmt5Debug3fmt
FNDA:1,_RNvXsl_NtNtNtCsbujzjYX0pAI_3rge6vulkan7shaders4glslNtB5_5ivec2NtNtCs1RoSZkFyxqL_4core3fmt5Debug3fmt
FNDA:1,_RNvXsB_NtNtNtCsbujzjYX0pAI_3rge6vulkan7shaders4glslNtB5_5ivec4NtNtCs1RoSZkFyxqL_4core3fmt5Debug3fmt
FNDA:1,_RNvXsJ_NtNtNtCsbujzjYX0pAI_3rge6vulkan7shaders4glslNtB5_5uvec2NtNtCs1RoSZkFyxqL_4core3fmt5Debug3fmt
FNDA:1,_RNvXsZ_NtNtNtCsbujzjYX0pAI_3rge6vulkan7shaders4glslNtB5_5uvec4NtNtCs1RoSZkFyxqL_4core3fmt5Debug3fmt
FNDA:6,_RNvXs1g_NtNtNtCsbujzjYX0pAI_3rge6vulkan7shaders4glslNtB6_4vec4NtNtCs1RoSZkFyxqL_4core7default7Default7defaultBc_
FNDA:1,_RNvXs1h_NtNtNtCsbujzjYX0pAI_3rge6vulkan7shaders4glslNtB6_4vec4NtNtCs1RoSZkFyxqL_4core3fmt5Debug3fmt
FNDA:1,_RNvXs1z_NtNtNtCsbujzjYX0pAI_3rge6vulkan7shaders4glslNtB6_5dvec4NtNtCs1RoSZkFyxqL_4core3fmt5Debug3fmt
FNDA:1,_RNvXs1m_NtNtNtCsbujzjYX0pAI_3rge6vulkan7shaders4glslNtB6_5dvec2NtNtCs1RoSZkFyxqL_4core7default7Default7defaultCs3BCTKtn6Vg0_4glsl
FNDA:1,_RNvXsz_NtNtNtCsbujzjYX0pAI_3rge6vulkan7shaders4glslNtB5_5ivec4NtNtCs1RoSZkFyxqL_4core3cmp9PartialEq2eqCs3BCTKtn6Vg0_4glsl
FNDA:1,_RNvXsX_NtNtNtCsbujzjYX0pAI_3rge6vulkan7shaders4glslNtB5_5uvec4NtNtCs1RoSZkFyxqL_4core3cmp9PartialEq2eqCs3BCTKtn6Vg0_4glsl
FNDA:1,_RNvXsr_NtNtNtCsbujzjYX0pAI_3rge6vulkan7shaders4glslNtB5_5ivec3NtNtCs1RoSZkFyxqL_4core3cmp9PartialEq2eqCs3BCTKtn6Vg0_4glsl
FNDA:1,_RNvXsY_NtNtNtCsbujzjYX0pAI_3rge6vulkan7shaders4glslNtB5_5uvec4NtNtCs1RoSZkFyxqL_4core7default7Default7defaultCs3BCTKtn6Vg0_4glsl
FNDA:1,_RNvXsu_NtNtNtCsbujzjYX0pAI_3rge6vulkan7shaders4glslNtB5_5ivec4NtNtCs1RoSZkFyxqL_4core5clone5Clone5cloneCs3BCTKtn6Vg0_4glsl
FNDA:1,_RNvXsS_NtNtNtCsbujzjYX0pAI_3rge6vulkan7shaders4glslNtB5_5uvec4NtNtCs1RoSZkFyxqL_4core5clone5Clone5cloneCs3BCTKtn6Vg0_4glsl
FNDA:1,_RNvXs14_NtNtNtCsbujzjYX0pAI_3rge6vulkan7shaders4glslNtB6_4vec2NtNtCs1RoSZkFyxqL_4core7default7Default7defaultCs3BCTKtn6Vg0_4glsl
FNDA:1,_RNvXs1o_NtNtNtCsbujzjYX0pAI_3rge6vulkan7shaders4glslNtB6_5dvec3NtNtCs1RoSZkFyxqL_4core5clone5Clone5cloneCs3BCTKtn6Vg0_4glsl
FNDA:1,_RNvXsA_NtNtNtCsbujzjYX0pAI_3rge6vulkan7shaders4glslNtB5_5ivec4NtNtCs1RoSZkFyxqL_4core7default7Default7defaultCs3BCTKtn6Vg0_4glsl
FNDA:1,_RNvXsI_NtNtNtCsbujzjYX0pAI_3rge6vulkan7shaders4glslNtB5_5uvec2NtNtCs1RoSZkFyxqL_4core7default7Default7defaultCs3BCTKtn6Vg0_4glsl
FNDA:1,_RNvXs16_NtNtNtCsbujzjYX0pAI_3rge6vulkan7shaders4glslNtB6_4vec3NtNtCs1RoSZkFyxqL_4core5clone5Clone5cloneCs3BCTKtn6Vg0_4glsl
FNDA:13,_RNvXs1f_NtNtNtCsbujzjYX0pAI_3rge6vulkan7shaders4glslNtB6_4vec4NtNtCs1RoSZkFyxqL_4core3cmp9PartialEq2eqCs3BCTKtn6Vg0_4glsl
FNDA:1,_RNvXs1x_NtNtNtCsbujzjYX0pAI_3rge6vulkan7shaders4glslNtB6_5dvec4NtNtCs1RoSZkFyxqL_4core3cmp9PartialEq2eqCs3BCTKtn6Vg0_4glsl
FNDA:1,_RNvXs1y_NtNtNtCsbujzjYX0pAI_3rge6vulkan7shaders4glslNtB6_5dvec4NtNtCs1RoSZkFyxqL_4core7default7Default7defaultCs3BCTKtn6Vg0_4glsl
FNDA:1,_RNvXs1r_NtNtNtCsbujzjYX0pAI_3rge6vulkan7shaders4glslNtB6_5dvec3NtNtCs1RoSZkFyxqL_4core3cmp9PartialEq2eqCs3BCTKtn6Vg0_4glsl
FNDA:1,_RNvXs1s_NtNtNtCsbujzjYX0pAI_3rge6vulkan7shaders4glslNtB6_5dvec3NtNtCs1RoSZkFyxqL_4core7default7Default7defaultCs3BCTKtn6Vg0_4glsl
FNDA:1,_RNvXs1a_NtNtNtCsbujzjYX0pAI_3rge6vulkan7shaders4glslNtB6_4vec3NtNtCs1RoSZkFyxqL_4core7default7Default7defaultCs3BCTKtn6Vg0_4glsl
FNDA:5,_RNvXs19_NtNtNtCsbujzjYX0pAI_3rge6vulkan7shaders4glslNtB6_4vec3NtNtCs1RoSZkFyxqL_4core3cmp9PartialEq2eqCs3BCTKtn6Vg0_4glsl
FNDA:1,_RNvXsj_NtNtNtCsbujzjYX0pAI_3rge6vulkan7shaders4glslNtB5_5ivec2NtNtCs1RoSZkFyxqL_4core3cmp9PartialEq2eqCs3BCTKtn6Vg0_4glsl
FNDA:1,_RNvXsP_NtNtNtCsbujzjYX0pAI_3rge6vulkan7shaders4glslNtB5_5uvec3NtNtCs1RoSZkFyxqL_4core3cmp9PartialEq2eqCs3BCTKtn6Vg0_4glsl
FNDA:1,_RNvXsQ_NtNtNtCsbujzjYX0pAI_3rge6vulkan7shaders4glslNtB5_5uvec3NtNtCs1RoSZkFyxqL_4core7default7Default7defaultCs3BCTKtn6Vg0_4glsl
FNDA:1,_RNvXss_NtNtNtCsbujzjYX0pAI_3rge6vulkan7shaders4glslNtB5_5ivec3NtNtCs1RoSZkFyxqL_4core7default7Default7defaultCs3BCTKtn6Vg0_4glsl
FNDA:1,_RNvXsH_NtNtNtCsbujzjYX0pAI_3rge6vulkan7shaders4glslNtB5_5uvec2NtNtCs1RoSZkFyxqL_4core3cmp9PartialEq2eqCs3BCTKtn6Vg0_4glsl
FNDA:1,_RNvXsm_NtNtNtCsbujzjYX0pAI_3rge6vulkan7shaders4glslNtB5_5ivec3NtNtCs1RoSZkFyxqL_4core5clone5Clone5cloneCs3BCTKtn6Vg0_4glsl
FNDA:3,_RNvXs1g_NtNtNtCsbujzjYX0pAI_3rge6vulkan7shaders4glslNtB6_4vec4NtNtCs1RoSZkFyxqL_4core7default7Default7defaultCs3BCTKtn6Vg0_4glsl
FNDA:1,_RNvXs1u_NtNtNtCsbujzjYX0pAI_3rge6vulkan7shaders4glslNtB6_5dvec4NtNtCs1RoSZkFyxqL_4core5clone5Clone5cloneCs3BCTKtn6Vg0_4glsl
FNDA:1,_RNvXs1c_NtNtNtCsbujzjYX0pAI_3rge6vulkan7shaders4glslNtB6_4vec4NtNtCs1RoSZkFyxqL_4core5clone5Clone5cloneCs3BCTKtn6Vg0_4glsl
FNDA:1,_RNvXse_NtNtNtCsbujzjYX0pAI_3rge6vulkan7shaders4glslNtB5_5ivec2NtNtCs1RoSZkFyxqL_4core5clone5Clone5cloneCs3BCTKtn6Vg0_4glsl
FNDA:1,_RNvXsC_NtNtNtCsbujzjYX0pAI_3rge6vulkan7shaders4glslNtB5_5uvec2NtNtCs1RoSZkFyxqL_4core5clone5Clone5cloneCs3BCTKtn6Vg0_4glsl
FNDA:1,_RNvXs1i_NtNtNtCsbujzjYX0pAI_3rge6vulkan7shaders4glslNtB6_5dvec2NtNtCs1RoSZkFyxqL_4core5clone5Clone5cloneCs3BCTKtn6Vg0_4glsl
FNDA:1,_RNvXsk_NtNtNtCsbujzjYX0pAI_3rge6vulkan7shaders4glslNtB5_5ivec2NtNtCs1RoSZkFyxqL_4core7default7Default7defaultCs3BCTKtn6Vg0_4glsl
FNDA:1,_RNvXs10_NtNtNtCsbujzjYX0pAI_3rge6vulkan7shaders4glslNtB6_4vec2NtNtCs1RoSZkFyxqL_4core5clone5Clone5cloneCs3BCTKtn6Vg0_4glsl
FNDA:1,_RNvXs1l_NtNtNtCsbujzjYX0pAI_3rge6vulkan7shaders4glslNtB6_5dvec2NtNtCs1RoSZkFyxqL_4core3cmp9PartialEq2eqCs3BCTKtn6Vg0_4glsl
FNDA:4,_RNvXs13_NtNtNtCsbujzjYX0pAI_3rge6vulkan7shaders4glslNtB6_4vec2NtNtCs1RoSZkFyxqL_4core3cmp9PartialEq2eqCs3BCTKtn6Vg0_4glsl
FNDA:1,_RNvXsK_NtNtNtCsbujzjYX0pAI_3rge6vulkan7shaders4glslNtB5_5uvec3NtNtCs1RoSZkFyxqL_4core5clone5Clone5cloneCs3BCTKtn6Vg0_4glsl
FNDA:0,_RNvXse_NtNtNtCslHwOwCUw2lI_3rge6vulkan7shaders4glslNtB5_5ivec2NtNtCs1RoSZkFyxqL_4core5clone5Clone5cloneBb_
FNDA:0,_RNvXsj_NtNtNtCslHwOwCUw2lI_3rge6vulkan7shaders4glslNtB5_5ivec2NtNtCs1RoSZkFyxqL_4core3cmp9PartialEq2eqBb_
FNDA:0,_RNvXs1l_NtNtNtCslHwOwCUw2lI_3rge6vulkan7shaders4glslNtB6_5dvec2NtNtCs1RoSZkFyxqL_4core3cmp9PartialEq2eqBc_
FNDA:0,_RNvXs13_NtNtNtCslHwOwCUw2lI_3rge6vulkan7shaders4glslNtB6_4vec2NtNtCs1RoSZkFyxqL_4core3cmp9PartialEq2eqBc_
FNDA:0,_RNvXsz_NtNtNtCslHwOwCUw2lI_3rge6vulkan7shaders4glslNtB5_5ivec4NtNtCs1RoSZkFyxqL_4core3cmp9PartialEq2eqBb_
FNDA:0,_RNvXsl_NtNtNtCslHwOwCUw2lI_3rge6vulkan7shaders4glslNtB5_5ivec2NtNtCs1RoSZkFyxqL_4core3fmt5Debug3fmt
FNDA:0,_RNvXsP_NtNtNtCslHwOwCUw2lI_3rge6vulkan7shaders4glslNtB5_5uvec3NtNtCs1RoSZkFyxqL_4core3cmp9PartialEq2eqBb_
FNDA:0,_RNvXsA_NtNtNtCslHwOwCUw2lI_3rge6vulkan7shaders4glslNtB5_5ivec4NtNtCs1RoSZkFyxqL_4core7default7Default7defaultBb_
FNDA:0,_RNvXsX_NtNtNtCslHwOwCUw2lI_3rge6vulkan7shaders4glslNtB5_5uvec4NtNtCs1RoSZkFyxqL_4core3cmp9PartialEq2eqBb_
FNDA:0,_RNvXs1c_NtNtNtCslHwOwCUw2lI_3rge6vulkan7shaders4glslNtB6_4vec4NtNtCs1RoSZkFyxqL_4core5clone5Clone5cloneBc_
FNDA:0,_RNvXs1u_NtNtNtCslHwOwCUw2lI_3rge6vulkan7shaders4glslNtB6_5dvec4NtNtCs1RoSZkFyxqL_4core5clone5Clone5cloneBc_
FNDA:0,_RNvXst_NtNtNtCslHwOwCUw2lI_3rge6vulkan7shaders4glslNtB5_5ivec3NtNtCs1RoSZkFyxqL_4core3fmt5Debug3fmt
FNDA:0,_RNvXsZ_NtNtNtCslHwOwCUw2lI_3rge6vulkan7shaders4glslNtB5_5uvec4NtNtCs1RoSZkFyxqL_4core3fmt5Debug3fmt
FNDA:0,_RNvXsK_NtNtNtCslHwOwCUw2lI_3rge6vulkan7shaders4glslNtB5_5uvec3NtNtCs1RoSZkFyxqL_4core5clone5Clone5cloneBb_
FNDA:0,_RNvXss_NtNtNtCslHwOwCUw2lI_3rge6vulkan7shaders4glslNtB5_5ivec3NtNtCs1RoSZkFyxqL_4core7default7Default7defaultBb_
FNDA:0,_RNvXs15_NtNtNtCslHwOwCUw2lI_3rge6vulkan7shaders4glslNtB6_4vec2NtNtCs1RoSZkFyxqL_4core3fmt5Debug3fmt
FNDA:0,_RNvXsR_NtNtNtCslHwOwCUw2lI_3rge6vulkan7shaders4glslNtB5_5uvec3NtNtCs1RoSZkFyxqL_4core3fmt5Debug3fmt
FNDA:0,_RNvXs19_NtNtNtCslHwOwCUw2lI_3rge6vulkan7shaders4glslNtB6_4vec3NtNtCs1RoSZkFyxqL_4core3cmp9PartialEq2eqBc_
FNDA:0,_RNvXs1r_NtNtNtCslHwOwCUw2lI_3rge6vulkan7shaders4glslNtB6_5dvec3NtNtCs1RoSZkFyxqL_4core3cmp9PartialEq2eqBc_
FNDA:0,_RNvXs1b_NtNtNtCslHwOwCUw2lI_3rge6vulkan7shaders4glslNtB6_4vec3NtNtCs1RoSZkFyxqL_4core3fmt5Debug3fmt
FNDA:0,_RNvXsm_NtNtNtCslHwOwCUw2lI_3rge6vulkan7shaders4glslNtB5_5ivec3NtNtCs1RoSZkFyxqL_4core5clone5Clone5cloneBb_
FNDA:0,_RNvXsk_NtNtNtCslHwOwCUw2lI_3rge6vulkan7shaders4glslNtB5_5ivec2NtNtCs1RoSZkFyxqL_4core7default7Default7defaultBb_
FNDA:0,_RNvXsu_NtNtNtCslHwOwCUw2lI_3rge6vulkan7shaders4glslNtB5_5ivec4NtNtCs1RoSZkFyxqL_4core5clone5Clone5cloneBb_
FNDA:0,_RNvXs1s_NtNtNtCslHwOwCUw2lI_3rge6vulkan7shaders4glslNtB6_5dvec3NtNtCs1RoSZkFyxqL_4core7default7Default7defaultBc_
FNDA:0,_RNvXsH_NtNtNtCslHwOwCUw2lI_3rge6vulkan7shaders4glslNtB5_5uvec2NtNtCs1RoSZkFyxqL_4core3cmp9PartialEq2eqBb_
FNDA:0,_RNvXs1a_NtNtNtCslHwOwCUw2lI_3rge6vulkan7shaders4glslNtB6_4vec3NtNtCs1RoSZkFyxqL_4core7default7Default7defaultBc_
FNDA:0,_RNvXsQ_NtNtNtCslHwOwCUw2lI_3rge6vulkan7shaders4glslNtB5_5uvec3NtNtCs1RoSZkFyxqL_4core7default7Default7defaultBb_
FNDA:0,_RNvXsB_NtNtNtCslHwOwCUw2lI_3rge6vulkan7shaders4glslNtB5_5ivec4NtNtCs1RoSZkFyxqL_4core3fmt5Debug3fmt
FNDA:0,_RNvXsY_NtNtNtCslHwOwCUw2lI_3rge6vulkan7shaders4glslNtB5_5uvec4NtNtCs1RoSZkFyxqL_4core7default7Default7defaultBb_
FNDA:0,_RNvXs1i_NtNtNtCslHwOwCUw2lI_3rge6vulkan7shaders4glslNtB6_5dvec2NtNtCs1RoSZkFyxqL_4core5clone5Clone5cloneBc_
FNDA:0,_RNvXs1o_NtNtNtCslHwOwCUw2lI_3rge6vulkan7shaders4glslNtB6_5dvec3NtNtCs1RoSZkFyxqL_4core5clone5Clone5cloneBc_
FNDA:0,_RNvXsI_NtNtNtCslHwOwCUw2lI_3rge6vulkan7shaders4glslNtB5_5uvec2NtNtCs1RoSZkFyxqL_4core7default7Default7defaultBb_
FNDA:0,_RNvXs1f_NtNtNtCslHwOwCUw2lI_3rge6vulkan7shaders4glslNtB6_4vec4NtNtCs1RoSZkFyxqL_4core3cmp9PartialEq2eqBc_
FNDA:0,_RNvXs1x_NtNtNtCslHwOwCUw2lI_3rge6vulkan7shaders4glslNtB6_5dvec4NtNtCs1RoSZkFyxqL_4core3cmp9PartialEq2eqBc_
FNDA:0,_RNvXs14_NtNtNtCslHwOwCUw2lI_3rge6vulkan7shaders4glslNtB6_4vec2NtNtCs1RoSZkFyxqL_4core7default7Default7defaultBc_
FNDA:0,_RNvXs1y_NtNtNtCslHwOwCUw2lI_3rge6vulkan7shaders4glslNtB6_5dvec4NtNtCs1RoSZkFyxqL_4core7default7Default7defaultBc_
FNDA:0,_RNvXs10_NtNtNtCslHwOwCUw2lI_3rge6vulkan7shaders4glslNtB6_4vec2NtNtCs1RoSZkFyxqL_4core5clone5Clone5cloneBc_
FNDA:0,_RNvXsS_NtNtNtCslHwOwCUw2lI_3rge6vulkan7shaders4glslNtB5_5uvec4NtNtCs1RoSZkFyxqL_4core5clone5Clone5cloneBb_
FNDA:0,_RNvXs16_NtNtNtCslHwOwCUw2lI_3rge6vulkan7shaders4glslNtB6_4vec3NtNtCs1RoSZkFyxqL_4core5clone5Clone5cloneBc_
FNDA:0,_RNvXs1h_NtNtNtCslHwOwCUw2lI_3rge6vulkan7shaders4glslNtB6_4vec4NtNtCs1RoSZkFyxqL_4core3fmt5Debug3fmt
FNDA:0,_RNvXs1m_NtNtNtCslHwOwCUw2lI_3rge6vulkan7shaders4glslNtB6_5dvec2NtNtCs1RoSZkFyxqL_4core7default7Default7defaultBc_
FNDA:0,_RNvXs1t_NtNtNtCslHwOwCUw2lI_3rge6vulkan7shaders4glslNtB6_5dvec3NtNtCs1RoSZkFyxqL_4core3fmt5Debug3fmt
FNDA:0,_RNvXs1z_NtNtNtCslHwOwCUw2lI_3rge6vulkan7shaders4glslNtB6_5dvec4NtNtCs1RoSZkFyxqL_4core3fmt5Debug3fmt
FNDA:0,_RNvXsC_NtNtNtCslHwOwCUw2lI_3rge6vulkan7shaders4glslNtB5_5uvec2NtNtCs1RoSZkFyxqL_4core5clone5Clone5cloneBb_
FNDA:0,_RNvXsr_NtNtNtCslHwOwCUw2lI_3rge6vulkan7shaders4glslNtB5_5ivec3NtNtCs1RoSZkFyxqL_4core3cmp9PartialEq2eqBb_
FNDA:0,_RNvXsJ_NtNtNtCslHwOwCUw2lI_3rge6vulkan7shaders4glslNtB5_5uvec2NtNtCs1RoSZkFyxqL_4core3fmt5Debug3fmt
FNDA:0,_RNvXs1n_NtNtNtCslHwOwCUw2lI_3rge6vulkan7shaders4glslNtB6_5dvec2NtNtCs1RoSZkFyxqL_4core3fmt5Debug3fmt
FNDA:0,_RNvXs1g_NtNtNtCslHwOwCUw2lI_3rge6vulkan7shaders4glslNtB6_4vec4NtNtCs1RoSZkFyxqL_4core7default7Default7defaultBc_
FNDA:35245,_RNvXs1c_NtNtNtCsbujzjYX0pAI_3rge6vulkan7shaders4glslNtB6_4vec4NtNtCs1RoSZkFyxqL_4core5clone5Clone5cloneCspRPBrERIy3_5space
FNDA:70490,_RNvXs10_NtNtNtCsbujzjYX0pAI_3rge6vulkan7shaders4glslNtB6_4vec2NtNtCs1RoSZkFyxqL_4core5clone5Clone5cloneCspRPBrERIy3_5space
FNF:48
FNH:48
DA:81,1
DA:92,1
DA:103,1
DA:114,1
DA:125,1
DA:136,1
DA:147,70491
DA:158,5
DA:169,35246
DA:180,1
DA:191,1
DA:202,1
BRF:0
BRH:0
LF:48
LH:48
end_of_record
SF:C:\Users\luigi\College\Spring 2023\Capstone\EricGrandizio\rge\src\vulkan\shaders\glsl_shaders\mod.rs
FN:42,_RNvMNtNtNtCsbujzjYX0pAI_3rge6vulkan7shaders12glsl_shadersNtB2_7Shaders7compile
FN:58,_RNvMNtNtNtCsbujzjYX0pAI_3rge6vulkan7shaders12glsl_shadersNtB2_7Shaders18create_render_pass
FN:58,_RNvMNtNtNtCslHwOwCUw2lI_3rge6vulkan7shaders12glsl_shadersNtB2_7Shaders18create_render_pass
FN:42,_RNvMNtNtNtCslHwOwCUw2lI_3rge6vulkan7shaders12glsl_shadersNtB2_7Shaders7compile
FNDA:6,_RNvMNtNtNtCsbujzjYX0pAI_3rge6vulkan7shaders12glsl_shadersNtB2_7Shaders7compile
FNDA:6,_RNvMNtNtNtCsbujzjYX0pAI_3rge6vulkan7shaders12glsl_shadersNtB2_7Shaders18create_render_pass
FNDA:0,_RNvMNtNtNtCslHwOwCUw2lI_3rge6vulkan7shaders12glsl_shadersNtB2_7Shaders18create_render_pass
FNDA:0,_RNvMNtNtNtCslHwOwCUw2lI_3rge6vulkan7shaders12glsl_shadersNtB2_7Shaders7compile
FNF:2
FNH:2
DA:42,6
DA:43,6
DA:44,6
DA:45,6
DA:46,6
DA:47,6
DA:48,6
DA:49,6
DA:50,6
DA:51,6
DA:52,6
DA:53,6
DA:54,6
DA:55,6
DA:58,6
DA:59,6
DA:60,6
DA:61,6
DA:62,6
DA:63,6
DA:64,6
DA:65,6
DA:66,6
DA:67,6
DA:68,6
DA:69,6
DA:70,6
DA:71,6
DA:72,6
DA:73,6
DA:74,6
DA:75,6
DA:76,6
DA:77,6
DA:78,6
DA:79,6
DA:80,6
DA:81,6
DA:82,6
DA:83,6
DA:84,6
DA:85,6
DA:86,6
DA:87,6
DA:88,6
DA:89,6
DA:90,6
DA:91,6
DA:92,6
DA:93,6
DA:94,6
DA:95,6
DA:96,6
DA:97,6
DA:98,6
DA:99,6
DA:100,6
DA:101,6
DA:102,6
DA:103,6
DA:104,6
DA:105,6
DA:106,6
DA:107,6
DA:108,6
DA:109,6
DA:110,6
DA:111,6
DA:112,6
DA:113,6
BRF:0
BRH:0
LF:70
LH:70
end_of_record
SF:C:\Users\luigi\College\Spring 2023\Capstone\EricGrandizio\rge\src\vulkan\shaders\glsl_shaders\rgba.rs
FN:21,_RNvXs3_NtNtNtNtCsbujzjYX0pAI_3rge6vulkan7shaders12glsl_shaders4rgbaNtB5_6VertexNtNtCs1RoSZkFyxqL_4core7default7Default7defaultBd_
FN:21,_RNvXs_NtNtNtNtCsbujzjYX0pAI_3rge6vulkan7shaders12glsl_shaders4rgbaNtB4_6VertexNtNtCs1RoSZkFyxqL_4core5clone5Clone5cloneBc_
FN:21,_RNvXs2_NtNtNtNtCsbujzjYX0pAI_3rge6vulkan7shaders12glsl_shaders4rgbaNtB5_6VertexNtNtCs1RoSZkFyxqL_4core3cmp9PartialEq2eqBd_
FN:59,_RNvMNtNtNtNtCsbujzjYX0pAI_3rge6vulkan7shaders12glsl_shaders4rgbaNtB2_6Shader3new
FN:21,_RNvXs4_NtNtNtNtCsbujzjYX0pAI_3rge6vulkan7shaders12glsl_shaders4rgbaNtB5_6VertexNtNtCs1RoSZkFyxqL_4core3fmt5Debug3fmt
FN:21,_RNvXs2_NtNtNtNtCsbujzjYX0pAI_3rge6vulkan7shaders12glsl_shaders4rgbaNtB5_6VertexNtNtCs1RoSZkFyxqL_4core3cmp9PartialEq2eqCs3BCTKtn6Vg0_4glsl
FN:21,_RNvXs3_NtNtNtNtCsbujzjYX0pAI_3rge6vulkan7shaders12glsl_shaders4rgbaNtB5_6VertexNtNtCs1RoSZkFyxqL_4core7default7Default7defaultCs3BCTKtn6Vg0_4glsl
FN:21,_RNvXs_NtNtNtNtCsbujzjYX0pAI_3rge6vulkan7shaders12glsl_shaders4rgbaNtB4_6VertexNtNtCs1RoSZkFyxqL_4core5clone5Clone5cloneCs3BCTKtn6Vg0_4glsl
FN:21,_RNvXs4_NtNtNtNtCslHwOwCUw2lI_3rge6vulkan7shaders12glsl_shaders4rgbaNtB5_6VertexNtNtCs1RoSZkFyxqL_4core3fmt5Debug3fmt
FN:21,_RNvXs_NtNtNtNtCslHwOwCUw2lI_3rge6vulkan7shaders12glsl_shaders4rgbaNtB4_6VertexNtNtCs1RoSZkFyxqL_4core5clone5Clone5cloneBc_
FN:59,_RNvMNtNtNtNtCslHwOwCUw2lI_3rge6vulkan7shaders12glsl_shaders4rgbaNtB2_6Shader3new
FN:21,_RNvXs2_NtNtNtNtCslHwOwCUw2lI_3rge6vulkan7shaders12glsl_shaders4rgbaNtB5_6VertexNtNtCs1RoSZkFyxqL_4core3cmp9PartialEq2eqBd_
FN:21,_RNvXs3_NtNtNtNtCslHwOwCUw2lI_3rge6vulkan7shaders12glsl_shaders4rgbaNtB5_6VertexNtNtCs1RoSZkFyxqL_4core7default7Default7defaultBd_
FNDA:0,_RNvXs3_NtNtNtNtCsbujzjYX0pAI_3rge6vulkan7shaders12glsl_shaders4rgbaNtB5_6VertexNtNtCs1RoSZkFyxqL_4core7default7Default7defaultBd_
FNDA:0,_RNvXs_NtNtNtNtCsbujzjYX0pAI_3rge6vulkan7shaders12glsl_shaders4rgbaNtB4_6VertexNtNtCs1RoSZkFyxqL_4core5clone5Clone5cloneBc_
FNDA:0,_RNvXs2_NtNtNtNtCsbujzjYX0pAI_3rge6vulkan7shaders12glsl_shaders4rgbaNtB5_6VertexNtNtCs1RoSZkFyxqL_4core3cmp9PartialEq2eqBd_
FNDA:6,_RNvMNtNtNtNtCsbujzjYX0pAI_3rge6vulkan7shaders12glsl_shaders4rgbaNtB2_6Shader3new
FNDA:0,_RNvXs4_NtNtNtNtCsbujzjYX0pAI_3rge6vulkan7shaders12glsl_shaders4rgbaNtB5_6VertexNtNtCs1RoSZkFyxqL_4core3fmt5Debug3fmt
FNDA:1,_RNvXs2_NtNtNtNtCsbujzjYX0pAI_3rge6vulkan7shaders12glsl_shaders4rgbaNtB5_6VertexNtNtCs1RoSZkFyxqL_4core3cmp9PartialEq2eqCs3BCTKtn6Vg0_4glsl
FNDA:1,_RNvXs3_NtNtNtNtCsbujzjYX0pAI_3rge6vulkan7shaders12glsl_shaders4rgbaNtB5_6VertexNtNtCs1RoSZkFyxqL_4core7default7Default7defaultCs3BCTKtn6Vg0_4glsl
FNDA:1,_RNvXs_NtNtNtNtCsbujzjYX0pAI_3rge6vulkan7shaders12glsl_shaders4rgbaNtB4_6VertexNtNtCs1RoSZkFyxqL_4core5clone5Clone5cloneCs3BCTKtn6Vg0_4glsl
FNDA:0,_RNvXs4_NtNtNtNtCslHwOwCUw2lI_3rge6vulkan7shaders12glsl_shaders4rgbaNtB5_6VertexNtNtCs1RoSZkFyxqL_4core3fmt5Debug3fmt
FNDA:0,_RNvXs_NtNtNtNtCslHwOwCUw2lI_3rge6vulkan7shaders12glsl_shaders4rgbaNtB4_6VertexNtNtCs1RoSZkFyxqL_4core5clone5Clone5cloneBc_
FNDA:0,_RNvMNtNtNtNtCslHwOwCUw2lI_3rge6vulkan7shaders12glsl_shaders4rgbaNtB2_6Shader3new
FNDA:0,_RNvXs2_NtNtNtNtCslHwOwCUw2lI_3rge6vulkan7shaders12glsl_shaders4rgbaNtB5_6VertexNtNtCs1RoSZkFyxqL_4core3cmp9PartialEq2eqBd_
FNDA:0,_RNvXs3_NtNtNtNtCslHwOwCUw2lI_3rge6vulkan7shaders12glsl_shaders4rgbaNtB5_6VertexNtNtCs1RoSZkFyxqL_4core7default7Default7defaultBd_
FNF:5
FNH:4
DA:21,1
DA:59,6
DA:60,6
DA:61,6
DA:62,6
DA:63,6
DA:64,6
DA:65,6
DA:66,6
DA:67,6
DA:68,6
DA:69,6
DA:70,6
DA:71,6
DA:72,6
DA:73,6
DA:74,6
DA:75,6
DA:76,6
DA:77,6
DA:78,6
DA:79,6
DA:80,6
DA:81,6
DA:82,6
DA:83,6
DA:84,6
DA:85,6
DA:86,6
DA:87,6
DA:88,6
DA:89,6
DA:90,6
DA:91,6
DA:92,6
DA:93,6
DA:94,6
DA:95,6
DA:96,6
DA:97,6
DA:98,6
DA:99,6
DA:100,6
DA:101,6
DA:102,6
DA:103,6
DA:104,6
DA:105,6
DA:106,6
DA:107,6
DA:108,6
DA:109,6
DA:110,6
DA:111,6
DA:112,6
DA:113,6
DA:114,6
DA:115,6
DA:116,6
DA:117,6
DA:118,6
DA:119,6
DA:120,6
DA:121,6
DA:122,6
DA:123,6
DA:124,6
DA:125,6
DA:126,6
DA:127,6
DA:128,6
DA:129,6
DA:130,6
DA:131,6
DA:132,6
DA:133,6
DA:134,6
DA:135,6
DA:136,6
DA:137,6
DA:138,6
DA:139,6
DA:140,6
DA:141,6
DA:142,6
DA:143,6
DA:144,6
DA:145,6
DA:146,6
DA:147,6
DA:148,6
DA:149,6
DA:150,6
DA:151,6
DA:152,6
DA:153,6
DA:154,6
DA:155,6
DA:156,6
DA:157,6
DA:158,6
DA:159,6
DA:160,6
DA:161,6
DA:162,6
DA:163,6
DA:164,6
DA:165,6
DA:166,6
DA:167,6
DA:168,6
DA:169,6
DA:170,6
DA:171,6
DA:172,6
DA:173,6
DA:174,6
DA:175,6
DA:176,6
DA:177,6
DA:178,6
DA:179,6
DA:180,6
DA:181,6
DA:182,6
DA:183,6
DA:184,6
DA:185,6
DA:186,6
DA:187,6
DA:188,6
DA:189,6
DA:190,6
DA:191,6
DA:192,6
DA:193,6
DA:194,6
DA:195,6
DA:196,6
DA:197,6
DA:198,6
DA:199,6
DA:200,6
DA:201,6
DA:202,6
DA:203,6
DA:204,6
DA:205,6
DA:206,6
DA:207,6
DA:208,6
DA:209,6
DA:210,6
DA:211,6
DA:212,6
DA:213,6
DA:214,6
DA:215,6
DA:216,6
DA:217,6
DA:218,6
DA:219,6
DA:220,6
DA:221,6
DA:222,6
DA:223,6
DA:224,6
DA:225,6
DA:226,6
DA:227,6
DA:228,6
DA:229,6
DA:230,6
DA:231,6
DA:232,6
DA:233,6
DA:234,6
DA:235,6
DA:236,6
DA:237,6
DA:238,6
DA:239,6
DA:240,6
DA:241,6
DA:242,6
DA:243,6
DA:244,6
DA:245,6
DA:246,6
DA:247,6
DA:248,6
DA:249,6
DA:250,6
DA:251,6
DA:252,6
DA:253,6
DA:254,6
DA:255,6
DA:256,6
DA:257,6
DA:258,6
DA:259,6
DA:260,6
DA:261,6
DA:262,6
DA:263,6
DA:264,6
DA:265,6
DA:266,6
DA:267,6
DA:268,6
DA:269,6
DA:270,6
DA:271,6
DA:272,6
DA:273,6
DA:274,6
DA:275,6
DA:276,6
DA:277,6
DA:278,6
DA:279,6
DA:280,6
DA:281,6
DA:282,6
DA:283,6
DA:284,6
DA:285,6
DA:286,6
DA:287,6
DA:288,6
DA:289,6
DA:290,6
DA:291,6
DA:292,6
DA:293,6
DA:294,6
DA:295,6
DA:296,6
DA:297,6
DA:298,6
DA:299,6
DA:300,6
DA:301,6
DA:302,6
DA:303,6
BRF:0
BRH:0
LF:249
LH:248
end_of_record
SF:C:\Users\luigi\College\Spring 2023\Capstone\EricGrandizio\rge\src\vulkan\shaders\glsl_shaders\uv.rs
FN:21,_RNvXs_NtNtNtNtCsbujzjYX0pAI_3rge6vulkan7shaders12glsl_shaders2uvNtB4_6VertexNtNtCs1RoSZkFyxqL_4core5clone5Clone5cloneBc_
FN:21,_RNvXs2_NtNtNtNtCsbujzjYX0pAI_3rge6vulkan7shaders12glsl_shaders2uvNtB5_6VertexNtNtCs1RoSZkFyxqL_4core3cmp9PartialEq2eqBd_
FN:21,_RNvXs3_NtNtNtNtCsbujzjYX0pAI_3rge6vulkan7shaders12glsl_shaders2uvNtB5_6VertexNtNtCs1RoSZkFyxqL_4core7default7Default7defaultBd_
FN:75,_RNvMNtNtNtNtCsbujzjYX0pAI_3rge6vulkan7shaders12glsl_shaders2uvNtB2_6Shader3new
FN:21,_RNvXs4_NtNtNtNtCsbujzjYX0pAI_3rge6vulkan7shaders12glsl_shaders2uvNtB5_6VertexNtNtCs1RoSZkFyxqL_4core3fmt5Debug3fmt
FN:21,_RNvXs4_NtNtNtNtCslHwOwCUw2lI_3rge6vulkan7shaders12glsl_shaders2uvNtB5_6VertexNtNtCs1RoSZkFyxqL_4core3fmt5Debug3fmt
FN:75,_RNvMNtNtNtNtCslHwOwCUw2lI_3rge6vulkan7shaders12glsl_shaders2uvNtB2_6Shader3new
FN:21,_RNvXs2_NtNtNtNtCslHwOwCUw2lI_3rge6vulkan7shaders12glsl_shaders2uvNtB5_6VertexNtNtCs1RoSZkFyxqL_4core3cmp9PartialEq2eqBd_
FN:21,_RNvXs_NtNtNtNtCslHwOwCUw2lI_3rge6vulkan7shaders12glsl_shaders2uvNtB4_6VertexNtNtCs1RoSZkFyxqL_4core5clone5Clone5cloneBc_
FN:21,_RNvXs3_NtNtNtNtCslHwOwCUw2lI_3rge6vulkan7shaders12glsl_shaders2uvNtB5_6VertexNtNtCs1RoSZkFyxqL_4core7default7Default7defaultBd_
FNDA:0,_RNvXs_NtNtNtNtCsbujzjYX0pAI_3rge6vulkan7shaders12glsl_shaders2uvNtB4_6VertexNtNtCs1RoSZkFyxqL_4core5clone5Clone5cloneBc_
FNDA:0,_RNvXs2_NtNtNtNtCsbujzjYX0pAI_3rge6vulkan7shaders12glsl_shaders2uvNtB5_6VertexNtNtCs1RoSZkFyxqL_4core3cmp9PartialEq2eqBd_
FNDA:0,_RNvXs3_NtNtNtNtCsbujzjYX0pAI_3rge6vulkan7shaders12glsl_shaders2uvNtB5_6VertexNtNtCs1RoSZkFyxqL_4core7default7Default7defaultBd_
FNDA:6,_RNvMNtNtNtNtCsbujzjYX0pAI_3rge6vulkan7shaders12glsl_shaders2uvNtB2_6Shader3new
FNDA:0,_RNvXs4_NtNtNtNtCsbujzjYX0pAI_3rge6vulkan7shaders12glsl_shaders2uvNtB5_6VertexNtNtCs1RoSZkFyxqL_4core3fmt5Debug3fmt
FNDA:0,_RNvXs4_NtNtNtNtCslHwOwCUw2lI_3rge6vulkan7shaders12glsl_shaders2uvNtB5_6VertexNtNtCs1RoSZkFyxqL_4core3fmt5Debug3fmt
FNDA:0,_RNvMNtNtNtNtCslHwOwCUw2lI_3rge6vulkan7shaders12glsl_shaders2uvNtB2_6Shader3new
FNDA:0,_RNvXs2_NtNtNtNtCslHwOwCUw2lI_3rge6vulkan7shaders12glsl_shaders2uvNtB5_6VertexNtNtCs1RoSZkFyxqL_4core3cmp9PartialEq2eqBd_
FNDA:0,_RNvXs_NtNtNtNtCslHwOwCUw2lI_3rge6vulkan7shaders12glsl_shaders2uvNtB4_6VertexNtNtCs1RoSZkFyxqL_4core5clone5Clone5cloneBc_
FNDA:0,_RNvXs3_NtNtNtNtCslHwOwCUw2lI_3rge6vulkan7shaders12glsl_shaders2uvNtB5_6VertexNtNtCs1RoSZkFyxqL_4core7default7Default7defaultBd_
FNF:5
FNH:1
DA:21,0
DA:75,6
DA:76,6
DA:77,6
DA:78,6
DA:79,6
DA:80,6
DA:81,6
DA:82,6
DA:83,6
DA:84,6
DA:85,6
DA:86,6
DA:87,6
DA:88,6
DA:89,6
DA:90,6
DA:91,6
DA:92,6
DA:93,6
DA:94,6
DA:95,6
DA:96,6
DA:97,6
DA:98,6
DA:99,6
DA:100,6
DA:101,6
DA:102,6
DA:103,6
DA:104,6
DA:105,6
DA:106,6
DA:107,6
DA:108,6
DA:109,6
DA:110,6
DA:111,6
DA:112,6
DA:113,6
DA:114,6
DA:115,6
DA:116,6
DA:117,6
DA:118,6
DA:119,6
DA:120,6
DA:121,6
DA:122,6
DA:123,6
DA:124,6
DA:125,6
DA:126,6
DA:127,6
DA:128,6
DA:129,6
DA:130,6
DA:131,6
DA:132,6
DA:133,6
DA:134,6
DA:135,6
DA:136,6
DA:137,6
DA:138,6
DA:139,6
DA:140,6
DA:141,6
DA:142,6
DA:143,6
DA:144,6
DA:145,6
DA:146,6
DA:147,6
DA:148,6
DA:149,6
DA:150,6
DA:151,6
DA:152,6
DA:153,6
DA:154,6
DA:155,6
DA:156,6
DA:157,6
DA:158,6
DA:159,6
DA:160,6
DA:161,6
DA:162,6
DA:163,6
DA:164,6
DA:165,6
DA:166,6
DA:167,6
DA:168,6
DA:169,6
DA:170,6
DA:171,6
DA:172,6
DA:173,6
DA:174,6
DA:175,6
DA:176,6
DA:177,6
DA:178,6
DA:179,6
DA:180,6
DA:181,6
DA:182,6
DA:183,6
DA:184,6
DA:185,6
DA:186,6
DA:187,6
DA:188,6
DA:189,6
DA:190,6
DA:191,6
DA:192,6
DA:193,6
DA:194,6
DA:195,6
DA:196,6
DA:197,6
DA:198,6
DA:199,6
DA:200,6
DA:201,6
DA:202,6
DA:203,6
DA:204,6
DA:205,6
DA:206,6
DA:207,6
DA:208,6
DA:209,6
DA:210,6
DA:211,6
DA:212,6
DA:213,6
DA:214,6
DA:215,6
DA:216,6
DA:217,6
DA:218,6
DA:219,6
DA:220,6
DA:221,6
DA:222,6
DA:223,6
DA:224,6
DA:225,6
DA:226,6
DA:227,6
DA:228,6
DA:229,6
DA:230,6
DA:231,6
DA:232,6
DA:233,6
DA:234,6
DA:235,6
DA:236,6
DA:237,6
DA:238,6
DA:239,6
DA:240,6
DA:241,6
DA:242,6
DA:243,6
DA:244,6
DA:245,6
DA:246,6
DA:247,6
DA:248,6
DA:249,6
DA:250,6
DA:251,6
DA:252,6
DA:253,6
DA:254,6
DA:255,6
DA:256,6
DA:257,6
DA:258,6
DA:259,6
DA:260,6
DA:261,6
DA:262,6
DA:263,6
DA:264,6
DA:265,6
DA:266,6
DA:267,6
DA:268,6
DA:269,6
DA:270,6
DA:271,6
DA:272,6
DA:273,6
DA:274,6
DA:275,6
DA:276,6
DA:277,6
DA:278,6
DA:279,6
DA:280,6
DA:281,6
DA:282,6
DA:283,6
DA:284,6
DA:285,6
DA:286,6
DA:287,6
DA:288,6
DA:289,6
DA:290,6
DA:291,6
DA:292,6
DA:293,6
DA:294,6
DA:295,6
DA:296,6
DA:297,6
DA:298,6
DA:299,6
DA:300,6
DA:301,6
DA:302,6
DA:303,6
DA:304,6
DA:305,6
DA:306,6
DA:307,6
DA:308,6
DA:309,6
DA:310,6
DA:311,6
DA:312,6
DA:313,6
DA:314,6
DA:315,6
DA:316,6
DA:317,6
DA:318,6
DA:319,6
DA:320,6
DA:321,6
DA:322,6
DA:323,6
DA:324,6
DA:325,6
DA:326,6
DA:327,6
DA:328,6
DA:329,6
DA:330,6
DA:331,6
DA:332,6
DA:333,6
DA:334,6
DA:335,6
DA:336,6
DA:337,6
DA:338,6
DA:339,6
DA:340,6
DA:341,6
DA:342,6
DA:343,6
DA:344,6
DA:345,6
DA:346,6
DA:347,6
DA:348,6
DA:349,6
DA:350,6
DA:351,6
DA:352,6
DA:353,6
DA:354,6
DA:355,6
DA:356,6
DA:357,6
DA:358,6
DA:359,6
DA:360,6
DA:361,6
DA:362,6
DA:363,6
DA:364,6
DA:365,6
DA:366,6
DA:367,6
DA:368,6
DA:369,6
DA:370,6
DA:371,6
DA:372,6
DA:373,6
DA:374,6
DA:375,6
DA:376,6
BRF:0
BRH:0
LF:306
LH:302
end_of_record
SF:C:\Users\luigi\College\Spring 2023\Capstone\EricGrandizio\rge\src\vulkan\shaders\graphics_pipelines.rs
FN:64,_RNvXs0_NtNtNtCsbujzjYX0pAI_3rge6vulkan7shaders18graphics_pipelinesNtB5_17GraphicsPipelinesNtNtNtCs1RoSZkFyxqL_4core3ops4drop4Drop4drop
FN:31,_RNvMNtNtNtCsbujzjYX0pAI_3rge6vulkan7shaders18graphics_pipelinesNtB2_17GraphicsPipelines6device
FN:44,_RNvMs_NtNtNtCsbujzjYX0pAI_3rge6vulkan7shaders18graphics_pipelinesNtB4_17GraphicsPipelines3new
FN:35,_RNvMNtNtNtCsbujzjYX0pAI_3rge6vulkan7shaders18graphics_pipelinesNtB2_17GraphicsPipelines10ash_device
FN:35,_RNvMNtNtNtCslHwOwCUw2lI_3rge6vulkan7shaders18graphics_pipelinesNtB2_17GraphicsPipelines10ash_device
FN:31,_RNvMNtNtNtCslHwOwCUw2lI_3rge6vulkan7shaders18graphics_pipelinesNtB2_17GraphicsPipelines6device
FN:64,_RNvXs0_NtNtNtCslHwOwCUw2lI_3rge6vulkan7shaders18graphics_pipelinesNtB5_17GraphicsPipelinesNtNtNtCs1RoSZkFyxqL_4core3ops4drop4Drop4drop
FN:44,_RNvMs_NtNtNtCslHwOwCUw2lI_3rge6vulkan7shaders18graphics_pipelinesNtB4_17GraphicsPipelines3new
FNDA:12,_RNvXs0_NtNtNtCsbujzjYX0pAI_3rge6vulkan7shaders18graphics_pipelinesNtB5_17GraphicsPipelinesNtNtNtCs1RoSZkFyxqL_4core3ops4drop4Drop4drop
FNDA:72,_RNvMNtNtNtCsbujzjYX0pAI_3rge6vulkan7shaders18graphics_pipelinesNtB2_17GraphicsPipelines6device
FNDA:12,_RNvMs_NtNtNtCsbujzjYX0pAI_3rge6vulkan7shaders18graphics_pipelinesNtB4_17GraphicsPipelines3new
FNDA:72,_RNvMNtNtNtCsbujzjYX0pAI_3rge6vulkan7shaders18graphics_pipelinesNtB2_17GraphicsPipelines10ash_device
FNDA:0,_RNvMNtNtNtCslHwOwCUw2lI_3rge6vulkan7shaders18graphics_pipelinesNtB2_17GraphicsPipelines10ash_device
FNDA:0,_RNvMNtNtNtCslHwOwCUw2lI_3rge6vulkan7shaders18graphics_pipelinesNtB2_17GraphicsPipelines6device
FNDA:0,_RNvXs0_NtNtNtCslHwOwCUw2lI_3rge6vulkan7shaders18graphics_pipelinesNtB5_17GraphicsPipelinesNtNtNtCs1RoSZkFyxqL_4core3ops4drop4Drop4drop
FNDA:0,_RNvMs_NtNtNtCslHwOwCUw2lI_3rge6vulkan7shaders18graphics_pipelinesNtB4_17GraphicsPipelines3new
FNF:4
FNH:4
DA:31,72
DA:32,72
DA:33,72
DA:35,72
DA:36,72
DA:37,72
DA:44,12
DA:45,12
DA:46,12
DA:47,12
DA:48,12
DA:49,12
DA:50,12
DA:51,12
DA:52,12
DA:53,12
DA:54,12
DA:55,12
DA:56,12
DA:57,12
DA:58,12
DA:59,12
DA:60,12
DA:64,12
DA:65,72
DA:66,72
DA:67,72
DA:68,12
BRF:0
BRH:0
LF:28
LH:28
end_of_record
SF:C:\Users\luigi\College\Spring 2023\Capstone\EricGrandizio\rge\src\vulkan\shaders\memory.rs
FN:90,_RNvXs0_NtNtNtCsbujzjYX0pAI_3rge6vulkan7shaders6memoryNtB5_12DeviceMemoryNtNtNtCs1RoSZkFyxqL_4core3ops4drop4Drop4drop
FN:139,_RNvXs2_NtNtNtCsbujzjYX0pAI_3rge6vulkan7shaders6memoryNtB5_12MappedMemoryNtNtNtCs1RoSZkFyxqL_4core3ops4drop4Drop4drop
FN:149,_RNvMs3_NtNtNtCsbujzjYX0pAI_3rge6vulkan7shaders6memoryNtB5_12MappedMemory5bytes
FN:159,_RNvMs3_NtNtNtCsbujzjYX0pAI_3rge6vulkan7shaders6memoryNtB5_12MappedMemory7copy_to
FN:77,_RNvMs_NtNtNtCsbujzjYX0pAI_3rge6vulkan7shaders6memoryNtB4_12DeviceMemory3map
FN:34,_RNvMNtNtNtCsbujzjYX0pAI_3rge6vulkan7shaders6memoryNtB2_12DeviceMemory6device
FN:38,_RNvMNtNtNtCsbujzjYX0pAI_3rge6vulkan7shaders6memoryNtB2_12DeviceMemory10ash_device
FN:47,_RNvMs_NtNtNtCsbujzjYX0pAI_3rge6vulkan7shaders6memoryNtB4_12DeviceMemory3new
FN:116,_RNvMs1_NtNtNtCsbujzjYX0pAI_3rge6vulkan7shaders6memoryNtB5_12MappedMemory3new
FN:154,_RNvMs3_NtNtNtCsbujzjYX0pAI_3rge6vulkan7shaders6memoryNtB5_12MappedMemory9bytes_mut
FN:116,_RNvMs1_NtNtNtCslHwOwCUw2lI_3rge6vulkan7shaders6memoryNtB5_12MappedMemory3new
FN:34,_RNvMNtNtNtCslHwOwCUw2lI_3rge6vulkan7shaders6memoryNtB2_12DeviceMemory6device
FN:149,_RNvMs3_NtNtNtCslHwOwCUw2lI_3rge6vulkan7shaders6memoryNtB5_12MappedMemory5bytes
FN:90,_RNvXs0_NtNtNtCslHwOwCUw2lI_3rge6vulkan7shaders6memoryNtB5_12DeviceMemoryNtNtNtCs1RoSZkFyxqL_4core3ops4drop4Drop4drop
FN:159,_RNvMs3_NtNtNtCslHwOwCUw2lI_3rge6vulkan7shaders6memoryNtB5_12MappedMemory7copy_to
FN:47,_RNvMs_NtNtNtCslHwOwCUw2lI_3rge6vulkan7shaders6memoryNtB4_12DeviceMemory3new
FN:38,_RNvMNtNtNtCslHwOwCUw2lI_3rge6vulkan7shaders6memoryNtB2_12DeviceMemory10ash_device
FN:77,_RNvMs_NtNtNtCslHwOwCUw2lI_3rge6vulkan7shaders6memoryNtB4_12DeviceMemory3map
FN:139,_RNvXs2_NtNtNtCslHwOwCUw2lI_3rge6vulkan7shaders6memoryNtB5_12MappedMemoryNtNtNtCs1RoSZkFyxqL_4core3ops4drop4Drop4drop
FN:154,_RNvMs3_NtNtNtCslHwOwCUw2lI_3rge6vulkan7shaders6memoryNtB5_12MappedMemory9bytes_mut
FNDA:913,_RNvXs0_NtNtNtCsbujzjYX0pAI_3rge6vulkan7shaders6memoryNtB5_12DeviceMemoryNtNtNtCs1RoSZkFyxqL_4core3ops4drop4Drop4drop
FNDA:16503,_RNvXs2_NtNtNtCsbujzjYX0pAI_3rge6vulkan7shaders6memoryNtB5_12MappedMemoryNtNtNtCs1RoSZkFyxqL_4core3ops4drop4Drop4drop
FNDA:0,_RNvMs3_NtNtNtCsbujzjYX0pAI_3rge6vulkan7shaders6memoryNtB5_12MappedMemory5bytes
FNDA:188059,_RNvMs3_NtNtNtCsbujzjYX0pAI_3rge6vulkan7shaders6memoryNtB5_12MappedMemory7copy_to
FNDA:16503,_RNvMs_NtNtNtCsbujzjYX0pAI_3rge6vulkan7shaders6memoryNtB4_12DeviceMemory3map
FNDA:17416,_RNvMNtNtNtCsbujzjYX0pAI_3rge6vulkan7shaders6memoryNtB2_12DeviceMemory6device
FNDA:913,_RNvMNtNtNtCsbujzjYX0pAI_3rge6vulkan7shaders6memoryNtB2_12DeviceMemory10ash_device
FNDA:913,_RNvMs_NtNtNtCsbujzjYX0pAI_3rge6vulkan7shaders6memoryNtB4_12DeviceMemory3new
FNDA:16503,_RNvMs1_NtNtNtCsbujzjYX0pAI_3rge6vulkan7shaders6memoryNtB5_12MappedMemory3new
FNDA:36163,_RNvMs3_NtNtNtCsbujzjYX0pAI_3rge6vulkan7shaders6memoryNtB5_12MappedMemory9bytes_mut
FNDA:0,_RNvMs1_NtNtNtCslHwOwCUw2lI_3rge6vulkan7shaders6memoryNtB5_12MappedMemory3new
FNDA:0,_RNvMNtNtNtCslHwOwCUw2lI_3rge6vulkan7shaders6memoryNtB2_12DeviceMemory6device
FNDA:0,_RNvMs3_NtNtNtCslHwOwCUw2lI_3rge6vulkan7shaders6memoryNtB5_12MappedMemory5bytes
FNDA:0,_RNvXs0_NtNtNtCslHwOwCUw2lI_3rge6vulkan7shaders6memoryNtB5_12DeviceMemoryNtNtNtCs1RoSZkFyxqL_4core3ops4drop4Drop4drop
FNDA:0,_RNvMs3_NtNtNtCslHwOwCUw2lI_3rge6vulkan7shaders6memoryNtB5_12MappedMemory7copy_to
FNDA:0,_RNvMs_NtNtNtCslHwOwCUw2lI_3rge6vulkan7shaders6memoryNtB4_12DeviceMemory3new
FNDA:0,_RNvMNtNtNtCslHwOwCUw2lI_3rge6vulkan7shaders6memoryNtB2_12DeviceMemory10ash_device
FNDA:0,_RNvMs_NtNtNtCslHwOwCUw2lI_3rge6vulkan7shaders6memoryNtB4_12DeviceMemory3map
FNDA:0,_RNvXs2_NtNtNtCslHwOwCUw2lI_3rge6vulkan7shaders6memoryNtB5_12MappedMemoryNtNtNtCs1RoSZkFyxqL_4core3ops4drop4Drop4drop
FNDA:0,_RNvMs3_NtNtNtCslHwOwCUw2lI_3rge6vulkan7shaders6memoryNtB5_12MappedMemory9bytes_mut
FNF:10
FNH:9
DA:34,17416
DA:35,17416
DA:36,17416
DA:38,913
DA:39,913
DA:40,913
DA:47,913
DA:48,913
DA:49,913
DA:50,913
DA:51,913
DA:52,913
DA:53,913
DA:54,913
DA:55,913
DA:56,913
DA:57,913
DA:58,913
DA:59,913
DA:60,913
DA:61,913
DA:62,913
DA:63,913
DA:64,913
DA:65,913
DA:66,913
DA:67,913
DA:68,913
DA:69,913
DA:70,913
DA:71,913
DA:72,913
DA:73,913
DA:74,913
DA:77,16503
DA:78,16503
DA:79,16503
DA:80,0
DA:85,16503
DA:86,16503
DA:90,913
DA:91,913
DA:92,913
DA:116,16503
DA:117,16503
DA:118,16503
DA:119,16503
DA:120,16503
DA:121,16503
DA:122,16503
DA:123,16503
DA:124,16503
DA:125,16503
DA:126,16503
DA:127,16503
DA:128,16503
DA:129,16503
DA:130,16503
DA:131,16503
DA:132,16503
DA:133,16503
DA:134,16503
DA:135,16503
DA:139,16503
DA:140,16503
DA:141,16503
DA:149,0
DA:150,0
DA:151,0
DA:154,36163
DA:155,36163
DA:156,36163
DA:159,188059
DA:160,188059
DA:161,188059
DA:162,188059
DA:163,188059
DA:164,36163
DA:165,36163
DA:166,151896
DA:168,188059
DA:169,188059
BRF:0
BRH:0
LF:82
LH:78
end_of_record
SF:C:\Users\luigi\College\Spring 2023\Capstone\EricGrandizio\rge\src\vulkan\shaders\pipeline_layout.rs
FN:59,_RNvXs0_NtNtNtCsbujzjYX0pAI_3rge6vulkan7shaders15pipeline_layoutNtB5_14PipelineLayoutNtNtNtCs1RoSZkFyxqL_4core3ops4drop4Drop4drop
FN:44,_RNvMs_NtNtNtCsbujzjYX0pAI_3rge6vulkan7shaders15pipeline_layoutNtB4_14PipelineLayout3new
FN:35,_RNvMNtNtNtCsbujzjYX0pAI_3rge6vulkan7shaders15pipeline_layoutNtB2_14PipelineLayout10ash_device
FN:31,_RNvMNtNtNtCsbujzjYX0pAI_3rge6vulkan7shaders15pipeline_layoutNtB2_14PipelineLayout6device
FN:35,_RNvMNtNtNtCslHwOwCUw2lI_3rge6vulkan7shaders15pipeline_layoutNtB2_14PipelineLayout10ash_device
FN:59,_RNvXs0_NtNtNtCslHwOwCUw2lI_3rge6vulkan7shaders15pipeline_layoutNtB5_14PipelineLayoutNtNtNtCs1RoSZkFyxqL_4core3ops4drop4Drop4drop
FN:31,_RNvMNtNtNtCslHwOwCUw2lI_3rge6vulkan7shaders15pipeline_layoutNtB2_14PipelineLayout6device
FN:44,_RNvMs_NtNtNtCslHwOwCUw2lI_3rge6vulkan7shaders15pipeline_layoutNtB4_14PipelineLayout3new
FNDA:12,_RNvXs0_NtNtNtCsbujzjYX0pAI_3rge6vulkan7shaders15pipeline_layoutNtB5_14PipelineLayoutNtNtNtCs1RoSZkFyxqL_4core3ops4drop4Drop4drop
FNDA:12,_RNvMs_NtNtNtCsbujzjYX0pAI_3rge6vulkan7shaders15pipeline_layoutNtB4_14PipelineLayout3new
FNDA:12,_RNvMNtNtNtCsbujzjYX0pAI_3rge6vulkan7shaders15pipeline_layoutNtB2_14PipelineLayout10ash_device
FNDA:12,_RNvMNtNtNtCsbujzjYX0pAI_3rge6vulkan7shaders15pipeline_layoutNtB2_14PipelineLayout6device
FNDA:0,_RNvMNtNtNtCslHwOwCUw2lI_3rge6vulkan7shaders15pipeline_layoutNtB2_14PipelineLayout10ash_device
FNDA:0,_RNvXs0_NtNtNtCslHwOwCUw2lI_3rge6vulkan7shaders15pipeline_layoutNtB5_14PipelineLayoutNtNtNtCs1RoSZkFyxqL_4core3ops4drop4Drop4drop
FNDA:0,_RNvMNtNtNtCslHwOwCUw2lI_3rge6vulkan7shaders15pipeline_layoutNtB2_14PipelineLayout6device
FNDA:0,_RNvMs_NtNtNtCslHwOwCUw2lI_3rge6vulkan7shaders15pipeline_layoutNtB4_14PipelineLayout3new
FNF:4
FNH:4
DA:31,12
DA:32,12
DA:33,12
DA:35,12
DA:36,12
DA:37,12
DA:44,12
DA:45,12
DA:46,12
DA:47,12
DA:48,12
DA:49,12
DA:50,12
DA:51,12
DA:52,12
DA:53,12
DA:54,12
DA:55,12
DA:59,12
DA:60,12
DA:61,12
BRF:0
BRH:0
LF:21
LH:21
end_of_record
SF:C:\Users\luigi\College\Spring 2023\Capstone\EricGrandizio\rge\src\vulkan\shaders\render_pass.rs
FN:55,_RNvXs0_NtNtNtCsbujzjYX0pAI_3rge6vulkan7shaders11render_passNtB5_10RenderPassNtNtNtCs1RoSZkFyxqL_4core3ops4drop4Drop4drop
FN:31,_RNvMNtNtNtCsbujzjYX0pAI_3rge6vulkan7shaders11render_passNtB2_10RenderPass6device
FN:35,_RNvMNtNtNtCsbujzjYX0pAI_3rge6vulkan7shaders11render_passNtB2_10RenderPass10ash_device
FN:44,_RNvMs_NtNtNtCsbujzjYX0pAI_3rge6vulkan7shaders11render_passNtB4_10RenderPass3new
FN:35,_RNvMNtNtNtCslHwOwCUw2lI_3rge6vulkan7shaders11render_passNtB2_10RenderPass10ash_device
FN:44,_RNvMs_NtNtNtCslHwOwCUw2lI_3rge6vulkan7shaders11render_passNtB4_10RenderPass3new
FN:55,_RNvXs0_NtNtNtCslHwOwCUw2lI_3rge6vulkan7shaders11render_passNtB5_10RenderPassNtNtNtCs1RoSZkFyxqL_4core3ops4drop4Drop4drop
FN:31,_RNvMNtNtNtCslHwOwCUw2lI_3rge6vulkan7shaders11render_passNtB2_10RenderPass6device
FNDA:6,_RNvXs0_NtNtNtCsbujzjYX0pAI_3rge6vulkan7shaders11render_passNtB5_10RenderPassNtNtNtCs1RoSZkFyxqL_4core3ops4drop4Drop4drop
FNDA:6,_RNvMNtNtNtCsbujzjYX0pAI_3rge6vulkan7shaders11render_passNtB2_10RenderPass6device
FNDA:6,_RNvMNtNtNtCsbujzjYX0pAI_3rge6vulkan7shaders11render_passNtB2_10RenderPass10ash_device
FNDA:6,_RNvMs_NtNtNtCsbujzjYX0pAI_3rge6vulkan7shaders11render_passNtB4_10RenderPass3new
FNDA:0,_RNvMNtNtNtCslHwOwCUw2lI_3rge6vulkan7shaders11render_passNtB2_10RenderPass10ash_device
FNDA:0,_RNvMs_NtNtNtCslHwOwCUw2lI_3rge6vulkan7shaders11render_passNtB4_10RenderPass3new
FNDA:0,_RNvXs0_NtNtNtCslHwOwCUw2lI_3rge6vulkan7shaders11render_passNtB5_10RenderPassNtNtNtCs1RoSZkFyxqL_4core3ops4drop4Drop4drop
FNDA:0,_RNvMNtNtNtCslHwOwCUw2lI_3rge6vulkan7shaders11render_passNtB2_10RenderPass6device
FNF:4
FNH:4
DA:31,6
DA:32,6
DA:33,6
DA:35,6
DA:36,6
DA:37,6
DA:44,6
DA:45,6
DA:46,6
DA:47,6
DA:48,6
DA:49,6
DA:50,6
DA:51,6
DA:55,6
DA:56,6
DA:57,6
BRF:0
BRH:0
LF:17
LH:17
end_of_record
SF:C:\Users\luigi\College\Spring 2023\Capstone\EricGrandizio\rge\src\vulkan\shaders\shader_module.rs
FN:76,_RNvXs0_NtNtNtCsbujzjYX0pAI_3rge6vulkan7shaders13shader_moduleNtB5_12ShaderModuleNtNtNtCs1RoSZkFyxqL_4core3ops4drop4Drop4drop
FN:35,_RNvMNtNtNtCsbujzjYX0pAI_3rge6vulkan7shaders13shader_moduleNtB2_12ShaderModule10ash_device
FN:44,_RNvMs_NtNtNtCsbujzjYX0pAI_3rge6vulkan7shaders13shader_moduleNtB4_12ShaderModule7compile
FN:31,_RNvMNtNtNtCsbujzjYX0pAI_3rge6vulkan7shaders13shader_moduleNtB2_12ShaderModule6device
FN:35,_RNvMNtNtNtCslHwOwCUw2lI_3rge6vulkan7shaders13shader_moduleNtB2_12ShaderModule10ash_device
FN:44,_RNvMs_NtNtNtCslHwOwCUw2lI_3rge6vulkan7shaders13shader_moduleNtB4_12ShaderModule7compile
FN:76,_RNvXs0_NtNtNtCslHwOwCUw2lI_3rge6vulkan7shaders13shader_moduleNtB5_12ShaderModuleNtNtNtCs1RoSZkFyxqL_4core3ops4drop4Drop4drop
FN:31,_RNvMNtNtNtCslHwOwCUw2lI_3rge6vulkan7shaders13shader_moduleNtB2_12ShaderModule6device
FNDA:24,_RNvXs0_NtNtNtCsbujzjYX0pAI_3rge6vulkan7shaders13shader_moduleNtB5_12ShaderModuleNtNtNtCs1RoSZkFyxqL_4core3ops4drop4Drop4drop
FNDA:24,_RNvMNtNtNtCsbujzjYX0pAI_3rge6vulkan7shaders13shader_moduleNtB2_12ShaderModule10ash_device
FNDA:24,_RNvMs_NtNtNtCsbujzjYX0pAI_3rge6vulkan7shaders13shader_moduleNtB4_12ShaderModule7compile
FNDA:24,_RNvMNtNtNtCsbujzjYX0pAI_3rge6vulkan7shaders13shader_moduleNtB2_12ShaderModule6device
FNDA:0,_RNvMNtNtNtCslHwOwCUw2lI_3rge6vulkan7shaders13shader_moduleNtB2_12ShaderModule10ash_device
FNDA:0,_RNvMs_NtNtNtCslHwOwCUw2lI_3rge6vulkan7shaders13shader_moduleNtB4_12ShaderModule7compile
FNDA:0,_RNvXs0_NtNtNtCslHwOwCUw2lI_3rge6vulkan7shaders13shader_moduleNtB5_12ShaderModuleNtNtNtCs1RoSZkFyxqL_4core3ops4drop4Drop4drop
FNDA:0,_RNvMNtNtNtCslHwOwCUw2lI_3rge6vulkan7shaders13shader_moduleNtB2_12ShaderModule6device
FNF:4
FNH:4
DA:31,24
DA:32,24
DA:33,24
DA:35,24
DA:36,24
DA:37,24
DA:44,24
DA:45,24
DA:46,24
DA:47,24
DA:48,24
DA:49,24
DA:50,24
DA:51,24
DA:52,24
DA:53,24
DA:54,24
DA:55,24
DA:56,24
DA:57,24
DA:58,24
DA:59,24
DA:60,24
DA:61,24
DA:62,24
DA:63,24
DA:64,24
DA:65,24
DA:66,24
DA:67,24
DA:68,24
DA:69,24
DA:70,24
DA:71,24
DA:72,24
DA:76,24
DA:77,24
DA:78,24
BRF:0
BRH:0
LF:38
LH:38
end_of_record
SF:C:\Users\luigi\College\Spring 2023\Capstone\EricGrandizio\rge\src\vulkan\utils\aliased.rs
FN:37,_RNvXs_NtNtNtCsbujzjYX0pAI_3rge6vulkan5utils7aliasedINtB4_7AliasedNtNtB8_10renderable16VulkanRenderableENtNtNtCs1RoSZkFyxqL_4core3ops4drop4Drop4dropBa_
FN:37,_RNvXs_NtNtNtCsbujzjYX0pAI_3rge6vulkan5utils7aliasedINtB4_7AliasedNtNtCs2vmt5TG3gUg_3ash5entry5EntryENtNtNtCs1RoSZkFyxqL_4core3ops4drop4Drop4dropBa_
FN:37,_RNvXs_NtNtNtCsbujzjYX0pAI_3rge6vulkan5utils7aliasedINtB4_7AliasedNtNtNtB8_7context8instance8InstanceENtNtNtCs1RoSZkFyxqL_4core3ops4drop4Drop4dropBa_
FN:37,_RNvXs_NtNtNtCsbujzjYX0pAI_3rge6vulkan5utils7aliasedINtB4_7AliasedNtNtB8_7context13VulkanContextENtNtNtCs1RoSZkFyxqL_4core3ops4drop4Drop4dropBa_
FN:37,_RNvXs_NtNtNtCsbujzjYX0pAI_3rge6vulkan5utils7aliasedINtB4_7AliasedNtNtNtB8_10renderable11device_exts10DeviceExtsENtNtNtCs1RoSZkFyxqL_4core3ops4drop4Drop4dropBa_
FN:37,_RNvXs_NtNtNtCsbujzjYX0pAI_3rge6vulkan5utils7aliasedINtB4_7AliasedNtNtNtB8_7context13instance_exts12InstanceExtsENtNtNtCs1RoSZkFyxqL_4core3ops4drop4Drop4dropBa_
FN:37,_RNvXs_NtNtNtCsbujzjYX0pAI_3rge6vulkan5utils7aliasedINtB4_7AliasedNtNtNtB8_10renderable6device6DeviceENtNtNtCs1RoSZkFyxqL_4core3ops4drop4Drop4dropBa_
FN:29,_RNvMNtNtNtCsbujzjYX0pAI_3rge6vulkan5utils7aliasedINtB2_7AliasedNtNtB6_10renderable16VulkanRenderableE8from_boxB8_
FN:29,_RNvMNtNtNtCsbujzjYX0pAI_3rge6vulkan5utils7aliasedINtB2_7AliasedNtNtNtB6_10renderable11device_exts10DeviceExtsE8from_boxB8_
FN:29,_RNvMNtNtNtCsbujzjYX0pAI_3rge6vulkan5utils7aliasedINtB2_7AliasedNtNtNtB6_10renderable6device6DeviceE8from_boxB8_
FN:23,_RNvMNtNtNtCsbujzjYX0pAI_3rge6vulkan5utils7aliasedINtB2_7AliasedNtNtB6_7context13VulkanContextE3newB8_
FN:23,_RNvMNtNtNtCsbujzjYX0pAI_3rge6vulkan5utils7aliasedINtB2_7AliasedNtNtNtB6_7context13instance_exts12InstanceExtsE3newB8_
FN:48,_RNvXs0_NtNtNtCsbujzjYX0pAI_3rge6vulkan5utils7aliasedINtB5_7AliasedNtNtB9_10renderable16VulkanRenderableENtNtNtCs1RoSZkFyxqL_4core3ops5deref5Deref5derefBb_
FN:48,_RNvXs0_NtNtNtCsbujzjYX0pAI_3rge6vulkan5utils7aliasedINtB5_7AliasedNtNtNtB9_10renderable11device_exts10DeviceExtsENtNtNtCs1RoSZkFyxqL_4core3ops5deref5Deref5derefBb_
FN:48,_RNvXs0_NtNtNtCsbujzjYX0pAI_3rge6vulkan5utils7aliasedINtB5_7AliasedNtNtNtB9_10renderable6device6DeviceENtNtNtCs1RoSZkFyxqL_4core3ops5deref5Deref5derefBb_
FN:23,_RNvMNtNtNtCsbujzjYX0pAI_3rge6vulkan5utils7aliasedINtB2_7AliasedNtNtNtB6_7context8instance8InstanceE3newB8_
FN:23,_RNvMNtNtNtCsbujzjYX0pAI_3rge6vulkan5utils7aliasedINtB2_7AliasedNtNtCs2vmt5TG3gUg_3ash5entry5EntryE3newB8_
FN:54,_RNvXs1_NtNtNtCsbujzjYX0pAI_3rge6vulkan5utils7aliasedINtB5_7AliasedNtNtB9_10renderable16VulkanRenderableENtNtNtCs1RoSZkFyxqL_4core3ops5deref8DerefMut9deref_mutBb_
FN:29,_RNvMNtNtNtCsbujzjYX0pAI_3rge6vulkan5utils7aliasedINtB2_7AliasedNtNtB6_7context13VulkanContextE8from_boxB8_
FN:29,_RNvMNtNtNtCsbujzjYX0pAI_3rge6vulkan5utils7aliasedINtB2_7AliasedNtNtNtB6_7context13instance_exts12InstanceExtsE8from_boxB8_
FN:23,_RNvMNtNtNtCsbujzjYX0pAI_3rge6vulkan5utils7aliasedINtB2_7AliasedNtNtNtB6_10renderable11device_exts10DeviceExtsE3newB8_
FN:23,_RNvMNtNtNtCsbujzjYX0pAI_3rge6vulkan5utils7aliasedINtB2_7AliasedNtNtNtB6_10renderable6device6DeviceE3newB8_
FN:23,_RNvMNtNtNtCsbujzjYX0pAI_3rge6vulkan5utils7aliasedINtB2_7AliasedNtNtB6_10renderable16VulkanRenderableE3newB8_
FN:48,_RNvXs0_NtNtNtCsbujzjYX0pAI_3rge6vulkan5utils7aliasedINtB5_7AliasedNtNtB9_7context13VulkanContextENtNtNtCs1RoSZkFyxqL_4core3ops5deref5Deref5derefBb_
FN:29,_RNvMNtNtNtCsbujzjYX0pAI_3rge6vulkan5utils7aliasedINtB2_7AliasedNtNtCs2vmt5TG3gUg_3ash5entry5EntryE8from_boxB8_
FN:29,_RNvMNtNtNtCsbujzjYX0pAI_3rge6vulkan5utils7aliasedINtB2_7AliasedNtNtNtB6_7context8instance8InstanceE8from_boxB8_
FN:48,_RNvXs0_NtNtNtCsbujzjYX0pAI_3rge6vulkan5utils7aliasedINtB5_7AliasedNtNtNtB9_7context13instance_exts12InstanceExtsENtNtNtCs1RoSZkFyxqL_4core3ops5deref5Deref5derefBb_
FN:48,_RNvXs0_NtNtNtCsbujzjYX0pAI_3rge6vulkan5utils7aliasedINtB5_7AliasedNtNtCs2vmt5TG3gUg_3ash5entry5EntryENtNtNtCs1RoSZkFyxqL_4core3ops5deref5Deref5derefBb_
FN:48,_RNvXs0_NtNtNtCsbujzjYX0pAI_3rge6vulkan5utils7aliasedINtB5_7AliasedNtNtNtB9_7context8instance8InstanceENtNtNtCs1RoSZkFyxqL_4core3ops5deref5Deref5derefBb_
FN:54,_RNvXININtNtNtCslHwOwCUw2lI_3rge6vulkan5utils7aliaseds1_0pEINtB5_7AliasedpENtNtNtCs1RoSZkFyxqL_4core3ops5deref8DerefMut9deref_mutBb_
FN:48,_RNvXININtNtNtCslHwOwCUw2lI_3rge6vulkan5utils7aliaseds0_0pEINtB5_7AliasedpENtNtNtCs1RoSZkFyxqL_4core3ops5deref5Deref5derefBb_
FN:23,_RNvMNtNtNtCslHwOwCUw2lI_3rge6vulkan5utils7aliasedINtB2_7AliasedpE3newB8_
FN:37,_RNvXININtNtNtCslHwOwCUw2lI_3rge6vulkan5utils7aliaseds_0pEINtB5_7AliasedpENtNtNtCs1RoSZkFyxqL_4core3ops4drop4Drop4dropBb_
FN:29,_RNvMNtNtNtCslHwOwCUw2lI_3rge6vulkan5utils7aliasedINtB2_7AliasedpE8from_boxB8_
FNDA:6,_RNvXs_NtNtNtCsbujzjYX0pAI_3rge6vulkan5utils7aliasedINtB4_7AliasedNtNtB8_10renderable16VulkanRenderableENtNtNtCs1RoSZkFyxqL_4core3ops4drop4Drop4dropBa_
FNDA:6,_RNvXs_NtNtNtCsbujzjYX0pAI_3rge6vulkan5utils7aliasedINtB4_7AliasedNtNtCs2vmt5TG3gUg_3ash5entry5EntryENtNtNtCs1RoSZkFyxqL_4core3ops4drop4Drop4dropBa_
FNDA:6,_RNvXs_NtNtNtCsbujzjYX0pAI_3rge6vulkan5utils7aliasedINtB4_7AliasedNtNtNtB8_7context8instance8InstanceENtNtNtCs1RoSZkFyxqL_4core3ops4drop4Drop4dropBa_
FNDA:6,_RNvXs_NtNtNtCsbujzjYX0pAI_3rge6vulkan5utils7aliasedINtB4_7AliasedNtNtB8_7context13VulkanContextENtNtNtCs1RoSZkFyxqL_4core3ops4drop4Drop4dropBa_
FNDA:6,_RNvXs_NtNtNtCsbujzjYX0pAI_3rge6vulkan5utils7aliasedINtB4_7AliasedNtNtNtB8_10renderable11device_exts10DeviceExtsENtNtNtCs1RoSZkFyxqL_4core3ops4drop4Drop4dropBa_
FNDA:6,_RNvXs_NtNtNtCsbujzjYX0pAI_3rge6vulkan5utils7aliasedINtB4_7AliasedNtNtNtB8_7context13instance_exts12InstanceExtsENtNtNtCs1RoSZkFyxqL_4core3ops4drop4Drop4dropBa_
FNDA:6,_RNvXs_NtNtNtCsbujzjYX0pAI_3rge6vulkan5utils7aliasedINtB4_7AliasedNtNtNtB8_10renderable6device6DeviceENtNtNtCs1RoSZkFyxqL_4core3ops4drop4Drop4dropBa_
FNDA:6,_RNvMNtNtNtCsbujzjYX0pAI_3rge6vulkan5utils7aliasedINtB2_7AliasedNtNtB6_10renderable16VulkanRenderableE8from_boxB8_
FNDA:6,_RNvMNtNtNtCsbujzjYX0pAI_3rge6vulkan5utils7aliasedINtB2_7AliasedNtNtNtB6_10renderable11device_exts10DeviceExtsE8from_boxB8_
FNDA:6,_RNvMNtNtNtCsbujzjYX0pAI_3rge6vulkan5utils7aliasedINtB2_7AliasedNtNtNtB6_10renderable6device6DeviceE8from_boxB8_
FNDA:6,_RNvMNtNtNtCsbujzjYX0pAI_3rge6vulkan5utils7aliasedINtB2_7AliasedNtNtB6_7context13VulkanContextE3newB8_
FNDA:6,_RNvMNtNtNtCsbujzjYX0pAI_3rge6vulkan5utils7aliasedINtB2_7AliasedNtNtNtB6_7context13instance_exts12InstanceExtsE3newB8_
FNDA:6,_RNvXs0_NtNtNtCsbujzjYX0pAI_3rge6vulkan5utils7aliasedINtB5_7AliasedNtNtB9_10renderable16VulkanRenderableENtNtNtCs1RoSZkFyxqL_4core3ops5deref5Deref5derefBb_
FNDA:82,_RNvXs0_NtNtNtCsbujzjYX0pAI_3rge6vulkan5utils7aliasedINtB5_7AliasedNtNtNtB9_10renderable11device_exts10DeviceExtsENtNtNtCs1RoSZkFyxqL_4core3ops5deref5Deref5derefBb_
FNDA:35885,_RNvXs0_NtNtNtCsbujzjYX0pAI_3rge6vulkan5utils7aliasedINtB5_7AliasedNtNtNtB9_10renderable6device6DeviceENtNtNtCs1RoSZkFyxqL_4core3ops5deref5Deref5derefBb_
FNDA:6,_RNvMNtNtNtCsbujzjYX0pAI_3rge6vulkan5utils7aliasedINtB2_7AliasedNtNtNtB6_7context8instance8InstanceE3newB8_
FNDA:6,_RNvMNtNtNtCsbujzjYX0pAI_3rge6vulkan5utils7aliasedINtB2_7AliasedNtNtCs2vmt5TG3gUg_3ash5entry5EntryE3newB8_
FNDA:8738,_RNvXs1_NtNtNtCsbujzjYX0pAI_3rge6vulkan5utils7aliasedINtB5_7AliasedNtNtB9_10renderable16VulkanRenderableENtNtNtCs1RoSZkFyxqL_4core3ops5deref8DerefMut9deref_mutBb_
FNDA:6,_RNvMNtNtNtCsbujzjYX0pAI_3rge6vulkan5utils7aliasedINtB2_7AliasedNtNtB6_7context13VulkanContextE8from_boxB8_
FNDA:6,_RNvMNtNtNtCsbujzjYX0pAI_3rge6vulkan5utils7aliasedINtB2_7AliasedNtNtNtB6_7context13instance_exts12InstanceExtsE8from_boxB8_
FNDA:6,_RNvMNtNtNtCsbujzjYX0pAI_3rge6vulkan5utils7aliasedINtB2_7AliasedNtNtNtB6_10renderable11device_exts10DeviceExtsE3newB8_
FNDA:6,_RNvMNtNtNtCsbujzjYX0pAI_3rge6vulkan5utils7aliasedINtB2_7AliasedNtNtNtB6_10renderable6device6DeviceE3newB8_
FNDA:6,_RNvMNtNtNtCsbujzjYX0pAI_3rge6vulkan5utils7aliasedINtB2_7AliasedNtNtB6_10renderable16VulkanRenderableE3newB8_
FNDA:6,_RNvXs0_NtNtNtCsbujzjYX0pAI_3rge6vulkan5utils7aliasedINtB5_7AliasedNtNtB9_7context13VulkanContextENtNtNtCs1RoSZkFyxqL_4core3ops5deref5Deref5derefBb_
FNDA:6,_RNvMNtNtNtCsbujzjYX0pAI_3rge6vulkan5utils7aliasedINtB2_7AliasedNtNtCs2vmt5TG3gUg_3ash5entry5EntryE8from_boxB8_
FNDA:6,_RNvMNtNtNtCsbujzjYX0pAI_3rge6vulkan5utils7aliasedINtB2_7AliasedNtNtNtB6_7context8instance8InstanceE8from_boxB8_
FNDA:12,_RNvXs0_NtNtNtCsbujzjYX0pAI_3rge6vulkan5utils7aliasedINtB5_7AliasedNtNtNtB9_7context13instance_exts12InstanceExtsENtNtNtCs1RoSZkFyxqL_4core3ops5deref5Deref5derefBb_
FNDA:6,_RNvXs0_NtNtNtCsbujzjYX0pAI_3rge6vulkan5utils7aliasedINtB5_7AliasedNtNtCs2vmt5TG3gUg_3ash5entry5EntryENtNtNtCs1RoSZkFyxqL_4core3ops5deref5Deref5derefBb_
FNDA:12,_RNvXs0_NtNtNtCsbujzjYX0pAI_3rge6vulkan5utils7aliasedINtB5_7AliasedNtNtNtB9_7context8instance8InstanceENtNtNtCs1RoSZkFyxqL_4core3ops5deref5Deref5derefBb_
FNDA:0,_RNvXININtNtNtCslHwOwCUw2lI_3rge6vulkan5utils7aliaseds1_0pEINtB5_7AliasedpENtNtNtCs1RoSZkFyxqL_4core3ops5deref8DerefMut9deref_mutBb_
FNDA:0,_RNvXININtNtNtCslHwOwCUw2lI_3rge6vulkan5utils7aliaseds0_0pEINtB5_7AliasedpENtNtNtCs1RoSZkFyxqL_4core3ops5deref5Deref5derefBb_
FNDA:0,_RNvMNtNtNtCslHwOwCUw2lI_3rge6vulkan5utils7aliasedINtB2_7AliasedpE3newB8_
FNDA:0,_RNvXININtNtNtCslHwOwCUw2lI_3rge6vulkan5utils7aliaseds_0pEINtB5_7AliasedpENtNtNtCs1RoSZkFyxqL_4core3ops4drop4Drop4dropBb_
FNDA:0,_RNvMNtNtNtCslHwOwCUw2lI_3rge6vulkan5utils7aliasedINtB2_7AliasedpE8from_boxB8_
FNF:5
FNH:5
DA:23,42
DA:24,42
DA:25,42
DA:26,42
DA:29,42
DA:30,42
DA:31,42
DA:32,42
DA:33,42
DA:37,42
DA:38,42
DA:39,42
DA:40,42
DA:41,42
DA:42,42
DA:48,36009
DA:49,36009
DA:50,36009
DA:54,8738
DA:55,8738
DA:56,8738
BRF:0
BRH:0
LF:21
LH:21
end_of_record
SF:C:\Users\luigi\College\Spring 2023\Capstone\EricGrandizio\rge\src\vulkan\utils\arrays.rs
FN:28,_RINvNtNtNtCsbujzjYX0pAI_3rge6vulkan5utils6arrays12array_concatpKpKpKpEB8_
FN:16,_RINvNtNtNtCsbujzjYX0pAI_3rge6vulkan5utils6arrays9bytes_refNtNtNtNtB6_7shaders12glsl_shaders4rgba6VertexEB8_
FN:16,_RINvNtNtNtCsbujzjYX0pAI_3rge6vulkan5utils6arrays9bytes_refNtNtB8_7texture4RGBAEB8_
FN:16,_RINvNtNtNtCsbujzjYX0pAI_3rge6vulkan5utils6arrays9bytes_reftEB8_
FN:55,_RINvNtNtNtCsbujzjYX0pAI_3rge6vulkan5utils6arrays17array_intersperseRShKj6_Kjc_EB8_
FN:55,_RINvNtNtNtCsbujzjYX0pAI_3rge6vulkan5utils6arrays17array_intersperseyKj6_Kjc_EB8_
FN:16,_RINvNtNtNtCsbujzjYX0pAI_3rge6vulkan5utils6arrays9bytes_refNtNtNtNtB6_7shaders12glsl_shaders2uv6VertexEB8_
FN:81,_RNCNvNtNtNtCslHwOwCUw2lI_3rge6vulkan5utils6arrays14array_ops_test0B9_
FN:28,_RINvNtNtNtCslHwOwCUw2lI_3rge6vulkan5utils6arrays12array_concatlKj4_KB10_Kj8_EB8_
FN:55,_RINvNtNtNtCslHwOwCUw2lI_3rge6vulkan5utils6arrays17array_intersperselKj4_Kj8_EB8_
FN:16,_RINvNtNtNtCslHwOwCUw2lI_3rge6vulkan5utils6arrays9bytes_refpEB8_
FN:82,_RNvNtNtNtCslHwOwCUw2lI_3rge6vulkan5utils6arrayss_14array_ops_test
FNDA:0,_RINvNtNtNtCsbujzjYX0pAI_3rge6vulkan5utils6arrays12array_concatpKpKpKpEB8_
FNDA:46788,_RINvNtNtNtCsbujzjYX0pAI_3rge6vulkan5utils6arrays9bytes_refNtNtNtNtB6_7shaders12glsl_shaders4rgba6VertexEB8_
FNDA:907,_RINvNtNtNtCsbujzjYX0pAI_3rge6vulkan5utils6arrays9bytes_refNtNtB8_7texture4RGBAEB8_
FNDA:93576,_RINvNtNtNtCsbujzjYX0pAI_3rge6vulkan5utils6arrays9bytes_reftEB8_
FNDA:7798,_RINvNtNtNtCsbujzjYX0pAI_3rge6vulkan5utils6arrays17array_intersperseRShKj6_Kjc_EB8_
FNDA:7798,_RINvNtNtNtCsbujzjYX0pAI_3rge6vulkan5utils6arrays17array_intersperseyKj6_Kjc_EB8_
FNDA:46788,_RINvNtNtNtCsbujzjYX0pAI_3rge6vulkan5utils6arrays9bytes_refNtNtNtNtB6_7shaders12glsl_shaders2uv6VertexEB8_
FNDA:1,_RNCNvNtNtNtCslHwOwCUw2lI_3rge6vulkan5utils6arrays14array_ops_test0B9_
FNDA:1,_RINvNtNtNtCslHwOwCUw2lI_3rge6vulkan5utils6arrays12array_concatlKj4_KB10_Kj8_EB8_
FNDA:1,_RINvNtNtNtCslHwOwCUw2lI_3rge6vulkan5utils6arrays17array_intersperselKj4_Kj8_EB8_
FNDA:0,_RINvNtNtNtCslHwOwCUw2lI_3rge6vulkan5utils6arrays9bytes_refpEB8_
FNDA:1,_RNvNtNtNtCslHwOwCUw2lI_3rge6vulkan5utils6arrayss_14array_ops_test
FNF:5
FNH:5
DA:16,188059
DA:17,188059
DA:18,188059
DA:19,188059
DA:20,188059
DA:28,1
DA:29,1
DA:30,1
DA:31,1
DA:32,1
DA:38,1
DA:39,1
DA:40,1
DA:41,1
DA:42,1
DA:43,1
DA:44,1
DA:45,1
DA:46,1
DA:47,1
DA:55,15597
DA:56,15597
DA:57,15597
DA:58,15597
DA:59,15597
DA:65,15597
DA:66,15597
DA:67,15597
DA:68,15597
DA:70,109177
DA:71,93580
DA:72,93580
DA:73,93580
DA:75,15597
DA:76,15597
DA:81,1
DA:82,1
DA:83,1
DA:84,1
DA:85,1
DA:86,1
DA:87,1
DA:90,1
DA:91,1
DA:92,1
DA:93,1
DA:95,1
BRF:0
BRH:0
LF:47
LH:47
end_of_record
SF:C:\Users\luigi\College\Spring 2023\Capstone\EricGrandizio\rge\src\vulkan\utils\extensions.rs
FN:87,_RNCINvMs_NtNtNtCsbujzjYX0pAI_3rge6vulkan5utils10extensionsNtB7_10Extensions9supportedpE0Bd_
FN:83,_RINvMs_NtNtNtCsbujzjYX0pAI_3rge6vulkan5utils10extensionsNtB5_10Extensions9supportedpEBb_
FN:73,_RNCNvMs_NtNtNtCsbujzjYX0pAI_3rge6vulkan5utils10extensionsNtB6_10Extensions8supports0Bc_
FN:78,_RNCNvMs_NtNtNtCsbujzjYX0pAI_3rge6vulkan5utils10extensionsNtB6_10Extensions12supports_all0Bc_
FN:91,_RINvMs_NtNtNtCsbujzjYX0pAI_3rge6vulkan5utils10extensionsNtB5_10Extensions11unsupportedINtNtNtCs1RoSZkFyxqL_4core5slice4iter4IterNtNtB7_9nt_string8NtStringEEBb_
FN:95,_RNCINvMs_NtNtNtCsbujzjYX0pAI_3rge6vulkan5utils10extensionsNtB7_10Extensions11unsupportedINtNtNtCs1RoSZkFyxqL_4core5slice4iter4IterNtNtB9_9nt_string8NtStringEE0Bd_
FN:65,_RNCNvMs_NtNtNtCsbujzjYX0pAI_3rge6vulkan5utils10extensionsNtB6_10Extensions5names0Bc_
FN:40,_RNvMNtNtNtCsbujzjYX0pAI_3rge6vulkan5utils10extensionsNtB2_10Extensions17required_instance
FN:77,_RNvMs_NtNtNtCsbujzjYX0pAI_3rge6vulkan5utils10extensionsNtB4_10Extensions12supports_all
FN:64,_RNvMs_NtNtNtCsbujzjYX0pAI_3rge6vulkan5utils10extensionsNtB4_10Extensions5names
FN:25,_RNvMNtNtNtCsbujzjYX0pAI_3rge6vulkan5utils10extensionsNtB2_10Extensions18supported_instance
FN:55,_RNvMNtNtNtCsbujzjYX0pAI_3rge6vulkan5utils10extensionsNtB2_10Extensions15required_device
FN:31,_RNvMNtNtNtCsbujzjYX0pAI_3rge6vulkan5utils10extensionsNtB2_10Extensions16supported_device
FN:72,_RNvMs_NtNtNtCsbujzjYX0pAI_3rge6vulkan5utils10extensionsNtB4_10Extensions8supports
FN:31,_RNvMNtNtNtCslHwOwCUw2lI_3rge6vulkan5utils10extensionsNtB2_10Extensions16supported_device
FN:25,_RNvMNtNtNtCslHwOwCUw2lI_3rge6vulkan5utils10extensionsNtB2_10Extensions18supported_instance
FN:77,_RNvMs_NtNtNtCslHwOwCUw2lI_3rge6vulkan5utils10extensionsNtB4_10Extensions12supports_all
FN:55,_RNvMNtNtNtCslHwOwCUw2lI_3rge6vulkan5utils10extensionsNtB2_10Extensions15required_device
FN:95,_RNCINvMs_NtNtNtCslHwOwCUw2lI_3rge6vulkan5utils10extensionsNtB7_10Extensions11unsupportedpE0Bd_
FN:40,_RNvMNtNtNtCslHwOwCUw2lI_3rge6vulkan5utils10extensionsNtB2_10Extensions17required_instance
FN:91,_RINvMs_NtNtNtCslHwOwCUw2lI_3rge6vulkan5utils10extensionsNtB5_10Extensions11unsupportedpEBb_
FN:87,_RNCINvMs_NtNtNtCslHwOwCUw2lI_3rge6vulkan5utils10extensionsNtB7_10Extensions9supportedpE0Bd_
FN:78,_RNCNvMs_NtNtNtCslHwOwCUw2lI_3rge6vulkan5utils10extensionsNtB6_10Extensions12supports_all0Bc_
FN:72,_RNvMs_NtNtNtCslHwOwCUw2lI_3rge6vulkan5utils10extensionsNtB4_10Extensions8supports
FN:73,_RNCNvMs_NtNtNtCslHwOwCUw2lI_3rge6vulkan5utils10extensionsNtB6_10Extensions8supports0Bc_
FN:64,_RNvMs_NtNtNtCslHwOwCUw2lI_3rge6vulkan5utils10extensionsNtB4_10Extensions5names
FN:65,_RNCNvMs_NtNtNtCslHwOwCUw2lI_3rge6vulkan5utils10extensionsNtB6_10Extensions5names0Bc_
FN:83,_RINvMs_NtNtNtCslHwOwCUw2lI_3rge6vulkan5utils10extensionsNtB5_10Extensions9supportedpEBb_
FNDA:0,_RNCINvMs_NtNtNtCsbujzjYX0pAI_3rge6vulkan5utils10extensionsNtB7_10Extensions9supportedpE0Bd_
FNDA:0,_RINvMs_NtNtNtCsbujzjYX0pAI_3rge6vulkan5utils10extensionsNtB5_10Extensions9supportedpEBb_
FNDA:840,_RNCNvMs_NtNtNtCsbujzjYX0pAI_3rge6vulkan5utils10extensionsNtB6_10Extensions8supports0Bc_
FNDA:12,_RNCNvMs_NtNtNtCsbujzjYX0pAI_3rge6vulkan5utils10extensionsNtB6_10Extensions12supports_all0Bc_
FNDA:6,_RINvMs_NtNtNtCsbujzjYX0pAI_3rge6vulkan5utils10extensionsNtB5_10Extensions11unsupportedINtNtNtCs1RoSZkFyxqL_4core5slice4iter4IterNtNtB7_9nt_string8NtStringEEBb_
FNDA:18,_RNCINvMs_NtNtNtCsbujzjYX0pAI_3rge6vulkan5utils10extensionsNtB7_10Extensions11unsupportedINtNtNtCs1RoSZkFyxqL_4core5slice4iter4IterNtNtB9_9nt_string8NtStringEE0Bd_
FNDA:840,_RNCNvMs_NtNtNtCsbujzjYX0pAI_3rge6vulkan5utils10extensionsNtB6_10Extensions5names0Bc_
FNDA:6,_RNvMNtNtNtCsbujzjYX0pAI_3rge6vulkan5utils10extensionsNtB2_10Extensions17required_instance
FNDA:12,_RNvMs_NtNtNtCsbujzjYX0pAI_3rge6vulkan5utils10extensionsNtB4_10Extensions12supports_all
FNDA:30,_RNvMs_NtNtNtCsbujzjYX0pAI_3rge6vulkan5utils10extensionsNtB4_10Extensions5names
FNDA:6,_RNvMNtNtNtCsbujzjYX0pAI_3rge6vulkan5utils10extensionsNtB2_10Extensions18supported_instance
FNDA:12,_RNvMNtNtNtCsbujzjYX0pAI_3rge6vulkan5utils10extensionsNtB2_10Extensions15required_device
FNDA:12,_RNvMNtNtNtCsbujzjYX0pAI_3rge6vulkan5utils10extensionsNtB2_10Extensions16supported_device
FNDA:30,_RNvMs_NtNtNtCsbujzjYX0pAI_3rge6vulkan5utils10extensionsNtB4_10Extensions8supports
FNDA:0,_RNvMNtNtNtCslHwOwCUw2lI_3rge6vulkan5utils10extensionsNtB2_10Extensions16supported_device
FNDA:0,_RNvMNtNtNtCslHwOwCUw2lI_3rge6vulkan5utils10extensionsNtB2_10Extensions18supported_instance
FNDA:0,_RNvMs_NtNtNtCslHwOwCUw2lI_3rge6vulkan5utils10extensionsNtB4_10Extensions12supports_all
FNDA:0,_RNvMNtNtNtCslHwOwCUw2lI_3rge6vulkan5utils10extensionsNtB2_10Extensions15required_device
FNDA:0,_RNCINvMs_NtNtNtCslHwOwCUw2lI_3rge6vulkan5utils10extensionsNtB7_10Extensions11unsupportedpE0Bd_
FNDA:0,_RNvMNtNtNtCslHwOwCUw2lI_3rge6vulkan5utils10extensionsNtB2_10Extensions17required_instance
FNDA:0,_RINvMs_NtNtNtCslHwOwCUw2lI_3rge6vulkan5utils10extensionsNtB5_10Extensions11unsupportedpEBb_
FNDA:0,_RNCINvMs_NtNtNtCslHwOwCUw2lI_3rge6vulkan5utils10extensionsNtB7_10Extensions9supportedpE0Bd_
FNDA:0,_RNCNvMs_NtNtNtCslHwOwCUw2lI_3rge6vulkan5utils10extensionsNtB6_10Extensions12supports_all0Bc_
FNDA:0,_RNvMs_NtNtNtCslHwOwCUw2lI_3rge6vulkan5utils10extensionsNtB4_10Extensions8supports
FNDA:0,_RNCNvMs_NtNtNtCslHwOwCUw2lI_3rge6vulkan5utils10extensionsNtB6_10Extensions8supports0Bc_
FNDA:0,_RNvMs_NtNtNtCslHwOwCUw2lI_3rge6vulkan5utils10extensionsNtB4_10Extensions5names
FNDA:0,_RNCNvMs_NtNtNtCslHwOwCUw2lI_3rge6vulkan5utils10extensionsNtB6_10Extensions5names0Bc_
FNDA:0,_RINvMs_NtNtNtCslHwOwCUw2lI_3rge6vulkan5utils10extensionsNtB5_10Extensions9supportedpEBb_
FNF:14
FNH:12
DA:25,6
DA:26,6
DA:27,6
DA:28,6
DA:31,12
DA:32,12
DA:33,12
DA:34,12
DA:35,12
DA:36,12
DA:37,12
DA:40,6
DA:41,6
DA:42,6
DA:43,6
DA:44,6
DA:45,6
DA:46,6
DA:47,6
DA:48,6
DA:49,6
DA:50,6
DA:51,6
DA:52,6
DA:55,12
DA:56,12
DA:57,12
DA:64,30
DA:65,840
DA:66,840
DA:67,840
DA:68,840
DA:69,30
DA:72,30
DA:73,840
DA:74,30
DA:77,12
DA:78,12
DA:79,12
DA:83,0
DA:84,0
DA:85,0
DA:86,0
DA:87,0
DA:88,0
DA:91,6
DA:92,6
DA:93,6
DA:94,6
DA:95,18
DA:96,6
BRF:0
BRH:0
LF:57
LH:50
end_of_record
SF:C:\Users\luigi\College\Spring 2023\Capstone\EricGrandizio\rge\src\vulkan\utils\layers.rs
FN:77,_RNCINvMs_NtNtNtCsbujzjYX0pAI_3rge6vulkan5utils6layersNtB7_6Layers9supportedpE0Bd_
FN:73,_RINvMs_NtNtNtCsbujzjYX0pAI_3rge6vulkan5utils6layersNtB5_6Layers9supportedpEBb_
FN:81,_RINvMs_NtNtNtCsbujzjYX0pAI_3rge6vulkan5utils6layersNtB5_6Layers11unsupportedINtNtNtCs1RoSZkFyxqL_4core5slice4iter4IterNtNtB7_9nt_string8NtStringEEBb_
FN:85,_RNCINvMs_NtNtNtCsbujzjYX0pAI_3rge6vulkan5utils6layersNtB7_6Layers11unsupportedINtNtNtCs1RoSZkFyxqL_4core5slice4iter4IterNtNtB9_9nt_string8NtStringEE0Bd_
FN:55,_RNCNvMs_NtNtNtCsbujzjYX0pAI_3rge6vulkan5utils6layersNtB6_6Layers5names0Bc_
FN:63,_RNCNvMs_NtNtNtCsbujzjYX0pAI_3rge6vulkan5utils6layersNtB6_6Layers8supports0Bc_
FN:68,_RNCNvMs_NtNtNtCsbujzjYX0pAI_3rge6vulkan5utils6layersNtB6_6Layers12supports_all0Bc_
FN:25,_RNvMNtNtNtCsbujzjYX0pAI_3rge6vulkan5utils6layersNtB2_6Layers18supported_instance
FN:40,_RNvMNtNtNtCsbujzjYX0pAI_3rge6vulkan5utils6layersNtB2_6Layers17required_instance
FN:54,_RNvMs_NtNtNtCsbujzjYX0pAI_3rge6vulkan5utils6layersNtB4_6Layers5names
FN:31,_RNvMNtNtNtCsbujzjYX0pAI_3rge6vulkan5utils6layersNtB2_6Layers16supported_device
FN:45,_RNvMNtNtNtCsbujzjYX0pAI_3rge6vulkan5utils6layersNtB2_6Layers15required_device
FN:62,_RNvMs_NtNtNtCsbujzjYX0pAI_3rge6vulkan5utils6layersNtB4_6Layers8supports
FN:67,_RNvMs_NtNtNtCsbujzjYX0pAI_3rge6vulkan5utils6layersNtB4_6Layers12supports_all
FN:68,_RNCNvMs_NtNtNtCslHwOwCUw2lI_3rge6vulkan5utils6layersNtB6_6Layers12supports_all0Bc_
FN:40,_RNvMNtNtNtCslHwOwCUw2lI_3rge6vulkan5utils6layersNtB2_6Layers17required_instance
FN:63,_RNCNvMs_NtNtNtCslHwOwCUw2lI_3rge6vulkan5utils6layersNtB6_6Layers8supports0Bc_
FN:54,_RNvMs_NtNtNtCslHwOwCUw2lI_3rge6vulkan5utils6layersNtB4_6Layers5names
FN:55,_RNCNvMs_NtNtNtCslHwOwCUw2lI_3rge6vulkan5utils6layersNtB6_6Layers5names0Bc_
FN:73,_RINvMs_NtNtNtCslHwOwCUw2lI_3rge6vulkan5utils6layersNtB5_6Layers9supportedpEBb_
FN:25,_RNvMNtNtNtCslHwOwCUw2lI_3rge6vulkan5utils6layersNtB2_6Layers18supported_instance
FN:62,_RNvMs_NtNtNtCslHwOwCUw2lI_3rge6vulkan5utils6layersNtB4_6Layers8supports
FN:31,_RNvMNtNtNtCslHwOwCUw2lI_3rge6vulkan5utils6layersNtB2_6Layers16supported_device
FN:85,_RNCINvMs_NtNtNtCslHwOwCUw2lI_3rge6vulkan5utils6layersNtB7_6Layers11unsupportedpE0Bd_
FN:67,_RNvMs_NtNtNtCslHwOwCUw2lI_3rge6vulkan5utils6layersNtB4_6Layers12supports_all
FN:77,_RNCINvMs_NtNtNtCslHwOwCUw2lI_3rge6vulkan5utils6layersNtB7_6Layers9supportedpE0Bd_
FN:45,_RNvMNtNtNtCslHwOwCUw2lI_3rge6vulkan5utils6layersNtB2_6Layers15required_device
FN:81,_RINvMs_NtNtNtCslHwOwCUw2lI_3rge6vulkan5utils6layersNtB5_6Layers11unsupportedpEBb_
FNDA:0,_RNCINvMs_NtNtNtCsbujzjYX0pAI_3rge6vulkan5utils6layersNtB7_6Layers9supportedpE0Bd_
FNDA:0,_RINvMs_NtNtNtCsbujzjYX0pAI_3rge6vulkan5utils6layersNtB5_6Layers9supportedpEBb_
FNDA:6,_RINvMs_NtNtNtCsbujzjYX0pAI_3rge6vulkan5utils6layersNtB5_6Layers11unsupportedINtNtNtCs1RoSZkFyxqL_4core5slice4iter4IterNtNtB7_9nt_string8NtStringEEBb_
FNDA:6,_RNCINvMs_NtNtNtCsbujzjYX0pAI_3rge6vulkan5utils6layersNtB7_6Layers11unsupportedINtNtNtCs1RoSZkFyxqL_4core5slice4iter4IterNtNtB9_9nt_string8NtStringEE0Bd_
FNDA:84,_RNCNvMs_NtNtNtCsbujzjYX0pAI_3rge6vulkan5utils6layersNtB6_6Layers5names0Bc_
FNDA:84,_RNCNvMs_NtNtNtCsbujzjYX0pAI_3rge6vulkan5utils6layersNtB6_6Layers8supports0Bc_
FNDA:12,_RNCNvMs_NtNtNtCsbujzjYX0pAI_3rge6vulkan5utils6layersNtB6_6Layers12supports_all0Bc_
FNDA:6,_RNvMNtNtNtCsbujzjYX0pAI_3rge6vulkan5utils6layersNtB2_6Layers18supported_instance
FNDA:6,_RNvMNtNtNtCsbujzjYX0pAI_3rge6vulkan5utils6layersNtB2_6Layers17required_instance
FNDA:18,_RNvMs_NtNtNtCsbujzjYX0pAI_3rge6vulkan5utils6layersNtB4_6Layers5names
FNDA:12,_RNvMNtNtNtCsbujzjYX0pAI_3rge6vulkan5utils6layersNtB2_6Layers16supported_device
FNDA:12,_RNvMNtNtNtCsbujzjYX0pAI_3rge6vulkan5utils6layersNtB2_6Layers15required_device
FNDA:18,_RNvMs_NtNtNtCsbujzjYX0pAI_3rge6vulkan5utils6layersNtB4_6Layers8supports
FNDA:12,_RNvMs_NtNtNtCsbujzjYX0pAI_3rge6vulkan5utils6layersNtB4_6Layers12supports_all
FNDA:0,_RNCNvMs_NtNtNtCslHwOwCUw2lI_3rge6vulkan5utils6layersNtB6_6Layers12supports_all0Bc_
FNDA:0,_RNvMNtNtNtCslHwOwCUw2lI_3rge6vulkan5utils6layersNtB2_6Layers17required_instance
FNDA:0,_RNCNvMs_NtNtNtCslHwOwCUw2lI_3rge6vulkan5utils6layersNtB6_6Layers8supports0Bc_
FNDA:0,_RNvMs_NtNtNtCslHwOwCUw2lI_3rge6vulkan5utils6layersNtB4_6Layers5names
FNDA:0,_RNCNvMs_NtNtNtCslHwOwCUw2lI_3rge6vulkan5utils6layersNtB6_6Layers5names0Bc_
FNDA:0,_RINvMs_NtNtNtCslHwOwCUw2lI_3rge6vulkan5utils6layersNtB5_6Layers9supportedpEBb_
FNDA:0,_RNvMNtNtNtCslHwOwCUw2lI_3rge6vulkan5utils6layersNtB2_6Layers18supported_instance
FNDA:0,_RNvMs_NtNtNtCslHwOwCUw2lI_3rge6vulkan5utils6layersNtB4_6Layers8supports
FNDA:0,_RNvMNtNtNtCslHwOwCUw2lI_3rge6vulkan5utils6layersNtB2_6Layers16supported_device
FNDA:0,_RNCINvMs_NtNtNtCslHwOwCUw2lI_3rge6vulkan5utils6layersNtB7_6Layers11unsupportedpE0Bd_
FNDA:0,_RNvMs_NtNtNtCslHwOwCUw2lI_3rge6vulkan5utils6layersNtB4_6Layers12supports_all
FNDA:0,_RNCINvMs_NtNtNtCslHwOwCUw2lI_3rge6vulkan5utils6layersNtB7_6Layers9supportedpE0Bd_
FNDA:0,_RNvMNtNtNtCslHwOwCUw2lI_3rge6vulkan5utils6layersNtB2_6Layers15required_device
FNDA:0,_RINvMs_NtNtNtCslHwOwCUw2lI_3rge6vulkan5utils6layersNtB5_6Layers11unsupportedpEBb_
FNF:14
FNH:12
DA:25,6
DA:26,6
DA:27,6
DA:28,6
DA:31,12
DA:32,12
DA:33,12
DA:34,12
DA:35,12
DA:36,12
DA:37,12
DA:40,6
DA:41,6
DA:42,6
DA:45,12
DA:46,12
DA:47,12
DA:54,18
DA:55,84
DA:56,84
DA:57,84
DA:58,84
DA:59,18
DA:62,18
DA:63,84
DA:64,18
DA:67,12
DA:68,12
DA:69,12
DA:73,0
DA:74,0
DA:75,0
DA:76,0
DA:77,0
DA:78,0
DA:81,6
DA:82,6
DA:83,6
DA:84,6
DA:85,6
DA:86,6
BRF:0
BRH:0
LF:47
LH:40
end_of_record
SF:C:\Users\luigi\College\Spring 2023\Capstone\EricGrandizio\rge\src\vulkan\utils\mod.rs
FN:45,_RNvNtNtCsbujzjYX0pAI_3rge6vulkan5utils11api_version
FN:56,_RNvNtNtCsbujzjYX0pAI_3rge6vulkan5utils16find_memory_type
FN:61,_RNCNvNtNtCsbujzjYX0pAI_3rge6vulkan5utils16find_memory_type0B7_
FN:61,_RNCNvNtNtCslHwOwCUw2lI_3rge6vulkan5utils16find_memory_type0B7_
FN:56,_RNvNtNtCslHwOwCUw2lI_3rge6vulkan5utils16find_memory_type
FN:45,_RNvNtNtCslHwOwCUw2lI_3rge6vulkan5utils11api_version
FN:75,_RNvNtNtCslHwOwCUw2lI_3rge6vulkan5utilss_16api_version_test
FN:74,_RNCNvNtNtCslHwOwCUw2lI_3rge6vulkan5utils16api_version_test0B7_
FNDA:0,_RNvNtNtCsbujzjYX0pAI_3rge6vulkan5utils11api_version
FNDA:913,_RNvNtNtCsbujzjYX0pAI_3rge6vulkan5utils16find_memory_type
FNDA:1832,_RNCNvNtNtCsbujzjYX0pAI_3rge6vulkan5utils16find_memory_type0B7_
FNDA:0,_RNCNvNtNtCslHwOwCUw2lI_3rge6vulkan5utils16find_memory_type0B7_
FNDA:0,_RNvNtNtCslHwOwCUw2lI_3rge6vulkan5utils16find_memory_type
FNDA:1,_RNvNtNtCslHwOwCUw2lI_3rge6vulkan5utils11api_version
FNDA:1,_RNvNtNtCslHwOwCUw2lI_3rge6vulkan5utilss_16api_version_test
FNDA:1,_RNCNvNtNtCslHwOwCUw2lI_3rge6vulkan5utils16api_version_test0B7_
FNF:5
FNH:5
DA:45,1
DA:46,1
DA:47,1
DA:48,1
DA:49,1
DA:50,1
DA:51,1
DA:56,913
DA:57,913
DA:58,913
DA:59,913
DA:60,913
DA:61,1832
DA:62,1832
DA:63,1832
DA:64,1832
DA:65,1832
DA:66,1832
DA:67,1832
DA:68,1832
DA:69,913
DA:74,1
DA:75,1
DA:76,1
DA:77,1
DA:78,1
DA:79,1
DA:80,1
DA:81,1
DA:82,1
DA:83,1
DA:84,1
DA:85,1
DA:86,1
DA:87,1
DA:88,1
BRF:0
BRH:0
LF:38
LH:38
end_of_record
SF:C:\Users\luigi\College\Spring 2023\Capstone\EricGrandizio\rge\src\vulkan\utils\nt_string.rs
FN:19,_RNvXs5_NtNtNtCsbujzjYX0pAI_3rge6vulkan5utils9nt_stringNtB5_8NtStringNtNtCs1RoSZkFyxqL_4core5clone5Clone5cloneBb_
FN:43,_RNvMNtNtNtCsbujzjYX0pAI_3rge6vulkan5utils9nt_stringNtB2_8NtString10from_chars
FN:117,_RNvXs2_NtNtNtCsbujzjYX0pAI_3rge6vulkan5utils9nt_stringNtB5_8NtStringNtNtCs1RoSZkFyxqL_4core3cmp3Ord3cmp
FN:76,_RNvMNtNtNtCsbujzjYX0pAI_3rge6vulkan5utils9nt_stringNtB2_8NtString6as_ptr
FN:86,_RNvMNtNtNtCsbujzjYX0pAI_3rge6vulkan5utils9nt_stringNtB2_8NtString8as_bytes
FN:127,_RNvXs3_NtNtNtCsbujzjYX0pAI_3rge6vulkan5utils9nt_stringNtB5_8NtStringNtNtCs1RoSZkFyxqL_4core3fmt5Debug3fmt
FN:64,_RNvMNtNtNtCsbujzjYX0pAI_3rge6vulkan5utils9nt_stringNtB2_8NtString14from_chars_cap
FN:81,_RNvMNtNtNtCsbujzjYX0pAI_3rge6vulkan5utils9nt_stringNtB2_8NtString7as_cstr
FN:109,_RNvXs1_NtNtNtCsbujzjYX0pAI_3rge6vulkan5utils9nt_stringNtB5_8NtStringNtNtCs1RoSZkFyxqL_4core3cmp10PartialOrd11partial_cmp
FN:57,_RNvMNtNtNtCsbujzjYX0pAI_3rge6vulkan5utils9nt_stringNtB2_8NtString8from_ptr
FN:29,_RNvMNtNtNtCsbujzjYX0pAI_3rge6vulkan5utils9nt_stringNtB2_8NtString10from_bytes
FN:99,_RNvXs_NtNtNtCsbujzjYX0pAI_3rge6vulkan5utils9nt_stringNtB4_8NtStringNtNtCs1RoSZkFyxqL_4core3cmp9PartialEq2eq
FN:91,_RNvMNtNtNtCsbujzjYX0pAI_3rge6vulkan5utils9nt_stringNtB2_8NtString6as_str
FN:133,_RNvXs4_NtNtNtCsbujzjYX0pAI_3rge6vulkan5utils9nt_stringNtB5_8NtStringNtNtCs1RoSZkFyxqL_4core3fmt7Display3fmt
FN:141,_RNCNvNtNtNtCslHwOwCUw2lI_3rge6vulkan5utils9nt_string14nt_string_test0B9_
FN:76,_RNvMNtNtNtCslHwOwCUw2lI_3rge6vulkan5utils9nt_stringNtB2_8NtString6as_ptr
FN:133,_RNvXs4_NtNtNtCslHwOwCUw2lI_3rge6vulkan5utils9nt_stringNtB5_8NtStringNtNtCs1RoSZkFyxqL_4core3fmt7Display3fmt
FN:64,_RNvMNtNtNtCslHwOwCUw2lI_3rge6vulkan5utils9nt_stringNtB2_8NtString14from_chars_cap
FN:142,_RNvNtNtNtCslHwOwCUw2lI_3rge6vulkan5utils9nt_strings_14nt_string_test
FN:99,_RNvXs_NtNtNtCslHwOwCUw2lI_3rge6vulkan5utils9nt_stringNtB4_8NtStringNtNtCs1RoSZkFyxqL_4core3cmp9PartialEq2eq
FN:127,_RNvXs3_NtNtNtCslHwOwCUw2lI_3rge6vulkan5utils9nt_stringNtB5_8NtStringNtNtCs1RoSZkFyxqL_4core3fmt5Debug3fmt
FN:29,_RNvMNtNtNtCslHwOwCUw2lI_3rge6vulkan5utils9nt_stringNtB2_8NtString10from_bytes
FN:19,_RNvXs5_NtNtNtCslHwOwCUw2lI_3rge6vulkan5utils9nt_stringNtB5_8NtStringNtNtCs1RoSZkFyxqL_4core5clone5Clone5cloneBb_
FN:117,_RNvXs2_NtNtNtCslHwOwCUw2lI_3rge6vulkan5utils9nt_stringNtB5_8NtStringNtNtCs1RoSZkFyxqL_4core3cmp3Ord3cmp
FN:81,_RNvMNtNtNtCslHwOwCUw2lI_3rge6vulkan5utils9nt_stringNtB2_8NtString7as_cstr
FN:109,_RNvXs1_NtNtNtCslHwOwCUw2lI_3rge6vulkan5utils9nt_stringNtB5_8NtStringNtNtCs1RoSZkFyxqL_4core3cmp10PartialOrd11partial_cmp
FN:91,_RNvMNtNtNtCslHwOwCUw2lI_3rge6vulkan5utils9nt_stringNtB2_8NtString6as_str
FN:57,_RNvMNtNtNtCslHwOwCUw2lI_3rge6vulkan5utils9nt_stringNtB2_8NtString8from_ptr
FN:86,_RNvMNtNtNtCslHwOwCUw2lI_3rge6vulkan5utils9nt_stringNtB2_8NtString8as_bytes
FN:43,_RNvMNtNtNtCslHwOwCUw2lI_3rge6vulkan5utils9nt_stringNtB2_8NtString10from_chars
FNDA:0,_RNvXs5_NtNtNtCsbujzjYX0pAI_3rge6vulkan5utils9nt_stringNtB5_8NtStringNtNtCs1RoSZkFyxqL_4core5clone5Clone5cloneBb_
FNDA:0,_RNvMNtNtNtCsbujzjYX0pAI_3rge6vulkan5utils9nt_stringNtB2_8NtString10from_chars
FNDA:0,_RNvXs2_NtNtNtCsbujzjYX0pAI_3rge6vulkan5utils9nt_stringNtB5_8NtStringNtNtCs1RoSZkFyxqL_4core3cmp3Ord3cmp
FNDA:24,_RNvMNtNtNtCsbujzjYX0pAI_3rge6vulkan5utils9nt_stringNtB2_8NtString6as_ptr
FNDA:0,_RNvMNtNtNtCsbujzjYX0pAI_3rge6vulkan5utils9nt_stringNtB2_8NtString8as_bytes
FNDA:0,_RNvXs3_NtNtNtCsbujzjYX0pAI_3rge6vulkan5utils9nt_stringNtB5_8NtStringNtNtCs1RoSZkFyxqL_4core3fmt5Debug3fmt
FNDA:924,_RNvMNtNtNtCsbujzjYX0pAI_3rge6vulkan5utils9nt_stringNtB2_8NtString14from_chars_cap
FNDA:1872,_RNvMNtNtNtCsbujzjYX0pAI_3rge6vulkan5utils9nt_stringNtB2_8NtString7as_cstr
FNDA:0,_RNvXs1_NtNtNtCsbujzjYX0pAI_3rge6vulkan5utils9nt_stringNtB5_8NtStringNtNtCs1RoSZkFyxqL_4core3cmp10PartialOrd11partial_cmp
FNDA:0,_RNvMNtNtNtCsbujzjYX0pAI_3rge6vulkan5utils9nt_stringNtB2_8NtString8from_ptr
FNDA:0,_RNvMNtNtNtCsbujzjYX0pAI_3rge6vulkan5utils9nt_stringNtB2_8NtString10from_bytes
FNDA:924,_RNvXs_NtNtNtCsbujzjYX0pAI_3rge6vulkan5utils9nt_stringNtB4_8NtStringNtNtCs1RoSZkFyxqL_4core3cmp9PartialEq2eq
FNDA:24,_RNvMNtNtNtCsbujzjYX0pAI_3rge6vulkan5utils9nt_stringNtB2_8NtString6as_str
FNDA:0,_RNvXs4_NtNtNtCsbujzjYX0pAI_3rge6vulkan5utils9nt_stringNtB5_8NtStringNtNtCs1RoSZkFyxqL_4core3fmt7Display3fmt
FNDA:1,_RNCNvNtNtNtCslHwOwCUw2lI_3rge6vulkan5utils9nt_string14nt_string_test0B9_
FNDA:1,_RNvMNtNtNtCslHwOwCUw2lI_3rge6vulkan5utils9nt_stringNtB2_8NtString6as_ptr
FNDA:1,_RNvXs4_NtNtNtCslHwOwCUw2lI_3rge6vulkan5utils9nt_stringNtB5_8NtStringNtNtCs1RoSZkFyxqL_4core3fmt7Display3fmt
FNDA:0,_RNvMNtNtNtCslHwOwCUw2lI_3rge6vulkan5utils9nt_stringNtB2_8NtString14from_chars_cap
FNDA:1,_RNvNtNtNtCslHwOwCUw2lI_3rge6vulkan5utils9nt_strings_14nt_string_test
FNDA:1,_RNvXs_NtNtNtCslHwOwCUw2lI_3rge6vulkan5utils9nt_stringNtB4_8NtStringNtNtCs1RoSZkFyxqL_4core3cmp9PartialEq2eq
FNDA:1,_RNvXs3_NtNtNtCslHwOwCUw2lI_3rge6vulkan5utils9nt_stringNtB5_8NtStringNtNtCs1RoSZkFyxqL_4core3fmt5Debug3fmt
FNDA:1,_RNvMNtNtNtCslHwOwCUw2lI_3rge6vulkan5utils9nt_stringNtB2_8NtString10from_bytes
FNDA:1,_RNvXs5_NtNtNtCslHwOwCUw2lI_3rge6vulkan5utils9nt_stringNtB5_8NtStringNtNtCs1RoSZkFyxqL_4core5clone5Clone5cloneBb_
FNDA:1,_RNvXs2_NtNtNtCslHwOwCUw2lI_3rge6vulkan5utils9nt_stringNtB5_8NtStringNtNtCs1RoSZkFyxqL_4core3cmp3Ord3cmp
FNDA:10,_RNvMNtNtNtCslHwOwCUw2lI_3rge6vulkan5utils9nt_stringNtB2_8NtString7as_cstr
FNDA:1,_RNvXs1_NtNtNtCslHwOwCUw2lI_3rge6vulkan5utils9nt_stringNtB5_8NtStringNtNtCs1RoSZkFyxqL_4core3cmp10PartialOrd11partial_cmp
FNDA:2,_RNvMNtNtNtCslHwOwCUw2lI_3rge6vulkan5utils9nt_stringNtB2_8NtString6as_str
FNDA:1,_RNvMNtNtNtCslHwOwCUw2lI_3rge6vulkan5utils9nt_stringNtB2_8NtString8from_ptr
FNDA:2,_RNvMNtNtNtCslHwOwCUw2lI_3rge6vulkan5utils9nt_stringNtB2_8NtString8as_bytes
FNDA:1,_RNvMNtNtNtCslHwOwCUw2lI_3rge6vulkan5utils9nt_stringNtB2_8NtString10from_chars
FNF:16
FNH:16
DA:19,1
DA:29,1
DA:30,1
DA:31,1
DA:33,1
DA:34,1
DA:36,1
DA:37,1
DA:38,1
DA:43,1
DA:44,1
DA:45,1
DA:47,1
DA:48,1
DA:50,1
DA:51,1
DA:52,1
DA:57,1
DA:58,1
DA:59,1
DA:64,924
DA:65,924
DA:66,924
DA:67,924
DA:68,924
DA:70,924
DA:71,924
DA:76,25
DA:77,25
DA:78,25
DA:81,1882
DA:82,1882
DA:83,1882
DA:86,2
DA:87,2
DA:88,2
DA:91,26
DA:92,26
DA:93,26
DA:99,925
DA:100,925
DA:101,925
DA:102,925
DA:103,925
DA:109,1
DA:110,1
DA:111,1
DA:112,1
DA:113,1
DA:117,1
DA:118,1
DA:119,1
DA:120,1
DA:121,1
DA:127,1
DA:128,1
DA:129,1
DA:133,1
DA:134,1
DA:135,1
DA:141,1
DA:142,1
DA:143,1
DA:144,1
DA:145,1
DA:146,1
DA:147,1
DA:148,1
DA:149,1
DA:150,1
DA:151,1
DA:152,1
DA:153,1
DA:154,1
DA:156,1
DA:157,1
DA:159,1
DA:160,1
DA:161,1
DA:162,1
BRF:0
BRH:0
LF:80
LH:80
end_of_record
SF:C:\Users\luigi\College\Spring 2023\Capstone\EricGrandizio\wyn\src\common\tasks.rs
FN:173,_RNvMs_NtNtCsflbUU710Hyp_3wyn6common5tasksINtB4_10SyncFuturepE13wait_deadlineB8_
FN:102,_RNvMNtNtCsflbUU710Hyp_3wyn6common5tasksINtB2_10ExecFuturepE12wait_timeoutB6_
FN:217,_RNvMs0_NtNtCsflbUU710Hyp_3wyn6common5tasksINtB5_11AsyncFuturepE4takeB9_
FN:74,_RNvMNtNtCsflbUU710Hyp_3wyn6common5tasksINtB2_10ExecFuturepE6notifyB6_
FN:145,_RNvMs_NtNtCsflbUU710Hyp_3wyn6common5tasksINtB4_10SyncFuturepE6notifyB8_
FN:239,_RNCNvMs0_NtNtCsflbUU710Hyp_3wyn6common5tasksINtB7_11AsyncFuturepE12wait_timeout0Bb_
FN:119,_RNvMNtNtCsflbUU710Hyp_3wyn6common5tasksINtB2_10ExecFuturepE4pollB6_
FN:250,_RNvMs0_NtNtCsflbUU710Hyp_3wyn6common5tasksINtB5_11AsyncFuturepE13wait_deadlineB9_
FN:264,_RNvMs0_NtNtCsflbUU710Hyp_3wyn6common5tasksINtB5_11AsyncFuturepE4pollB9_
FN:166,_RNvMs_NtNtCsflbUU710Hyp_3wyn6common5tasksINtB4_10SyncFuturepE12wait_timeoutB8_
FN:178,_RNvMs_NtNtCsflbUU710Hyp_3wyn6common5tasksINtB4_10SyncFuturepE4pollB8_
FN:254,_RNCNvMs0_NtNtCsflbUU710Hyp_3wyn6common5tasksINtB7_11AsyncFuturepE13wait_deadline0Bb_
FN:111,_RNvMNtNtCsflbUU710Hyp_3wyn6common5tasksINtB2_10ExecFuturepE13wait_deadlineB6_
FN:236,_RNvMs0_NtNtCsflbUU710Hyp_3wyn6common5tasksINtB5_11AsyncFuturepE12wait_timeoutB9_
FN:83,_RNvMNtNtCsflbUU710Hyp_3wyn6common5tasksINtB2_10ExecFuturepE4takeB6_
FN:150,_RNvMs_NtNtCsflbUU710Hyp_3wyn6common5tasksINtB4_10SyncFutureINtNtCs1RoSZkFyxqL_4core6result6ResultuNtNtNtB8_5win326errors8WinErrorEE4takeB8_
FN:93,_RNvMNtNtCsflbUU710Hyp_3wyn6common5tasksINtB2_10ExecFutureINtNtCs1RoSZkFyxqL_4core6result6ResultuNtNtNtB6_5win326errors8WinErrorEE4waitB6_
FN:54,_RNvMNtNtCsflbUU710Hyp_3wyn6common5tasksINtB2_10ExecFutureINtNtCs1RoSZkFyxqL_4core6result6ResultuNtNtNtB6_5win326errors8WinErrorEE8new_syncB6_
FN:225,_RNvMs0_NtNtCsflbUU710Hyp_3wyn6common5tasksINtB5_11AsyncFutureINtNtCs1RoSZkFyxqL_4core6result6ResultuNtNtNtB9_5win326errors8WinErrorEE4waitB9_
FN:228,_RNCNvMs0_NtNtCsflbUU710Hyp_3wyn6common5tasksINtB7_11AsyncFutureINtNtCs1RoSZkFyxqL_4core6result6ResultuNtNtNtBb_5win326errors8WinErrorEE4wait0Bb_
FN:159,_RNvMs_NtNtCsflbUU710Hyp_3wyn6common5tasksINtB4_10SyncFutureINtNtCs1RoSZkFyxqL_4core6result6ResultuNtNtNtB8_5win326errors8WinErrorEE4waitB8_
FN:207,_RNvMs0_NtNtCsflbUU710Hyp_3wyn6common5tasksINtB5_11AsyncFutureINtNtCs1RoSZkFyxqL_4core6result6ResultNtNtNtB9_5win326window6WindowNtNtB1D_6errors8WinErrorEE6notifyB9_
FN:225,_RNvMs0_NtNtCsflbUU710Hyp_3wyn6common5tasksINtB5_11AsyncFutureINtNtCs1RoSZkFyxqL_4core6result6ResultNtNtNtB9_5win326window6WindowNtNtB1D_6errors8WinErrorEE4waitB9_
FN:200,_RNvMs0_NtNtCsflbUU710Hyp_3wyn6common5tasksINtB5_11AsyncFutureINtNtCs1RoSZkFyxqL_4core6result6ResultNtNtNtB9_5win326window6WindowNtNtB1D_6errors8WinErrorEE3newB9_
FN:62,_RNvMNtNtCsflbUU710Hyp_3wyn6common5tasksINtB2_10ExecFutureINtNtCs1RoSZkFyxqL_4core6result6ResultNtNtNtB6_5win326window6WindowNtNtB1z_6errors8WinErrorEE9new_asyncB6_
FN:159,_RNvMs_NtNtCsflbUU710Hyp_3wyn6common5tasksINtB4_10SyncFutureINtNtCs1RoSZkFyxqL_4core6result6ResultNtNtNtB8_5win326window6WindowNtNtB1B_6errors8WinErrorEE4waitB8_
FN:207,_RNvMs0_NtNtCsflbUU710Hyp_3wyn6common5tasksINtB5_11AsyncFutureINtNtCs1RoSZkFyxqL_4core6result6ResultuNtNtNtB9_5win326errors8WinErrorEE6notifyB9_
FN:138,_RNvMs_NtNtCsflbUU710Hyp_3wyn6common5tasksINtB4_10SyncFutureINtNtCs1RoSZkFyxqL_4core6result6ResultNtNtNtB8_5win326window6WindowNtNtB1B_6errors8WinErrorEE3newB8_
FN:150,_RNvMs_NtNtCsflbUU710Hyp_3wyn6common5tasksINtB4_10SyncFutureINtNtCs1RoSZkFyxqL_4core6result6ResultNtNtNtB8_5win326window6WindowNtNtB1B_6errors8WinErrorEE4takeB8_
FN:200,_RNvMs0_NtNtCsflbUU710Hyp_3wyn6common5tasksINtB5_11AsyncFutureINtNtCs1RoSZkFyxqL_4core6result6ResultuNtNtNtB9_5win326errors8WinErrorEE3newB9_
FN:62,_RNvMNtNtCsflbUU710Hyp_3wyn6common5tasksINtB2_10ExecFutureINtNtCs1RoSZkFyxqL_4core6result6ResultuNtNtNtB6_5win326errors8WinErrorEE9new_asyncB6_
FN:228,_RNCNvMs0_NtNtCsflbUU710Hyp_3wyn6common5tasksINtB7_11AsyncFutureINtNtCs1RoSZkFyxqL_4core6result6ResultNtNtNtBb_5win326window6WindowNtNtB1F_6errors8WinErrorEE4wait0Bb_
FN:54,_RNvMNtNtCsflbUU710Hyp_3wyn6common5tasksINtB2_10ExecFutureINtNtCs1RoSZkFyxqL_4core6result6ResultNtNtNtB6_5win326window6WindowNtNtB1z_6errors8WinErrorEE8new_syncB6_
FN:93,_RNvMNtNtCsflbUU710Hyp_3wyn6common5tasksINtB2_10ExecFutureINtNtCs1RoSZkFyxqL_4core6result6ResultNtNtNtB6_5win326window6WindowNtNtB1z_6errors8WinErrorEE4waitB6_
FN:138,_RNvMs_NtNtCsflbUU710Hyp_3wyn6common5tasksINtB4_10SyncFutureINtNtCs1RoSZkFyxqL_4core6result6ResultuNtNtNtB8_5win326errors8WinErrorEE3newB8_
FN:236,_RNvMs0_NtNtCsflbUU710Hyp_3wyn6common5tasksINtB5_11AsyncFutureuE12wait_timeoutCsghCtTfKLs0F_7execute
FN:138,_RNvMs_NtNtCsflbUU710Hyp_3wyn6common5tasksINtB4_10SyncFutureuE3newCsghCtTfKLs0F_7execute
FN:111,_RNvMNtNtCsflbUU710Hyp_3wyn6common5tasksINtB2_10ExecFutureuE13wait_deadlineCsghCtTfKLs0F_7execute
FN:200,_RNvMs0_NtNtCsflbUU710Hyp_3wyn6common5tasksINtB5_11AsyncFutureuE3newCsghCtTfKLs0F_7execute
FN:54,_RNvMNtNtCsflbUU710Hyp_3wyn6common5tasksINtB2_10ExecFutureuE8new_syncCsghCtTfKLs0F_7execute
FN:150,_RNvMs_NtNtCsflbUU710Hyp_3wyn6common5tasksINtB4_10SyncFutureuE4takeCsghCtTfKLs0F_7execute
FN:239,_RNCNvMs0_NtNtCsflbUU710Hyp_3wyn6common5tasksINtB7_11AsyncFutureuE12wait_timeout0CsghCtTfKLs0F_7execute
FN:254,_RNCNvMs0_NtNtCsflbUU710Hyp_3wyn6common5tasksINtB7_11AsyncFutureuE13wait_deadline0CsghCtTfKLs0F_7execute
FN:166,_RNvMs_NtNtCsflbUU710Hyp_3wyn6common5tasksINtB4_10SyncFutureuE12wait_timeoutCsghCtTfKLs0F_7execute
FN:225,_RNvMs0_NtNtCsflbUU710Hyp_3wyn6common5tasksINtB5_11AsyncFutureuE4waitCsghCtTfKLs0F_7execute
FN:207,_RNvMs0_NtNtCsflbUU710Hyp_3wyn6common5tasksINtB5_11AsyncFutureuE6notifyCsghCtTfKLs0F_7execute
FN:93,_RNvMNtNtCsflbUU710Hyp_3wyn6common5tasksINtB2_10ExecFutureuE4waitCsghCtTfKLs0F_7execute
FN:62,_RNvMNtNtCsflbUU710Hyp_3wyn6common5tasksINtB2_10ExecFutureuE9new_asyncCsghCtTfKLs0F_7execute
FN:173,_RNvMs_NtNtCsflbUU710Hyp_3wyn6common5tasksINtB4_10SyncFutureuE13wait_deadlineCsghCtTfKLs0F_7execute
FN:264,_RNvMs0_NtNtCsflbUU710Hyp_3wyn6common5tasksINtB5_11AsyncFutureuE4pollCsghCtTfKLs0F_7execute
FN:250,_RNvMs0_NtNtCsflbUU710Hyp_3wyn6common5tasksINtB5_11AsyncFutureuE13wait_deadlineCsghCtTfKLs0F_7execute
FN:159,_RNvMs_NtNtCsflbUU710Hyp_3wyn6common5tasksINtB4_10SyncFutureuE4waitCsghCtTfKLs0F_7execute
FN:228,_RNCNvMs0_NtNtCsflbUU710Hyp_3wyn6common5tasksINtB7_11AsyncFutureuE4wait0CsghCtTfKLs0F_7execute
FN:102,_RNvMNtNtCsflbUU710Hyp_3wyn6common5tasksINtB2_10ExecFutureuE12wait_timeoutCsghCtTfKLs0F_7execute
FN:119,_RNvMNtNtCsflbUU710Hyp_3wyn6common5tasksINtB2_10ExecFutureuE4pollCsghCtTfKLs0F_7execute
FN:178,_RNvMs_NtNtCsflbUU710Hyp_3wyn6common5tasksINtB4_10SyncFutureuE4pollCsghCtTfKLs0F_7execute
FN:225,_RNvMs0_NtNtCsi8pFR5hElLZ_3wyn6common5tasksINtB5_11AsyncFuturepE4waitB9_
FN:159,_RNvMs_NtNtCsi8pFR5hElLZ_3wyn6common5tasksINtB4_10SyncFuturepE4waitB8_
FN:228,_RNCNvMs0_NtNtCsi8pFR5hElLZ_3wyn6common5tasksINtB7_11AsyncFuturepE4wait0Bb_
FN:83,_RNvMNtNtCsi8pFR5hElLZ_3wyn6common5tasksINtB2_10ExecFuturepE4takeB6_
FN:207,_RNvMs0_NtNtCsi8pFR5hElLZ_3wyn6common5tasksINtB5_11AsyncFuturepE6notifyB9_
FN:119,_RNvMNtNtCsi8pFR5hElLZ_3wyn6common5tasksINtB2_10ExecFuturepE4pollB6_
FN:264,_RNvMs0_NtNtCsi8pFR5hElLZ_3wyn6common5tasksINtB5_11AsyncFuturepE4pollB9_
FN:150,_RNvMs_NtNtCsi8pFR5hElLZ_3wyn6common5tasksINtB4_10SyncFuturepE4takeB8_
FN:111,_RNvMNtNtCsi8pFR5hElLZ_3wyn6common5tasksINtB2_10ExecFuturepE13wait_deadlineB6_
FN:236,_RNvMs0_NtNtCsi8pFR5hElLZ_3wyn6common5tasksINtB5_11AsyncFuturepE12wait_timeoutB9_
FN:145,_RNvMs_NtNtCsi8pFR5hElLZ_3wyn6common5tasksINtB4_10SyncFuturepE6notifyB8_
FN:239,_RNCNvMs0_NtNtCsi8pFR5hElLZ_3wyn6common5tasksINtB7_11AsyncFuturepE12wait_timeout0Bb_
FN:138,_RNvMs_NtNtCsi8pFR5hElLZ_3wyn6common5tasksINtB4_10SyncFuturepE3newB8_
FN:93,_RNvMNtNtCsi8pFR5hElLZ_3wyn6common5tasksINtB2_10ExecFuturepE4waitB6_
FN:54,_RNvMNtNtCsi8pFR5hElLZ_3wyn6common5tasksINtB2_10ExecFuturepE8new_syncB6_
FN:217,_RNvMs0_NtNtCsi8pFR5hElLZ_3wyn6common5tasksINtB5_11AsyncFuturepE4takeB9_
FN:178,_RNvMs_NtNtCsi8pFR5hElLZ_3wyn6common5tasksINtB4_10SyncFuturepE4pollB8_
FN:173,_RNvMs_NtNtCsi8pFR5hElLZ_3wyn6common5tasksINtB4_10SyncFuturepE13wait_deadlineB8_
FN:74,_RNvMNtNtCsi8pFR5hElLZ_3wyn6common5tasksINtB2_10ExecFuturepE6notifyB6_
FN:254,_RNCNvMs0_NtNtCsi8pFR5hElLZ_3wyn6common5tasksINtB7_11AsyncFuturepE13wait_deadline0Bb_
FN:200,_RNvMs0_NtNtCsi8pFR5hElLZ_3wyn6common5tasksINtB5_11AsyncFuturepE3newB9_
FN:62,_RNvMNtNtCsi8pFR5hElLZ_3wyn6common5tasksINtB2_10ExecFuturepE9new_asyncB6_
FN:250,_RNvMs0_NtNtCsi8pFR5hElLZ_3wyn6common5tasksINtB5_11AsyncFuturepE13wait_deadlineB9_
FN:102,_RNvMNtNtCsi8pFR5hElLZ_3wyn6common5tasksINtB2_10ExecFuturepE12wait_timeoutB6_
FN:166,_RNvMs_NtNtCsi8pFR5hElLZ_3wyn6common5tasksINtB4_10SyncFuturepE12wait_timeoutB8_
FNDA:0,_RNvMs_NtNtCsflbUU710Hyp_3wyn6common5tasksINtB4_10SyncFuturepE13wait_deadlineB8_
FNDA:0,_RNvMNtNtCsflbUU710Hyp_3wyn6common5tasksINtB2_10ExecFuturepE12wait_timeoutB6_
FNDA:0,_RNvMs0_NtNtCsflbUU710Hyp_3wyn6common5tasksINtB5_11AsyncFuturepE4takeB9_
FNDA:0,_RNvMNtNtCsflbUU710Hyp_3wyn6common5tasksINtB2_10ExecFuturepE6notifyB6_
FNDA:0,_RNvMs_NtNtCsflbUU710Hyp_3wyn6common5tasksINtB4_10SyncFuturepE6notifyB8_
FNDA:0,_RNCNvMs0_NtNtCsflbUU710Hyp_3wyn6common5tasksINtB7_11AsyncFuturepE12wait_timeout0Bb_
FNDA:0,_RNvMNtNtCsflbUU710Hyp_3wyn6common5tasksINtB2_10ExecFuturepE4pollB6_
FNDA:0,_RNvMs0_NtNtCsflbUU710Hyp_3wyn6common5tasksINtB5_11AsyncFuturepE13wait_deadlineB9_
FNDA:0,_RNvMs0_NtNtCsflbUU710Hyp_3wyn6common5tasksINtB5_11AsyncFuturepE4pollB9_
FNDA:0,_RNvMs_NtNtCsflbUU710Hyp_3wyn6common5tasksINtB4_10SyncFuturepE12wait_timeoutB8_
FNDA:0,_RNvMs_NtNtCsflbUU710Hyp_3wyn6common5tasksINtB4_10SyncFuturepE4pollB8_
FNDA:0,_RNCNvMs0_NtNtCsflbUU710Hyp_3wyn6common5tasksINtB7_11AsyncFuturepE13wait_deadline0Bb_
FNDA:0,_RNvMNtNtCsflbUU710Hyp_3wyn6common5tasksINtB2_10ExecFuturepE13wait_deadlineB6_
FNDA:0,_RNvMs0_NtNtCsflbUU710Hyp_3wyn6common5tasksINtB5_11AsyncFuturepE12wait_timeoutB9_
FNDA:0,_RNvMNtNtCsflbUU710Hyp_3wyn6common5tasksINtB2_10ExecFuturepE4takeB6_
FNDA:9,_RNvMs_NtNtCsflbUU710Hyp_3wyn6common5tasksINtB4_10SyncFutureINtNtCs1RoSZkFyxqL_4core6result6ResultuNtNtNtB8_5win326errors8WinErrorEE4takeB8_
FNDA:9,_RNvMNtNtCsflbUU710Hyp_3wyn6common5tasksINtB2_10ExecFutureINtNtCs1RoSZkFyxqL_4core6result6ResultuNtNtNtB6_5win326errors8WinErrorEE4waitB6_
FNDA:9,_RNvMNtNtCsflbUU710Hyp_3wyn6common5tasksINtB2_10ExecFutureINtNtCs1RoSZkFyxqL_4core6result6ResultuNtNtNtB6_5win326errors8WinErrorEE8new_syncB6_
FNDA:0,_RNvMs0_NtNtCsflbUU710Hyp_3wyn6common5tasksINtB5_11AsyncFutureINtNtCs1RoSZkFyxqL_4core6result6ResultuNtNtNtB9_5win326errors8WinErrorEE4waitB9_
FNDA:0,_RNCNvMs0_NtNtCsflbUU710Hyp_3wyn6common5tasksINtB7_11AsyncFutureINtNtCs1RoSZkFyxqL_4core6result6ResultuNtNtNtBb_5win326errors8WinErrorEE4wait0Bb_
FNDA:9,_RNvMs_NtNtCsflbUU710Hyp_3wyn6common5tasksINtB4_10SyncFutureINtNtCs1RoSZkFyxqL_4core6result6ResultuNtNtNtB8_5win326errors8WinErrorEE4waitB8_
FNDA:0,_RNvMs0_NtNtCsflbUU710Hyp_3wyn6common5tasksINtB5_11AsyncFutureINtNtCs1RoSZkFyxqL_4core6result6ResultNtNtNtB9_5win326window6WindowNtNtB1D_6errors8WinErrorEE6notifyB9_
FNDA:0,_RNvMs0_NtNtCsflbUU710Hyp_3wyn6common5tasksINtB5_11AsyncFutureINtNtCs1RoSZkFyxqL_4core6result6ResultNtNtNtB9_5win326window6WindowNtNtB1D_6errors8WinErrorEE4waitB9_
FNDA:0,_RNvMs0_NtNtCsflbUU710Hyp_3wyn6common5tasksINtB5_11AsyncFutureINtNtCs1RoSZkFyxqL_4core6result6ResultNtNtNtB9_5win326window6WindowNtNtB1D_6errors8WinErrorEE3newB9_
FNDA:0,_RNvMNtNtCsflbUU710Hyp_3wyn6common5tasksINtB2_10ExecFutureINtNtCs1RoSZkFyxqL_4core6result6ResultNtNtNtB6_5win326window6WindowNtNtB1z_6errors8WinErrorEE9new_asyncB6_
FNDA:17,_RNvMs_NtNtCsflbUU710Hyp_3wyn6common5tasksINtB4_10SyncFutureINtNtCs1RoSZkFyxqL_4core6result6ResultNtNtNtB8_5win326window6WindowNtNtB1B_6errors8WinErrorEE4waitB8_
FNDA:0,_RNvMs0_NtNtCsflbUU710Hyp_3wyn6common5tasksINtB5_11AsyncFutureINtNtCs1RoSZkFyxqL_4core6result6ResultuNtNtNtB9_5win326errors8WinErrorEE6notifyB9_
FNDA:17,_RNvMs_NtNtCsflbUU710Hyp_3wyn6common5tasksINtB4_10SyncFutureINtNtCs1RoSZkFyxqL_4core6result6ResultNtNtNtB8_5win326window6WindowNtNtB1B_6errors8WinErrorEE3newB8_
FNDA:17,_RNvMs_NtNtCsflbUU710Hyp_3wyn6common5tasksINtB4_10SyncFutureINtNtCs1RoSZkFyxqL_4core6result6ResultNtNtNtB8_5win326window6WindowNtNtB1B_6errors8WinErrorEE4takeB8_
FNDA:0,_RNvMs0_NtNtCsflbUU710Hyp_3wyn6common5tasksINtB5_11AsyncFutureINtNtCs1RoSZkFyxqL_4core6result6ResultuNtNtNtB9_5win326errors8WinErrorEE3newB9_
FNDA:0,_RNvMNtNtCsflbUU710Hyp_3wyn6common5tasksINtB2_10ExecFutureINtNtCs1RoSZkFyxqL_4core6result6ResultuNtNtNtB6_5win326errors8WinErrorEE9new_asyncB6_
FNDA:0,_RNCNvMs0_NtNtCsflbUU710Hyp_3wyn6common5tasksINtB7_11AsyncFutureINtNtCs1RoSZkFyxqL_4core6result6ResultNtNtNtBb_5win326window6WindowNtNtB1F_6errors8WinErrorEE4wait0Bb_
FNDA:17,_RNvMNtNtCsflbUU710Hyp_3wyn6common5tasksINtB2_10ExecFutureINtNtCs1RoSZkFyxqL_4core6result6ResultNtNtNtB6_5win326window6WindowNtNtB1z_6errors8WinErrorEE8new_syncB6_
FNDA:17,_RNvMNtNtCsflbUU710Hyp_3wyn6common5tasksINtB2_10ExecFutureINtNtCs1RoSZkFyxqL_4core6result6ResultNtNtNtB6_5win326window6WindowNtNtB1z_6errors8WinErrorEE4waitB6_
FNDA:9,_RNvMs_NtNtCsflbUU710Hyp_3wyn6common5tasksINtB4_10SyncFutureINtNtCs1RoSZkFyxqL_4core6result6ResultuNtNtNtB8_5win326errors8WinErrorEE3newB8_
FNDA:1,_RNvMs0_NtNtCsflbUU710Hyp_3wyn6common5tasksINtB5_11AsyncFutureuE12wait_timeoutCsghCtTfKLs0F_7execute
FNDA:4,_RNvMs_NtNtCsflbUU710Hyp_3wyn6common5tasksINtB4_10SyncFutureuE3newCsghCtTfKLs0F_7execute
FNDA:2,_RNvMNtNtCsflbUU710Hyp_3wyn6common5tasksINtB2_10ExecFutureuE13wait_deadlineCsghCtTfKLs0F_7execute
FNDA:4,_RNvMs0_NtNtCsflbUU710Hyp_3wyn6common5tasksINtB5_11AsyncFutureuE3newCsghCtTfKLs0F_7execute
FNDA:4,_RNvMNtNtCsflbUU710Hyp_3wyn6common5tasksINtB2_10ExecFutureuE8new_syncCsghCtTfKLs0F_7execute
FNDA:4,_RNvMs_NtNtCsflbUU710Hyp_3wyn6common5tasksINtB4_10SyncFutureuE4takeCsghCtTfKLs0F_7execute
FNDA:2,_RNCNvMs0_NtNtCsflbUU710Hyp_3wyn6common5tasksINtB7_11AsyncFutureuE12wait_timeout0CsghCtTfKLs0F_7execute
FNDA:1,_RNCNvMs0_NtNtCsflbUU710Hyp_3wyn6common5tasksINtB7_11AsyncFutureuE13wait_deadline0CsghCtTfKLs0F_7execute
FNDA:1,_RNvMs_NtNtCsflbUU710Hyp_3wyn6common5tasksINtB4_10SyncFutureuE12wait_timeoutCsghCtTfKLs0F_7execute
FNDA:1,_RNvMs0_NtNtCsflbUU710Hyp_3wyn6common5tasksINtB5_11AsyncFutureuE4waitCsghCtTfKLs0F_7execute
FNDA:4,_RNvMs0_NtNtCsflbUU710Hyp_3wyn6common5tasksINtB5_11AsyncFutureuE6notifyCsghCtTfKLs0F_7execute
FNDA:2,_RNvMNtNtCsflbUU710Hyp_3wyn6common5tasksINtB2_10ExecFutureuE4waitCsghCtTfKLs0F_7execute
FNDA:4,_RNvMNtNtCsflbUU710Hyp_3wyn6common5tasksINtB2_10ExecFutureuE9new_asyncCsghCtTfKLs0F_7execute
FNDA:1,_RNvMs_NtNtCsflbUU710Hyp_3wyn6common5tasksINtB4_10SyncFutureuE13wait_deadlineCsghCtTfKLs0F_7execute
FNDA:1,_RNvMs0_NtNtCsflbUU710Hyp_3wyn6common5tasksINtB5_11AsyncFutureuE4pollCsghCtTfKLs0F_7execute
FNDA:1,_RNvMs0_NtNtCsflbUU710Hyp_3wyn6common5tasksINtB5_11AsyncFutureuE13wait_deadlineCsghCtTfKLs0F_7execute
FNDA:1,_RNvMs_NtNtCsflbUU710Hyp_3wyn6common5tasksINtB4_10SyncFutureuE4waitCsghCtTfKLs0F_7execute
FNDA:1,_RNCNvMs0_NtNtCsflbUU710Hyp_3wyn6common5tasksINtB7_11AsyncFutureuE4wait0CsghCtTfKLs0F_7execute
FNDA:2,_RNvMNtNtCsflbUU710Hyp_3wyn6common5tasksINtB2_10ExecFutureuE12wait_timeoutCsghCtTfKLs0F_7execute
FNDA:2,_RNvMNtNtCsflbUU710Hyp_3wyn6common5tasksINtB2_10ExecFutureuE4pollCsghCtTfKLs0F_7execute
FNDA:3,_RNvMs_NtNtCsflbUU710Hyp_3wyn6common5tasksINtB4_10SyncFutureuE4pollCsghCtTfKLs0F_7execute
FNDA:0,_RNvMs0_NtNtCsi8pFR5hElLZ_3wyn6common5tasksINtB5_11AsyncFuturepE4waitB9_
FNDA:0,_RNvMs_NtNtCsi8pFR5hElLZ_3wyn6common5tasksINtB4_10SyncFuturepE4waitB8_
FNDA:0,_RNCNvMs0_NtNtCsi8pFR5hElLZ_3wyn6common5tasksINtB7_11AsyncFuturepE4wait0Bb_
FNDA:0,_RNvMNtNtCsi8pFR5hElLZ_3wyn6common5tasksINtB2_10ExecFuturepE4takeB6_
FNDA:0,_RNvMs0_NtNtCsi8pFR5hElLZ_3wyn6common5tasksINtB5_11AsyncFuturepE6notifyB9_
FNDA:0,_RNvMNtNtCsi8pFR5hElLZ_3wyn6common5tasksINtB2_10ExecFuturepE4pollB6_
FNDA:0,_RNvMs0_NtNtCsi8pFR5hElLZ_3wyn6common5tasksINtB5_11AsyncFuturepE4pollB9_
FNDA:0,_RNvMs_NtNtCsi8pFR5hElLZ_3wyn6common5tasksINtB4_10SyncFuturepE4takeB8_
FNDA:0,_RNvMNtNtCsi8pFR5hElLZ_3wyn6common5tasksINtB2_10ExecFuturepE13wait_deadlineB6_
FNDA:0,_RNvMs0_NtNtCsi8pFR5hElLZ_3wyn6common5tasksINtB5_11AsyncFuturepE12wait_timeoutB9_
FNDA:0,_RNvMs_NtNtCsi8pFR5hElLZ_3wyn6common5tasksINtB4_10SyncFuturepE6notifyB8_
FNDA:0,_RNCNvMs0_NtNtCsi8pFR5hElLZ_3wyn6common5tasksINtB7_11AsyncFuturepE12wait_timeout0Bb_
FNDA:0,_RNvMs_NtNtCsi8pFR5hElLZ_3wyn6common5tasksINtB4_10SyncFuturepE3newB8_
FNDA:0,_RNvMNtNtCsi8pFR5hElLZ_3wyn6common5tasksINtB2_10ExecFuturepE4waitB6_
FNDA:0,_RNvMNtNtCsi8pFR5hElLZ_3wyn6common5tasksINtB2_10ExecFuturepE8new_syncB6_
FNDA:0,_RNvMs0_NtNtCsi8pFR5hElLZ_3wyn6common5tasksINtB5_11AsyncFuturepE4takeB9_
FNDA:0,_RNvMs_NtNtCsi8pFR5hElLZ_3wyn6common5tasksINtB4_10SyncFuturepE4pollB8_
FNDA:0,_RNvMs_NtNtCsi8pFR5hElLZ_3wyn6common5tasksINtB4_10SyncFuturepE13wait_deadlineB8_
FNDA:0,_RNvMNtNtCsi8pFR5hElLZ_3wyn6common5tasksINtB2_10ExecFuturepE6notifyB6_
FNDA:0,_RNCNvMs0_NtNtCsi8pFR5hElLZ_3wyn6common5tasksINtB7_11AsyncFuturepE13wait_deadline0Bb_
FNDA:0,_RNvMs0_NtNtCsi8pFR5hElLZ_3wyn6common5tasksINtB5_11AsyncFuturepE3newB9_
FNDA:0,_RNvMNtNtCsi8pFR5hElLZ_3wyn6common5tasksINtB2_10ExecFuturepE9new_asyncB6_
FNDA:0,_RNvMs0_NtNtCsi8pFR5hElLZ_3wyn6common5tasksINtB5_11AsyncFuturepE13wait_deadlineB9_
FNDA:0,_RNvMNtNtCsi8pFR5hElLZ_3wyn6common5tasksINtB2_10ExecFuturepE12wait_timeoutB6_
FNDA:0,_RNvMs_NtNtCsi8pFR5hElLZ_3wyn6common5tasksINtB4_10SyncFuturepE12wait_timeoutB8_
FNF:25
FNH:21
DA:54,30
DA:55,30
DA:56,30
DA:57,30
DA:58,30
DA:62,4
DA:63,4
DA:64,4
DA:65,4
DA:66,4
DA:67,4
DA:68,4
DA:69,4
DA:70,4
DA:74,0
DA:75,0
DA:76,0
DA:77,0
DA:79,0
DA:83,0
DA:84,0
DA:85,0
DA:86,0
DA:88,0
DA:93,28
DA:94,28
DA:95,27
DA:96,1
DA:98,28
DA:102,2
DA:103,2
DA:104,1
DA:105,1
DA:107,2
DA:111,2
DA:112,2
DA:113,1
DA:114,1
DA:116,2
DA:119,2
DA:120,2
DA:121,1
DA:122,1
DA:124,2
DA:138,30
DA:139,30
DA:140,30
DA:141,30
DA:145,0
DA:146,0
DA:147,0
DA:150,30
DA:151,30
DA:152,30
DA:159,27
DA:160,27
DA:161,27
DA:166,1
DA:167,1
DA:168,1
DA:173,1
DA:174,1
DA:175,1
DA:178,3
DA:179,3
DA:180,3
DA:181,0
DA:183,3
DA:200,4
DA:201,4
DA:202,4
DA:203,4
DA:204,4
DA:207,4
DA:208,4
DA:209,4
DA:210,4
DA:211,4
DA:212,4
DA:213,4
DA:217,0
DA:218,0
DA:219,0
DA:220,0
DA:225,1
DA:226,1
DA:227,1
DA:228,1
DA:229,1
DA:230,1
DA:231,1
DA:232,1
DA:236,1
DA:237,1
DA:238,1
DA:239,2
DA:240,1
DA:241,1
DA:242,1
DA:243,1
DA:244,0
DA:246,1
DA:250,1
DA:251,1
DA:252,1
DA:253,1
DA:254,1
DA:255,1
DA:256,1
DA:257,1
DA:258,0
DA:259,1
DA:261,1
DA:264,1
DA:265,1
DA:266,1
DA:267,1
DA:268,0
DA:269,1
DA:271,1
BRF:0
BRH:0
LF:123
LH:102
end_of_record
SF:C:\Users\luigi\College\Spring 2023\Capstone\EricGrandizio\wyn\src\common\types.rs
FN:37,_RNvXsb_NtNtCsflbUU710Hyp_3wyn6common5typesNtB5_4SizeNtNtCs1RoSZkFyxqL_4core3fmt5Debug3fmt
FN:29,_RNvMNtNtCsflbUU710Hyp_3wyn6common5typesNtB2_5Point3new
FN:73,_RNvMs0_NtNtCsflbUU710Hyp_3wyn6common5typesNtB5_4Rect12new_centered
FN:19,_RNvXs5_NtNtCsflbUU710Hyp_3wyn6common5typesNtB5_5PointNtNtCs1RoSZkFyxqL_4core3fmt5Debug3fmt
FN:65,_RNvMs0_NtNtCsflbUU710Hyp_3wyn6common5typesNtB5_4Rect3new
FN:47,_RNvMs_NtNtCsflbUU710Hyp_3wyn6common5typesNtB4_4Size3new
FN:90,_RNvMs0_NtNtCsflbUU710Hyp_3wyn6common5typesNtB5_4Rect6aspect
FN:55,_RNvXsh_NtNtCsflbUU710Hyp_3wyn6common5typesNtB5_4RectNtNtCs1RoSZkFyxqL_4core3fmt5Debug3fmt
FN:82,_RNvMs0_NtNtCsflbUU710Hyp_3wyn6common5typesNtB5_4Rect6center
FN:55,_RNvXsi_NtNtCsflbUU710Hyp_3wyn6common5typesNtB5_4RectNtNtCs1RoSZkFyxqL_4core7default7Default7defaultB9_
FN:55,_RNvXse_NtNtCsflbUU710Hyp_3wyn6common5typesNtB5_4RectNtNtCs1RoSZkFyxqL_4core5clone5Clone5cloneB9_
FN:37,_RNvXsa_NtNtCsflbUU710Hyp_3wyn6common5typesNtB5_4SizeNtNtCs1RoSZkFyxqL_4core3cmp9PartialEq2eqB9_
FN:37,_RNvXsc_NtNtCsflbUU710Hyp_3wyn6common5typesNtB5_4SizeNtNtCs1RoSZkFyxqL_4core7default7Default7defaultB9_
FN:19,_RNvXs4_NtNtCsflbUU710Hyp_3wyn6common5typesNtB5_5PointNtNtCs1RoSZkFyxqL_4core3cmp9PartialEq2eqB9_
FN:19,_RNvXs6_NtNtCsflbUU710Hyp_3wyn6common5typesNtB5_5PointNtNtCs1RoSZkFyxqL_4core7default7Default7defaultB9_
FN:37,_RNvXs8_NtNtCsflbUU710Hyp_3wyn6common5typesNtB5_4SizeNtNtCs1RoSZkFyxqL_4core5clone5Clone5cloneB9_
FN:19,_RNvXs2_NtNtCsflbUU710Hyp_3wyn6common5typesNtB5_5PointNtNtCs1RoSZkFyxqL_4core5clone5Clone5cloneB9_
FN:55,_RNvXsg_NtNtCsflbUU710Hyp_3wyn6common5typesNtB5_4RectNtNtCs1RoSZkFyxqL_4core3cmp9PartialEq2eqB9_
FN:19,_RNvXs6_NtNtCsflbUU710Hyp_3wyn6common5typesNtB5_5PointNtNtCs1RoSZkFyxqL_4core7default7Default7defaultCsewTo4KigTIS_12game_of_life
FN:55,_RNvXsi_NtNtCsflbUU710Hyp_3wyn6common5typesNtB5_4RectNtNtCs1RoSZkFyxqL_4core7default7Default7defaultCsbujzjYX0pAI_3rge
FN:55,_RNvXsg_NtNtCsflbUU710Hyp_3wyn6common5typesNtB5_4RectNtNtCs1RoSZkFyxqL_4core3cmp9PartialEq2eqCsbujzjYX0pAI_3rge
FN:19,_RNvXs6_NtNtCsflbUU710Hyp_3wyn6common5typesNtB5_5PointNtNtCs1RoSZkFyxqL_4core7default7Default7defaultCsbujzjYX0pAI_3rge
FN:19,_RNvXs4_NtNtCsflbUU710Hyp_3wyn6common5typesNtB5_5PointNtNtCs1RoSZkFyxqL_4core3cmp9PartialEq2eqCsbujzjYX0pAI_3rge
FN:37,_RNvXsc_NtNtCsflbUU710Hyp_3wyn6common5typesNtB5_4SizeNtNtCs1RoSZkFyxqL_4core7default7Default7defaultCsbujzjYX0pAI_3rge
FN:37,_RNvXsa_NtNtCsflbUU710Hyp_3wyn6common5typesNtB5_4SizeNtNtCs1RoSZkFyxqL_4core3cmp9PartialEq2eqCsbujzjYX0pAI_3rge
FN:37,_RNvXs8_NtNtCsflbUU710Hyp_3wyn6common5typesNtB5_4SizeNtNtCs1RoSZkFyxqL_4core5clone5Clone5cloneCs6aUA9B8vI8X_10reposition
FN:19,_RNvXs4_NtNtCsflbUU710Hyp_3wyn6common5typesNtB5_5PointNtNtCs1RoSZkFyxqL_4core3cmp9PartialEq2eqCs6aUA9B8vI8X_10reposition
FN:55,_RNvXse_NtNtCsflbUU710Hyp_3wyn6common5typesNtB5_4RectNtNtCs1RoSZkFyxqL_4core5clone5Clone5cloneCs6aUA9B8vI8X_10reposition
FN:37,_RNvXsa_NtNtCsflbUU710Hyp_3wyn6common5typesNtB5_4SizeNtNtCs1RoSZkFyxqL_4core3cmp9PartialEq2eqCs6aUA9B8vI8X_10reposition
FN:19,_RNvXs2_NtNtCsflbUU710Hyp_3wyn6common5typesNtB5_5PointNtNtCs1RoSZkFyxqL_4core5clone5Clone5cloneCs6aUA9B8vI8X_10reposition
FN:55,_RNvXsg_NtNtCsflbUU710Hyp_3wyn6common5typesNtB5_4RectNtNtCs1RoSZkFyxqL_4core3cmp9PartialEq2eqCs6aUA9B8vI8X_10reposition
FN:55,_RNvXsi_NtNtCsi8pFR5hElLZ_3wyn6common5typesNtB5_4RectNtNtCs1RoSZkFyxqL_4core7default7Default7defaultB9_
FN:37,_RNvXsa_NtNtCsi8pFR5hElLZ_3wyn6common5typesNtB5_4SizeNtNtCs1RoSZkFyxqL_4core3cmp9PartialEq2eqB9_
FN:37,_RNvXsc_NtNtCsi8pFR5hElLZ_3wyn6common5typesNtB5_4SizeNtNtCs1RoSZkFyxqL_4core7default7Default7defaultB9_
FN:19,_RNvXs6_NtNtCsi8pFR5hElLZ_3wyn6common5typesNtB5_5PointNtNtCs1RoSZkFyxqL_4core7default7Default7defaultB9_
FN:90,_RNvMs0_NtNtCsi8pFR5hElLZ_3wyn6common5typesNtB5_4Rect6aspect
FN:47,_RNvMs_NtNtCsi8pFR5hElLZ_3wyn6common5typesNtB4_4Size3new
FN:55,_RNvXse_NtNtCsi8pFR5hElLZ_3wyn6common5typesNtB5_4RectNtNtCs1RoSZkFyxqL_4core5clone5Clone5cloneB9_
FN:37,_RNvXsb_NtNtCsi8pFR5hElLZ_3wyn6common5typesNtB5_4SizeNtNtCs1RoSZkFyxqL_4core3fmt5Debug3fmt
FN:19,_RNvXs5_NtNtCsi8pFR5hElLZ_3wyn6common5typesNtB5_5PointNtNtCs1RoSZkFyxqL_4core3fmt5Debug3fmt
FN:37,_RNvXs8_NtNtCsi8pFR5hElLZ_3wyn6common5typesNtB5_4SizeNtNtCs1RoSZkFyxqL_4core5clone5Clone5cloneB9_
FN:55,_RNvXsg_NtNtCsi8pFR5hElLZ_3wyn6common5typesNtB5_4RectNtNtCs1RoSZkFyxqL_4core3cmp9PartialEq2eqB9_
FN:65,_RNvMs0_NtNtCsi8pFR5hElLZ_3wyn6common5typesNtB5_4Rect3new
FN:19,_RNvXs4_NtNtCsi8pFR5hElLZ_3wyn6common5typesNtB5_5PointNtNtCs1RoSZkFyxqL_4core3cmp9PartialEq2eqB9_
FN:29,_RNvMNtNtCsi8pFR5hElLZ_3wyn6common5typesNtB2_5Point3new
FN:55,_RNvXsh_NtNtCsi8pFR5hElLZ_3wyn6common5typesNtB5_4RectNtNtCs1RoSZkFyxqL_4core3fmt5Debug3fmt
FN:82,_RNvMs0_NtNtCsi8pFR5hElLZ_3wyn6common5typesNtB5_4Rect6center
FN:19,_RNvXs2_NtNtCsi8pFR5hElLZ_3wyn6common5typesNtB5_5PointNtNtCs1RoSZkFyxqL_4core5clone5Clone5cloneB9_
FN:73,_RNvMs0_NtNtCsi8pFR5hElLZ_3wyn6common5typesNtB5_4Rect12new_centered
FNDA:3730,_RNvXsb_NtNtCsflbUU710Hyp_3wyn6common5typesNtB5_4SizeNtNtCs1RoSZkFyxqL_4core3fmt5Debug3fmt
FNDA:33983,_RNvMNtNtCsflbUU710Hyp_3wyn6common5typesNtB2_5Point3new
FNDA:6,_RNvMs0_NtNtCsflbUU710Hyp_3wyn6common5typesNtB5_4Rect12new_centered
FNDA:5347,_RNvXs5_NtNtCsflbUU710Hyp_3wyn6common5typesNtB5_5PointNtNtCs1RoSZkFyxqL_4core3fmt5Debug3fmt
FNDA:2,_RNvMs0_NtNtCsflbUU710Hyp_3wyn6common5typesNtB5_4Rect3new
FNDA:8,_RNvMs_NtNtCsflbUU710Hyp_3wyn6common5typesNtB4_4Size3new
FNDA:5035,_RNvMs0_NtNtCsflbUU710Hyp_3wyn6common5typesNtB5_4Rect6aspect
FNDA:3729,_RNvXsh_NtNtCsflbUU710Hyp_3wyn6common5typesNtB5_4RectNtNtCs1RoSZkFyxqL_4core3fmt5Debug3fmt
FNDA:10076,_RNvMs0_NtNtCsflbUU710Hyp_3wyn6common5typesNtB5_4Rect6center
FNDA:0,_RNvXsi_NtNtCsflbUU710Hyp_3wyn6common5typesNtB5_4RectNtNtCs1RoSZkFyxqL_4core7default7Default7defaultB9_
FNDA:0,_RNvXse_NtNtCsflbUU710Hyp_3wyn6common5typesNtB5_4RectNtNtCs1RoSZkFyxqL_4core5clone5Clone5cloneB9_
FNDA:0,_RNvXsa_NtNtCsflbUU710Hyp_3wyn6common5typesNtB5_4SizeNtNtCs1RoSZkFyxqL_4core3cmp9PartialEq2eqB9_
FNDA:0,_RNvXsc_NtNtCsflbUU710Hyp_3wyn6common5typesNtB5_4SizeNtNtCs1RoSZkFyxqL_4core7default7Default7defaultB9_
FNDA:0,_RNvXs4_NtNtCsflbUU710Hyp_3wyn6common5typesNtB5_5PointNtNtCs1RoSZkFyxqL_4core3cmp9PartialEq2eqB9_
FNDA:0,_RNvXs6_NtNtCsflbUU710Hyp_3wyn6common5typesNtB5_5PointNtNtCs1RoSZkFyxqL_4core7default7Default7defaultB9_
FNDA:0,_RNvXs8_NtNtCsflbUU710Hyp_3wyn6common5typesNtB5_4SizeNtNtCs1RoSZkFyxqL_4core5clone5Clone5cloneB9_
FNDA:0,_RNvXs2_NtNtCsflbUU710Hyp_3wyn6common5typesNtB5_5PointNtNtCs1RoSZkFyxqL_4core5clone5Clone5cloneB9_
FNDA:0,_RNvXsg_NtNtCsflbUU710Hyp_3wyn6common5typesNtB5_4RectNtNtCs1RoSZkFyxqL_4core3cmp9PartialEq2eqB9_
FNDA:1,_RNvXs6_NtNtCsflbUU710Hyp_3wyn6common5typesNtB5_5PointNtNtCs1RoSZkFyxqL_4core7default7Default7defaultCsewTo4KigTIS_12game_of_life
FNDA:6,_RNvXsi_NtNtCsflbUU710Hyp_3wyn6common5typesNtB5_4RectNtNtCs1RoSZkFyxqL_4core7default7Default7defaultCsbujzjYX0pAI_3rge
FNDA:7849,_RNvXsg_NtNtCsflbUU710Hyp_3wyn6common5typesNtB5_4RectNtNtCs1RoSZkFyxqL_4core3cmp9PartialEq2eqCsbujzjYX0pAI_3rge
FNDA:6,_RNvXs6_NtNtCsflbUU710Hyp_3wyn6common5typesNtB5_5PointNtNtCs1RoSZkFyxqL_4core7default7Default7defaultCsbujzjYX0pAI_3rge
FNDA:7849,_RNvXs4_NtNtCsflbUU710Hyp_3wyn6common5typesNtB5_5PointNtNtCs1RoSZkFyxqL_4core3cmp9PartialEq2eqCsbujzjYX0pAI_3rge
FNDA:6,_RNvXsc_NtNtCsflbUU710Hyp_3wyn6common5typesNtB5_4SizeNtNtCs1RoSZkFyxqL_4core7default7Default7defaultCsbujzjYX0pAI_3rge
FNDA:7837,_RNvXsa_NtNtCsflbUU710Hyp_3wyn6common5typesNtB5_4SizeNtNtCs1RoSZkFyxqL_4core3cmp9PartialEq2eqCsbujzjYX0pAI_3rge
FNDA:1,_RNvXs8_NtNtCsflbUU710Hyp_3wyn6common5typesNtB5_4SizeNtNtCs1RoSZkFyxqL_4core5clone5Clone5cloneCs6aUA9B8vI8X_10reposition
FNDA:4,_RNvXs4_NtNtCsflbUU710Hyp_3wyn6common5typesNtB5_5PointNtNtCs1RoSZkFyxqL_4core3cmp9PartialEq2eqCs6aUA9B8vI8X_10reposition
FNDA:1,_RNvXse_NtNtCsflbUU710Hyp_3wyn6common5typesNtB5_4RectNtNtCs1RoSZkFyxqL_4core5clone5Clone5cloneCs6aUA9B8vI8X_10reposition
FNDA:4,_RNvXsa_NtNtCsflbUU710Hyp_3wyn6common5typesNtB5_4SizeNtNtCs1RoSZkFyxqL_4core3cmp9PartialEq2eqCs6aUA9B8vI8X_10reposition
FNDA:1,_RNvXs2_NtNtCsflbUU710Hyp_3wyn6common5typesNtB5_5PointNtNtCs1RoSZkFyxqL_4core5clone5Clone5cloneCs6aUA9B8vI8X_10reposition
FNDA:3,_RNvXsg_NtNtCsflbUU710Hyp_3wyn6common5typesNtB5_4RectNtNtCs1RoSZkFyxqL_4core3cmp9PartialEq2eqCs6aUA9B8vI8X_10reposition
FNDA:0,_RNvXsi_NtNtCsi8pFR5hElLZ_3wyn6common5typesNtB5_4RectNtNtCs1RoSZkFyxqL_4core7default7Default7defaultB9_
FNDA:0,_RNvXsa_NtNtCsi8pFR5hElLZ_3wyn6common5typesNtB5_4SizeNtNtCs1RoSZkFyxqL_4core3cmp9PartialEq2eqB9_
FNDA:0,_RNvXsc_NtNtCsi8pFR5hElLZ_3wyn6common5typesNtB5_4SizeNtNtCs1RoSZkFyxqL_4core7default7Default7defaultB9_
FNDA:0,_RNvXs6_NtNtCsi8pFR5hElLZ_3wyn6common5typesNtB5_5PointNtNtCs1RoSZkFyxqL_4core7default7Default7defaultB9_
FNDA:0,_RNvMs0_NtNtCsi8pFR5hElLZ_3wyn6common5typesNtB5_4Rect6aspect
FNDA:0,_RNvMs_NtNtCsi8pFR5hElLZ_3wyn6common5typesNtB4_4Size3new
FNDA:0,_RNvXse_NtNtCsi8pFR5hElLZ_3wyn6common5typesNtB5_4RectNtNtCs1RoSZkFyxqL_4core5clone5Clone5cloneB9_
FNDA:0,_RNvXsb_NtNtCsi8pFR5hElLZ_3wyn6common5typesNtB5_4SizeNtNtCs1RoSZkFyxqL_4core3fmt5Debug3fmt
FNDA:0,_RNvXs5_NtNtCsi8pFR5hElLZ_3wyn6common5typesNtB5_5PointNtNtCs1RoSZkFyxqL_4core3fmt5Debug3fmt
FNDA:0,_RNvXs8_NtNtCsi8pFR5hElLZ_3wyn6common5typesNtB5_4SizeNtNtCs1RoSZkFyxqL_4core5clone5Clone5cloneB9_
FNDA:0,_RNvXsg_NtNtCsi8pFR5hElLZ_3wyn6common5typesNtB5_4RectNtNtCs1RoSZkFyxqL_4core3cmp9PartialEq2eqB9_
FNDA:0,_RNvMs0_NtNtCsi8pFR5hElLZ_3wyn6common5typesNtB5_4Rect3new
FNDA:0,_RNvXs4_NtNtCsi8pFR5hElLZ_3wyn6common5typesNtB5_5PointNtNtCs1RoSZkFyxqL_4core3cmp9PartialEq2eqB9_
FNDA:0,_RNvMNtNtCsi8pFR5hElLZ_3wyn6common5typesNtB2_5Point3new
FNDA:0,_RNvXsh_NtNtCsi8pFR5hElLZ_3wyn6common5typesNtB5_4RectNtNtCs1RoSZkFyxqL_4core3fmt5Debug3fmt
FNDA:0,_RNvMs0_NtNtCsi8pFR5hElLZ_3wyn6common5typesNtB5_4Rect6center
FNDA:0,_RNvXs2_NtNtCsi8pFR5hElLZ_3wyn6common5typesNtB5_5PointNtNtCs1RoSZkFyxqL_4core5clone5Clone5cloneB9_
FNDA:0,_RNvMs0_NtNtCsi8pFR5hElLZ_3wyn6common5typesNtB5_4Rect12new_centered
FNF:18
FNH:18
DA:19,7853
DA:29,33983
DA:30,33983
DA:31,33983
DA:37,7841
DA:47,8
DA:48,8
DA:49,8
DA:55,7852
DA:65,2
DA:66,2
DA:67,2
DA:68,2
DA:69,2
DA:70,2
DA:73,6
DA:74,6
DA:75,6
DA:76,6
DA:77,6
DA:78,6
DA:79,6
DA:82,10076
DA:83,10076
DA:84,10076
DA:85,10076
DA:86,10076
DA:87,10076
DA:90,5035
DA:91,5035
DA:92,5035
BRF:0
BRH:0
LF:40
LH:40
end_of_record
SF:C:\Users\luigi\College\Spring 2023\Capstone\EricGrandizio\wyn\src\lib.rs
FN:1,_RNvCsi8pFR5hElLZ_3wyn4main
FNDA:2,_RNvCsi8pFR5hElLZ_3wyn4main
FNF:1
FNH:1
DA:1,2
BRF:0
BRH:0
LF:1
LH:1
end_of_record
SF:C:\Users\luigi\College\Spring 2023\Capstone\EricGrandizio\wyn\src\win32\errors.rs
FN:36,_RNvNtNtCsflbUU710Hyp_3wyn5win326errors12is_panicking
FN:135,_RNvMs_NtNtCsflbUU710Hyp_3wyn5win326errorsNtB4_8WinError7message
FN:31,_RNvNtNtCsflbUU710Hyp_3wyn5win326errors21internal_is_panicking
FN:63,_RNvNtNtCsflbUU710Hyp_3wyn5win326errors19resume_if_panicking
FN:107,_RNvMNtNtCsflbUU710Hyp_3wyn5win326errorsNtB2_8WinError3new
FN:120,_RNvMNtNtCsflbUU710Hyp_3wyn5win326errorsNtB2_8WinError5clear
FN:155,_RNvXs2_NtNtCsflbUU710Hyp_3wyn5win326errorsNtB5_8WinErrorNtNtCs1RoSZkFyxqL_4core3fmt7Display3fmt
FN:183,_RNvMs3_NtNtCsflbUU710Hyp_3wyn5win326errorsNtB5_15WinErrorMessage3new
FN:250,_RNvMs5_NtNtCsflbUU710Hyp_3wyn5win326errorsNtB5_15WinErrorMessage9os_string
FN:44,_RNvNtNtCsflbUU710Hyp_3wyn5win326errors11store_panic
FN:112,_RNvMNtNtCsflbUU710Hyp_3wyn5win326errorsNtB2_8WinError7current
FN:130,_RNvMs_NtNtCsflbUU710Hyp_3wyn5win326errorsNtB4_8WinError4code
FN:147,_RNvXs1_NtNtCsflbUU710Hyp_3wyn5win326errorsNtB5_8WinErrorNtNtCs1RoSZkFyxqL_4core3fmt5Debug3fmt
FN:242,_RNvMs5_NtNtCsflbUU710Hyp_3wyn5win326errorsNtB5_15WinErrorMessage8os_slice
FN:232,_RNvXs4_NtNtCsflbUU710Hyp_3wyn5win326errorsNtB5_15WinErrorMessageNtNtNtCs1RoSZkFyxqL_4core3ops4drop4Drop4drop
FN:183,_RNvMs3_NtNtCsi8pFR5hElLZ_3wyn5win326errorsNtB5_15WinErrorMessage3new
FN:147,_RNvXs1_NtNtCsi8pFR5hElLZ_3wyn5win326errorsNtB5_8WinErrorNtNtCs1RoSZkFyxqL_4core3fmt5Debug3fmt
FN:130,_RNvMs_NtNtCsi8pFR5hElLZ_3wyn5win326errorsNtB4_8WinError4code
FN:250,_RNvMs5_NtNtCsi8pFR5hElLZ_3wyn5win326errorsNtB5_15WinErrorMessage9os_string
FN:63,_RNvNtNtCsi8pFR5hElLZ_3wyn5win326errors19resume_if_panicking
FN:135,_RNvMs_NtNtCsi8pFR5hElLZ_3wyn5win326errorsNtB4_8WinError7message
FN:44,_RNvNtNtCsi8pFR5hElLZ_3wyn5win326errors11store_panic
FN:242,_RNvMs5_NtNtCsi8pFR5hElLZ_3wyn5win326errorsNtB5_15WinErrorMessage8os_slice
FN:36,_RNvNtNtCsi8pFR5hElLZ_3wyn5win326errors12is_panicking
FN:107,_RNvMNtNtCsi8pFR5hElLZ_3wyn5win326errorsNtB2_8WinError3new
FN:31,_RNvNtNtCsi8pFR5hElLZ_3wyn5win326errors21internal_is_panicking
FN:120,_RNvMNtNtCsi8pFR5hElLZ_3wyn5win326errorsNtB2_8WinError5clear
FN:232,_RNvXs4_NtNtCsi8pFR5hElLZ_3wyn5win326errorsNtB5_15WinErrorMessageNtNtNtCs1RoSZkFyxqL_4core3ops4drop4Drop4drop
FN:155,_RNvXs2_NtNtCsi8pFR5hElLZ_3wyn5win326errorsNtB5_8WinErrorNtNtCs1RoSZkFyxqL_4core3fmt7Display3fmt
FN:112,_RNvMNtNtCsi8pFR5hElLZ_3wyn5win326errorsNtB2_8WinError7current
FNDA:38,_RNvNtNtCsflbUU710Hyp_3wyn5win326errors12is_panicking
FNDA:2,_RNvMs_NtNtCsflbUU710Hyp_3wyn5win326errorsNtB4_8WinError7message
FNDA:228374,_RNvNtNtCsflbUU710Hyp_3wyn5win326errors21internal_is_panicking
FNDA:76741,_RNvNtNtCsflbUU710Hyp_3wyn5win326errors19resume_if_panicking
FNDA:27661,_RNvMNtNtCsflbUU710Hyp_3wyn5win326errorsNtB2_8WinError3new
FNDA:190,_RNvMNtNtCsflbUU710Hyp_3wyn5win326errorsNtB2_8WinError5clear
FNDA:1,_RNvXs2_NtNtCsflbUU710Hyp_3wyn5win326errorsNtB5_8WinErrorNtNtCs1RoSZkFyxqL_4core3fmt7Display3fmt
FNDA:2,_RNvMs3_NtNtCsflbUU710Hyp_3wyn5win326errorsNtB5_15WinErrorMessage3new
FNDA:2,_RNvMs5_NtNtCsflbUU710Hyp_3wyn5win326errorsNtB5_15WinErrorMessage9os_string
FNDA:1,_RNvNtNtCsflbUU710Hyp_3wyn5win326errors11store_panic
FNDA:21,_RNvMNtNtCsflbUU710Hyp_3wyn5win326errorsNtB2_8WinError7current
FNDA:20759,_RNvMs_NtNtCsflbUU710Hyp_3wyn5win326errorsNtB4_8WinError4code
FNDA:1,_RNvXs1_NtNtCsflbUU710Hyp_3wyn5win326errorsNtB5_8WinErrorNtNtCs1RoSZkFyxqL_4core3fmt5Debug3fmt
FNDA:2,_RNvMs5_NtNtCsflbUU710Hyp_3wyn5win326errorsNtB5_15WinErrorMessage8os_slice
FNDA:2,_RNvXs4_NtNtCsflbUU710Hyp_3wyn5win326errorsNtB5_15WinErrorMessageNtNtNtCs1RoSZkFyxqL_4core3ops4drop4Drop4drop
FNDA:0,_RNvMs3_NtNtCsi8pFR5hElLZ_3wyn5win326errorsNtB5_15WinErrorMessage3new
FNDA:0,_RNvXs1_NtNtCsi8pFR5hElLZ_3wyn5win326errorsNtB5_8WinErrorNtNtCs1RoSZkFyxqL_4core3fmt5Debug3fmt
FNDA:0,_RNvMs_NtNtCsi8pFR5hElLZ_3wyn5win326errorsNtB4_8WinError4code
FNDA:0,_RNvMs5_NtNtCsi8pFR5hElLZ_3wyn5win326errorsNtB5_15WinErrorMessage9os_string
FNDA:0,_RNvNtNtCsi8pFR5hElLZ_3wyn5win326errors19resume_if_panicking
FNDA:0,_RNvMs_NtNtCsi8pFR5hElLZ_3wyn5win326errorsNtB4_8WinError7message
FNDA:0,_RNvNtNtCsi8pFR5hElLZ_3wyn5win326errors11store_panic
FNDA:0,_RNvMs5_NtNtCsi8pFR5hElLZ_3wyn5win326errorsNtB5_15WinErrorMessage8os_slice
FNDA:0,_RNvNtNtCsi8pFR5hElLZ_3wyn5win326errors12is_panicking
FNDA:0,_RNvMNtNtCsi8pFR5hElLZ_3wyn5win326errorsNtB2_8WinError3new
FNDA:0,_RNvNtNtCsi8pFR5hElLZ_3wyn5win326errors21internal_is_panicking
FNDA:0,_RNvMNtNtCsi8pFR5hElLZ_3wyn5win326errorsNtB2_8WinError5clear
FNDA:0,_RNvXs4_NtNtCsi8pFR5hElLZ_3wyn5win326errorsNtB5_15WinErrorMessageNtNtNtCs1RoSZkFyxqL_4core3ops4drop4Drop4drop
FNDA:0,_RNvXs2_NtNtCsi8pFR5hElLZ_3wyn5win326errorsNtB5_8WinErrorNtNtCs1RoSZkFyxqL_4core3fmt7Display3fmt
FNDA:0,_RNvMNtNtCsi8pFR5hElLZ_3wyn5win326errorsNtB2_8WinError7current
FNF:15
FNH:15
DA:31,228374
DA:32,228374
DA:33,228374
DA:36,38
DA:37,38
DA:38,38
DA:44,1
DA:45,1
DA:48,1
DA:49,1
DA:51,1
DA:52,1
DA:53,1
DA:56,0
DA:58,1
DA:63,76741
DA:64,76741
DA:65,1
DA:66,76740
DA:67,76740
DA:107,27661
DA:108,27661
DA:109,27661
DA:112,21
DA:113,21
DA:114,21
DA:115,21
DA:116,21
DA:120,190
DA:121,190
DA:122,190
DA:123,190
DA:130,20759
DA:131,20759
DA:132,20759
DA:135,2
DA:136,2
DA:137,2
DA:138,2
DA:139,2
DA:147,1
DA:148,1
DA:149,1
DA:150,1
DA:151,1
DA:155,1
DA:156,1
DA:157,1
DA:158,1
DA:159,1
DA:183,2
DA:184,2
DA:185,2
DA:186,2
DA:187,2
DA:188,2
DA:189,2
DA:190,2
DA:191,2
DA:192,2
DA:193,2
DA:194,2
DA:195,2
DA:196,2
DA:197,2
DA:198,2
DA:199,2
DA:200,2
DA:201,2
DA:202,2
DA:203,2
DA:204,2
DA:205,2
DA:206,2
DA:207,2
DA:208,2
DA:212,2
DA:213,2
DA:214,2
DA:215,2
DA:216,2
DA:217,2
DA:218,2
DA:219,2
DA:220,2
DA:221,2
DA:222,2
DA:223,2
DA:224,2
DA:225,2
DA:226,2
DA:227,2
DA:228,2
DA:232,2
DA:233,2
DA:234,2
DA:235,2
DA:242,2
DA:243,2
DA:244,2
DA:245,2
DA:246,2
DA:247,2
DA:250,2
DA:251,2
DA:252,2
BRF:0
BRH:0
LF:106
LH:105
end_of_record
SF:C:\Users\luigi\College\Spring 2023\Capstone\EricGrandizio\wyn\src\win32\event_data.rs
FN:155,_RNvXs2_NtNtCsflbUU710Hyp_3wyn5win3210event_dataNtB5_7WinHookNtNtNtCs1RoSZkFyxqL_4core3ops4drop4Drop4drop
FN:131,_RNvXs0_NtNtCsflbUU710Hyp_3wyn5win3210event_dataNtB5_8WinClassNtNtNtCs1RoSZkFyxqL_4core3ops4drop4Drop4drop
FN:67,_RNvMNtNtCsflbUU710Hyp_3wyn5win3210event_dataNtB2_9EventData11get_running
FN:144,_RNvMs1_NtNtCsflbUU710Hyp_3wyn5win3210event_dataNtB5_7WinHook3new
FN:96,_RNvMs_NtNtCsflbUU710Hyp_3wyn5win3210event_dataNtB4_8WinClass3new
FN:45,_RNvMNtNtCsflbUU710Hyp_3wyn5win3210event_dataNtB2_9EventData3new
FN:72,_RNvMNtNtCsflbUU710Hyp_3wyn5win3210event_dataNtB2_9EventData11set_running
FN:144,_RNvMs1_NtNtCsi8pFR5hElLZ_3wyn5win3210event_dataNtB5_7WinHook3new
FN:131,_RNvXs0_NtNtCsi8pFR5hElLZ_3wyn5win3210event_dataNtB5_8WinClassNtNtNtCs1RoSZkFyxqL_4core3ops4drop4Drop4drop
FN:155,_RNvXs2_NtNtCsi8pFR5hElLZ_3wyn5win3210event_dataNtB5_7WinHookNtNtNtCs1RoSZkFyxqL_4core3ops4drop4Drop4drop
FN:72,_RNvMNtNtCsi8pFR5hElLZ_3wyn5win3210event_dataNtB2_9EventData11set_running
FN:67,_RNvMNtNtCsi8pFR5hElLZ_3wyn5win3210event_dataNtB2_9EventData11get_running
FN:45,_RNvMNtNtCsi8pFR5hElLZ_3wyn5win3210event_dataNtB2_9EventData3new
FN:96,_RNvMs_NtNtCsi8pFR5hElLZ_3wyn5win3210event_dataNtB4_8WinClass3new
FNDA:20,_RNvXs2_NtNtCsflbUU710Hyp_3wyn5win3210event_dataNtB5_7WinHookNtNtNtCs1RoSZkFyxqL_4core3ops4drop4Drop4drop
FNDA:20,_RNvXs0_NtNtCsflbUU710Hyp_3wyn5win3210event_dataNtB5_8WinClassNtNtNtCs1RoSZkFyxqL_4core3ops4drop4Drop4drop
FNDA:6988,_RNvMNtNtCsflbUU710Hyp_3wyn5win3210event_dataNtB2_9EventData11get_running
FNDA:20,_RNvMs1_NtNtCsflbUU710Hyp_3wyn5win3210event_dataNtB5_7WinHook3new
FNDA:20,_RNvMs_NtNtCsflbUU710Hyp_3wyn5win3210event_dataNtB4_8WinClass3new
FNDA:20,_RNvMNtNtCsflbUU710Hyp_3wyn5win3210event_dataNtB2_9EventData3new
FNDA:38,_RNvMNtNtCsflbUU710Hyp_3wyn5win3210event_dataNtB2_9EventData11set_running
FNDA:0,_RNvMs1_NtNtCsi8pFR5hElLZ_3wyn5win3210event_dataNtB5_7WinHook3new
FNDA:0,_RNvXs0_NtNtCsi8pFR5hElLZ_3wyn5win3210event_dataNtB5_8WinClassNtNtNtCs1RoSZkFyxqL_4core3ops4drop4Drop4drop
FNDA:0,_RNvXs2_NtNtCsi8pFR5hElLZ_3wyn5win3210event_dataNtB5_7WinHookNtNtNtCs1RoSZkFyxqL_4core3ops4drop4Drop4drop
FNDA:0,_RNvMNtNtCsi8pFR5hElLZ_3wyn5win3210event_dataNtB2_9EventData11set_running
FNDA:0,_RNvMNtNtCsi8pFR5hElLZ_3wyn5win3210event_dataNtB2_9EventData11get_running
FNDA:0,_RNvMNtNtCsi8pFR5hElLZ_3wyn5win3210event_dataNtB2_9EventData3new
FNDA:0,_RNvMs_NtNtCsi8pFR5hElLZ_3wyn5win3210event_dataNtB4_8WinClass3new
FNF:7
FNH:7
DA:45,20
DA:46,20
DA:47,20
DA:48,20
DA:49,20
DA:50,20
DA:51,20
DA:53,20
DA:55,20
DA:57,20
DA:58,20
DA:59,20
DA:60,20
DA:61,20
DA:62,20
DA:63,20
DA:64,20
DA:67,6988
DA:68,6988
DA:69,6988
DA:72,38
DA:73,38
DA:74,38
DA:75,38
DA:76,38
DA:96,20
DA:98,20
DA:99,20
DA:101,20
DA:102,20
DA:106,20
DA:107,20
DA:108,20
DA:109,20
DA:110,20
DA:111,20
DA:112,20
DA:113,20
DA:114,20
DA:115,20
DA:116,20
DA:117,20
DA:118,20
DA:119,20
DA:120,20
DA:123,20
DA:124,20
DA:126,20
DA:127,20
DA:131,20
DA:132,20
DA:133,20
DA:134,20
DA:144,20
DA:145,20
DA:146,20
DA:147,20
DA:148,20
DA:150,20
DA:151,20
DA:155,20
DA:156,20
DA:157,20
DA:158,20
BRF:0
BRH:0
LF:64
LH:64
end_of_record
SF:C:\Users\luigi\College\Spring 2023\Capstone\EricGrandizio\wyn\src\win32\event_loop.rs
FN:216,_RNvMs3_NtNtCsflbUU710Hyp_3wyn5win3210event_loopNtB5_9EventLoop13await_startup
FN:198,_RNvMs3_NtNtCsflbUU710Hyp_3wyn5win3210event_loopNtB5_9EventLoop12request_stop
FN:51,_RNvMs_NtNtCsflbUU710Hyp_3wyn5win3210event_loopNtB4_9EventLoop3new
FN:193,_RNvMs3_NtNtCsflbUU710Hyp_3wyn5win3210event_loopNtB5_9EventLoop10is_running
FN:339,_RNvMs4_NtNtCsflbUU710Hyp_3wyn5win3210event_loopNtB5_9EventLoop11clear_tasks
FN:601,_RNvMs5_NtNtCsflbUU710Hyp_3wyn5win3210event_loopNtB5_9EventLoop22internal_hookproc_impl
FN:230,_RNvMs3_NtNtCsflbUU710Hyp_3wyn5win3210event_loopNtB5_9EventLoop17await_termination
FN:363,_RNvMs5_NtNtCsflbUU710Hyp_3wyn5win3210event_loopNtB5_9EventLoop16internal_wndproc
FN:134,_RNvMs2_NtNtCsflbUU710Hyp_3wyn5win3210event_loopNtB5_9EventLoop3run
FN:383,_RNvMs5_NtNtCsflbUU710Hyp_3wyn5win3210event_loopNtB5_9EventLoop21internal_wndproc_impl
FN:100,_RNvMs0_NtNtCsflbUU710Hyp_3wyn5win3210event_loopNtB5_14EventLoopGuard3new
FN:582,_RNvMs5_NtNtCsflbUU710Hyp_3wyn5win3210event_loopNtB5_9EventLoop17internal_hookproc
FN:329,_RNvMs4_NtNtCsflbUU710Hyp_3wyn5win3210event_loopNtB5_9EventLoop12signal_tasks
FN:187,_RNvMs3_NtNtCsflbUU710Hyp_3wyn5win3210event_loopNtB5_9EventLoop14is_this_thread
FN:151,_RNvMs2_NtNtCsflbUU710Hyp_3wyn5win3210event_loopNtB5_9EventLoop12internal_run
FN:635,_RNvMs5_NtNtCsflbUU710Hyp_3wyn5win3210event_loopNtB5_9EventLoop19internal_close_proc
FN:629,_RNvMs5_NtNtCsflbUU710Hyp_3wyn5win3210event_loopNtB5_9EventLoop29internal_close_thread_windows
FN:117,_RNvXs1_NtNtCsflbUU710Hyp_3wyn5win3210event_loopNtB5_14EventLoopGuardNtNtNtCs1RoSZkFyxqL_4core3ops4drop4Drop4drop
FN:221,_RNCNvMs3_NtNtCsflbUU710Hyp_3wyn5win3210event_loopNtB7_9EventLoop13await_startup0Bb_
FN:264,_RNCINvMs4_NtNtCsflbUU710Hyp_3wyn5win3210event_loopNtB8_9EventLoop7executeINtNtCs1RoSZkFyxqL_4core6result6ResultNtNtBa_6window6WindowNtNtBa_6errors8WinErrorENCNvMs0_B1N_B1L_4open0E0Bc_
FN:345,_RNCNvMs4_NtNtCsflbUU710Hyp_3wyn5win3210event_loopNtB7_9EventLoop11clear_tasks0Bb_
FN:201,_RNCNvMs3_NtNtCsflbUU710Hyp_3wyn5win3210event_loopNtB7_9EventLoop12request_stop0Bb_
FN:589,_RNCNvMs5_NtNtCsflbUU710Hyp_3wyn5win3210event_loopNtB7_9EventLoop17internal_hookproc0Bb_
FN:316,_RNCINvMs4_NtNtCsflbUU710Hyp_3wyn5win3210event_loopNtB8_9EventLoop16execute_detachedINtNtCs1RoSZkFyxqL_4core6result6ResultuuENCNvMs7_NtBa_6windowNtB26_6Window14request_redraw0E0Bc_
FN:235,_RNCNvMs3_NtNtCsflbUU710Hyp_3wyn5win3210event_loopNtB7_9EventLoop17await_termination0Bb_
FN:253,_RINvMs4_NtNtCsflbUU710Hyp_3wyn5win3210event_loopNtB6_9EventLoop7executeINtNtCs1RoSZkFyxqL_4core6result6ResultuNtNtB8_6errors8WinErrorENCNvMs0_NtB8_6windowNtB2g_6Window5close0EBa_
FN:433,_RNCNvMs5_NtNtCsflbUU710Hyp_3wyn5win3210event_loopNtB7_9EventLoop21internal_wndproc_impl0Bb_
FN:312,_RINvMs4_NtNtCsflbUU710Hyp_3wyn5win3210event_loopNtB6_9EventLoop16execute_detachedINtNtCs1RoSZkFyxqL_4core6result6ResultuuENCNvMs7_NtB8_6windowNtB24_6Window14request_redraw0EBa_
FN:312,_RINvMs4_NtNtCsflbUU710Hyp_3wyn5win3210event_loopNtB6_9EventLoop16execute_detacheduNCNvMs3_B6_BK_12request_stop0EBa_
FN:253,_RINvMs4_NtNtCsflbUU710Hyp_3wyn5win3210event_loopNtB6_9EventLoop7executeINtNtCs1RoSZkFyxqL_4core6result6ResultNtNtB8_6window6WindowNtNtB8_6errors8WinErrorENCNvMs0_B1L_B1J_4open0EBa_
FN:316,_RNCINvMs4_NtNtCsflbUU710Hyp_3wyn5win3210event_loopNtB8_9EventLoop16execute_detacheduNCNvMs3_B8_BM_12request_stop0E0Bc_
FN:371,_RNCNvMs5_NtNtCsflbUU710Hyp_3wyn5win3210event_loopNtB7_9EventLoop16internal_wndproc0Bb_
FN:264,_RNCINvMs4_NtNtCsflbUU710Hyp_3wyn5win3210event_loopNtB8_9EventLoop7executeINtNtCs1RoSZkFyxqL_4core6result6ResultuNtNtBa_6errors8WinErrorENCNvMs0_NtBa_6windowNtB2i_6Window5close0E0Bc_
FN:292,_RNCINvMs4_NtNtCsflbUU710Hyp_3wyn5win3210event_loopNtB8_9EventLoop15execute_discardppE0Bc_
FN:282,_RINvMs4_NtNtCsflbUU710Hyp_3wyn5win3210event_loopNtB6_9EventLoop15execute_discardppEBa_
FN:264,_RNCINvMs4_NtNtCsflbUU710Hyp_3wyn5win3210event_loopNtB8_9EventLoop7executeuNCNvMCsghCtTfKLs0F_7executeNtB1f_7TestApp3runs0_0E0B1f_
FN:264,_RNCINvMs4_NtNtCsflbUU710Hyp_3wyn5win3210event_loopNtB8_9EventLoop7executeuNCNvXs_CsghCtTfKLs0F_7executeNtB1h_7TestAppNtNtBa_6events12EventHandler5starts1_0E0B1h_
FN:253,_RINvMs4_NtNtCsflbUU710Hyp_3wyn5win3210event_loopNtB6_9EventLoop7executeuNCNvXs_CsghCtTfKLs0F_7executeNtB1f_7TestAppNtNtB8_6events12EventHandler5starts0_0EB1f_
FN:292,_RNCINvMs4_NtNtCsflbUU710Hyp_3wyn5win3210event_loopNtB8_9EventLoop15execute_discarduNCNvMCsghCtTfKLs0F_7executeNtB1o_7TestApp3run0E0B1o_
FN:282,_RINvMs4_NtNtCsflbUU710Hyp_3wyn5win3210event_loopNtB6_9EventLoop15execute_discarduNCNvMCsghCtTfKLs0F_7executeNtB1m_7TestApp3run0EB1m_
FN:253,_RINvMs4_NtNtCsflbUU710Hyp_3wyn5win3210event_loopNtB6_9EventLoop7executeuNCNvXs_CsghCtTfKLs0F_7executeNtB1f_7TestAppNtNtB8_6events12EventHandler5starts_0EB1f_
FN:253,_RINvMs4_NtNtCsflbUU710Hyp_3wyn5win3210event_loopNtB6_9EventLoop7executeuNCNvMCsghCtTfKLs0F_7executeNtB1d_7TestApp3runs1_0EB1d_
FN:264,_RNCINvMs4_NtNtCsflbUU710Hyp_3wyn5win3210event_loopNtB8_9EventLoop7executeuNCNvMCsghCtTfKLs0F_7executeNtB1f_7TestApp3runs1_0E0B1f_
FN:264,_RNCINvMs4_NtNtCsflbUU710Hyp_3wyn5win3210event_loopNtB8_9EventLoop7executeuNCNvMCsghCtTfKLs0F_7executeNtB1f_7TestApp3runs_0E0B1f_
FN:264,_RNCINvMs4_NtNtCsflbUU710Hyp_3wyn5win3210event_loopNtB8_9EventLoop7executeuNCNvXs_CsghCtTfKLs0F_7executeNtB1h_7TestAppNtNtBa_6events12EventHandler5starts_0E0B1h_
FN:253,_RINvMs4_NtNtCsflbUU710Hyp_3wyn5win3210event_loopNtB6_9EventLoop7executeuNCNvMCsghCtTfKLs0F_7executeNtB1d_7TestApp3runs0_0EB1d_
FN:292,_RNCINvMs4_NtNtCsflbUU710Hyp_3wyn5win3210event_loopNtB8_9EventLoop15execute_discarduNCNvXs_CsghCtTfKLs0F_7executeNtB1q_7TestAppNtNtBa_6events12EventHandler5start0E0B1q_
FN:264,_RNCINvMs4_NtNtCsflbUU710Hyp_3wyn5win3210event_loopNtB8_9EventLoop7executeuNCNvXs_CsghCtTfKLs0F_7executeNtB1h_7TestAppNtNtBa_6events12EventHandler5starts0_0E0B1h_
FN:282,_RINvMs4_NtNtCsflbUU710Hyp_3wyn5win3210event_loopNtB6_9EventLoop15execute_discarduNCNvXs_CsghCtTfKLs0F_7executeNtB1o_7TestAppNtNtB8_6events12EventHandler5start0EB1o_
FN:253,_RINvMs4_NtNtCsflbUU710Hyp_3wyn5win3210event_loopNtB6_9EventLoop7executeuNCNvXs_CsghCtTfKLs0F_7executeNtB1f_7TestAppNtNtB8_6events12EventHandler5starts1_0EB1f_
FN:253,_RINvMs4_NtNtCsflbUU710Hyp_3wyn5win3210event_loopNtB6_9EventLoop7executeuNCNvMCsghCtTfKLs0F_7executeNtB1d_7TestApp3runs_0EB1d_
FN:201,_RNCNvMs3_NtNtCsi8pFR5hElLZ_3wyn5win3210event_loopNtB7_9EventLoop12request_stop0Bb_
FN:216,_RNvMs3_NtNtCsi8pFR5hElLZ_3wyn5win3210event_loopNtB5_9EventLoop13await_startup
FN:117,_RNvXs1_NtNtCsi8pFR5hElLZ_3wyn5win3210event_loopNtB5_14EventLoopGuardNtNtNtCs1RoSZkFyxqL_4core3ops4drop4Drop4drop
FN:198,_RNvMs3_NtNtCsi8pFR5hElLZ_3wyn5win3210event_loopNtB5_9EventLoop12request_stop
FN:221,_RNCNvMs3_NtNtCsi8pFR5hElLZ_3wyn5win3210event_loopNtB7_9EventLoop13await_startup0Bb_
FN:230,_RNvMs3_NtNtCsi8pFR5hElLZ_3wyn5win3210event_loopNtB5_9EventLoop17await_termination
FN:582,_RNvMs5_NtNtCsi8pFR5hElLZ_3wyn5win3210event_loopNtB5_9EventLoop17internal_hookproc
FN:329,_RNvMs4_NtNtCsi8pFR5hElLZ_3wyn5win3210event_loopNtB5_9EventLoop12signal_tasks
FN:51,_RNvMs_NtNtCsi8pFR5hElLZ_3wyn5win3210event_loopNtB4_9EventLoop3new
FN:253,_RINvMs4_NtNtCsi8pFR5hElLZ_3wyn5win3210event_loopNtB6_9EventLoop7executeppEBa_
FN:264,_RNCINvMs4_NtNtCsi8pFR5hElLZ_3wyn5win3210event_loopNtB8_9EventLoop7executeppE0Bc_
FN:282,_RINvMs4_NtNtCsi8pFR5hElLZ_3wyn5win3210event_loopNtB6_9EventLoop15execute_discardppEBa_
FN:134,_RNvMs2_NtNtCsi8pFR5hElLZ_3wyn5win3210event_loopNtB5_9EventLoop3run
FN:629,_RNvMs5_NtNtCsi8pFR5hElLZ_3wyn5win3210event_loopNtB5_9EventLoop29internal_close_thread_windows
FN:339,_RNvMs4_NtNtCsi8pFR5hElLZ_3wyn5win3210event_loopNtB5_9EventLoop11clear_tasks
FN:383,_RNvMs5_NtNtCsi8pFR5hElLZ_3wyn5win3210event_loopNtB5_9EventLoop21internal_wndproc_impl
FN:312,_RINvMs4_NtNtCsi8pFR5hElLZ_3wyn5win3210event_loopNtB6_9EventLoop16execute_detachedppEBa_
FN:601,_RNvMs5_NtNtCsi8pFR5hElLZ_3wyn5win3210event_loopNtB5_9EventLoop22internal_hookproc_impl
FN:151,_RNvMs2_NtNtCsi8pFR5hElLZ_3wyn5win3210event_loopNtB5_9EventLoop12internal_run
FN:433,_RNCNvMs5_NtNtCsi8pFR5hElLZ_3wyn5win3210event_loopNtB7_9EventLoop21internal_wndproc_impl0Bb_
FN:363,_RNvMs5_NtNtCsi8pFR5hElLZ_3wyn5win3210event_loopNtB5_9EventLoop16internal_wndproc
FN:235,_RNCNvMs3_NtNtCsi8pFR5hElLZ_3wyn5win3210event_loopNtB7_9EventLoop17await_termination0Bb_
FN:635,_RNvMs5_NtNtCsi8pFR5hElLZ_3wyn5win3210event_loopNtB5_9EventLoop19internal_close_proc
FN:345,_RNCNvMs4_NtNtCsi8pFR5hElLZ_3wyn5win3210event_loopNtB7_9EventLoop11clear_tasks0Bb_
FN:316,_RNCINvMs4_NtNtCsi8pFR5hElLZ_3wyn5win3210event_loopNtB8_9EventLoop16execute_detachedppE0Bc_
FN:187,_RNvMs3_NtNtCsi8pFR5hElLZ_3wyn5win3210event_loopNtB5_9EventLoop14is_this_thread
FN:589,_RNCNvMs5_NtNtCsi8pFR5hElLZ_3wyn5win3210event_loopNtB7_9EventLoop17internal_hookproc0Bb_
FN:100,_RNvMs0_NtNtCsi8pFR5hElLZ_3wyn5win3210event_loopNtB5_14EventLoopGuard3new
FN:371,_RNCNvMs5_NtNtCsi8pFR5hElLZ_3wyn5win3210event_loopNtB7_9EventLoop16internal_wndproc0Bb_
FN:292,_RNCINvMs4_NtNtCsi8pFR5hElLZ_3wyn5win3210event_loopNtB8_9EventLoop15execute_discardppE0Bc_
FN:193,_RNvMs3_NtNtCsi8pFR5hElLZ_3wyn5win3210event_loopNtB5_9EventLoop10is_running
FNDA:12,_RNvMs3_NtNtCsflbUU710Hyp_3wyn5win3210event_loopNtB5_9EventLoop13await_startup
FNDA:24,_RNvMs3_NtNtCsflbUU710Hyp_3wyn5win3210event_loopNtB5_9EventLoop12request_stop
FNDA:23,_RNvMs_NtNtCsflbUU710Hyp_3wyn5win3210event_loopNtB4_9EventLoop3new
FNDA:6963,_RNvMs3_NtNtCsflbUU710Hyp_3wyn5win3210event_loopNtB5_9EventLoop10is_running
FNDA:9197,_RNvMs4_NtNtCsflbUU710Hyp_3wyn5win3210event_loopNtB5_9EventLoop11clear_tasks
FNDA:53310,_RNvMs5_NtNtCsflbUU710Hyp_3wyn5win3210event_loopNtB5_9EventLoop22internal_hookproc_impl
FNDA:1,_RNvMs3_NtNtCsflbUU710Hyp_3wyn5win3210event_loopNtB5_9EventLoop17await_termination
FNDA:175064,_RNvMs5_NtNtCsflbUU710Hyp_3wyn5win3210event_loopNtB5_9EventLoop16internal_wndproc
FNDA:19,_RNvMs2_NtNtCsflbUU710Hyp_3wyn5win3210event_loopNtB5_9EventLoop3run
FNDA:175064,_RNvMs5_NtNtCsflbUU710Hyp_3wyn5win3210event_loopNtB5_9EventLoop21internal_wndproc_impl
FNDA:19,_RNvMs0_NtNtCsflbUU710Hyp_3wyn5win3210event_loopNtB5_14EventLoopGuard3new
FNDA:53310,_RNvMs5_NtNtCsflbUU710Hyp_3wyn5win3210event_loopNtB5_9EventLoop17internal_hookproc
FNDA:9202,_RNvMs4_NtNtCsflbUU710Hyp_3wyn5win3210event_loopNtB5_9EventLoop12signal_tasks
FNDA:9250,_RNvMs3_NtNtCsflbUU710Hyp_3wyn5win3210event_loopNtB5_9EventLoop14is_this_thread
FNDA:19,_RNvMs2_NtNtCsflbUU710Hyp_3wyn5win3210event_loopNtB5_9EventLoop12internal_run
FNDA:2,_RNvMs5_NtNtCsflbUU710Hyp_3wyn5win3210event_loopNtB5_9EventLoop19internal_close_proc
FNDA:38,_RNvMs5_NtNtCsflbUU710Hyp_3wyn5win3210event_loopNtB5_9EventLoop29internal_close_thread_windows
FNDA:19,_RNvXs1_NtNtCsflbUU710Hyp_3wyn5win3210event_loopNtB5_14EventLoopGuardNtNtNtCs1RoSZkFyxqL_4core3ops4drop4Drop4drop
FNDA:23,_RNCNvMs3_NtNtCsflbUU710Hyp_3wyn5win3210event_loopNtB7_9EventLoop13await_startup0Bb_
FNDA:0,_RNCINvMs4_NtNtCsflbUU710Hyp_3wyn5win3210event_loopNtB8_9EventLoop7executeINtNtCs1RoSZkFyxqL_4core6result6ResultNtNtBa_6window6WindowNtNtBa_6errors8WinErrorENCNvMs0_B1N_B1L_4open0E0Bc_
FNDA:18394,_RNCNvMs4_NtNtCsflbUU710Hyp_3wyn5win3210event_loopNtB7_9EventLoop11clear_tasks0Bb_
FNDA:19,_RNCNvMs3_NtNtCsflbUU710Hyp_3wyn5win3210event_loopNtB7_9EventLoop12request_stop0Bb_
FNDA:53310,_RNCNvMs5_NtNtCsflbUU710Hyp_3wyn5win3210event_loopNtB7_9EventLoop17internal_hookproc0Bb_
FNDA:9174,_RNCINvMs4_NtNtCsflbUU710Hyp_3wyn5win3210event_loopNtB8_9EventLoop16execute_detachedINtNtCs1RoSZkFyxqL_4core6result6ResultuuENCNvMs7_NtBa_6windowNtB26_6Window14request_redraw0E0Bc_
FNDA:2,_RNCNvMs3_NtNtCsflbUU710Hyp_3wyn5win3210event_loopNtB7_9EventLoop17await_termination0Bb_
FNDA:9,_RINvMs4_NtNtCsflbUU710Hyp_3wyn5win3210event_loopNtB6_9EventLoop7executeINtNtCs1RoSZkFyxqL_4core6result6ResultuNtNtB8_6errors8WinErrorENCNvMs0_NtB8_6windowNtB2g_6Window5close0EBa_
FNDA:9826,_RNCNvMs5_NtNtCsflbUU710Hyp_3wyn5win3210event_loopNtB7_9EventLoop21internal_wndproc_impl0Bb_
FNDA:9174,_RINvMs4_NtNtCsflbUU710Hyp_3wyn5win3210event_loopNtB6_9EventLoop16execute_detachedINtNtCs1RoSZkFyxqL_4core6result6ResultuuENCNvMs7_NtB8_6windowNtB24_6Window14request_redraw0EBa_
FNDA:24,_RINvMs4_NtNtCsflbUU710Hyp_3wyn5win3210event_loopNtB6_9EventLoop16execute_detacheduNCNvMs3_B6_BK_12request_stop0EBa_
FNDA:17,_RINvMs4_NtNtCsflbUU710Hyp_3wyn5win3210event_loopNtB6_9EventLoop7executeINtNtCs1RoSZkFyxqL_4core6result6ResultNtNtB8_6window6WindowNtNtB8_6errors8WinErrorENCNvMs0_B1L_B1J_4open0EBa_
FNDA:19,_RNCINvMs4_NtNtCsflbUU710Hyp_3wyn5win3210event_loopNtB8_9EventLoop16execute_detacheduNCNvMs3_B8_BM_12request_stop0E0Bc_
FNDA:175064,_RNCNvMs5_NtNtCsflbUU710Hyp_3wyn5win3210event_loopNtB7_9EventLoop16internal_wndproc0Bb_
FNDA:0,_RNCINvMs4_NtNtCsflbUU710Hyp_3wyn5win3210event_loopNtB8_9EventLoop7executeINtNtCs1RoSZkFyxqL_4core6result6ResultuNtNtBa_6errors8WinErrorENCNvMs0_NtBa_6windowNtB2i_6Window5close0E0Bc_
FNDA:0,_RNCINvMs4_NtNtCsflbUU710Hyp_3wyn5win3210event_loopNtB8_9EventLoop15execute_discardppE0Bc_
FNDA:0,_RINvMs4_NtNtCsflbUU710Hyp_3wyn5win3210event_loopNtB6_9EventLoop15execute_discardppEBa_
FNDA:1,_RNCINvMs4_NtNtCsflbUU710Hyp_3wyn5win3210event_loopNtB8_9EventLoop7executeuNCNvMCsghCtTfKLs0F_7executeNtB1f_7TestApp3runs0_0E0B1f_
FNDA:0,_RNCINvMs4_NtNtCsflbUU710Hyp_3wyn5win3210event_loopNtB8_9EventLoop7executeuNCNvXs_CsghCtTfKLs0F_7executeNtB1h_7TestAppNtNtBa_6events12EventHandler5starts1_0E0B1h_
FNDA:1,_RINvMs4_NtNtCsflbUU710Hyp_3wyn5win3210event_loopNtB6_9EventLoop7executeuNCNvXs_CsghCtTfKLs0F_7executeNtB1f_7TestAppNtNtB8_6events12EventHandler5starts0_0EB1f_
FNDA:1,_RNCINvMs4_NtNtCsflbUU710Hyp_3wyn5win3210event_loopNtB8_9EventLoop15execute_discarduNCNvMCsghCtTfKLs0F_7executeNtB1o_7TestApp3run0E0B1o_
FNDA:1,_RINvMs4_NtNtCsflbUU710Hyp_3wyn5win3210event_loopNtB6_9EventLoop15execute_discarduNCNvMCsghCtTfKLs0F_7executeNtB1m_7TestApp3run0EB1m_
FNDA:1,_RINvMs4_NtNtCsflbUU710Hyp_3wyn5win3210event_loopNtB6_9EventLoop7executeuNCNvXs_CsghCtTfKLs0F_7executeNtB1f_7TestAppNtNtB8_6events12EventHandler5starts_0EB1f_
FNDA:1,_RINvMs4_NtNtCsflbUU710Hyp_3wyn5win3210event_loopNtB6_9EventLoop7executeuNCNvMCsghCtTfKLs0F_7executeNtB1d_7TestApp3runs1_0EB1d_
FNDA:1,_RNCINvMs4_NtNtCsflbUU710Hyp_3wyn5win3210event_loopNtB8_9EventLoop7executeuNCNvMCsghCtTfKLs0F_7executeNtB1f_7TestApp3runs1_0E0B1f_
FNDA:1,_RNCINvMs4_NtNtCsflbUU710Hyp_3wyn5win3210event_loopNtB8_9EventLoop7executeuNCNvMCsghCtTfKLs0F_7executeNtB1f_7TestApp3runs_0E0B1f_
FNDA:0,_RNCINvMs4_NtNtCsflbUU710Hyp_3wyn5win3210event_loopNtB8_9EventLoop7executeuNCNvXs_CsghCtTfKLs0F_7executeNtB1h_7TestAppNtNtBa_6events12EventHandler5starts_0E0B1h_
FNDA:1,_RINvMs4_NtNtCsflbUU710Hyp_3wyn5win3210event_loopNtB6_9EventLoop7executeuNCNvMCsghCtTfKLs0F_7executeNtB1d_7TestApp3runs0_0EB1d_
FNDA:0,_RNCINvMs4_NtNtCsflbUU710Hyp_3wyn5win3210event_loopNtB8_9EventLoop15execute_discarduNCNvXs_CsghCtTfKLs0F_7executeNtB1q_7TestAppNtNtBa_6events12EventHandler5start0E0B1q_
FNDA:0,_RNCINvMs4_NtNtCsflbUU710Hyp_3wyn5win3210event_loopNtB8_9EventLoop7executeuNCNvXs_CsghCtTfKLs0F_7executeNtB1h_7TestAppNtNtBa_6events12EventHandler5starts0_0E0B1h_
FNDA:1,_RINvMs4_NtNtCsflbUU710Hyp_3wyn5win3210event_loopNtB6_9EventLoop15execute_discarduNCNvXs_CsghCtTfKLs0F_7executeNtB1o_7TestAppNtNtB8_6events12EventHandler5start0EB1o_
FNDA:1,_RINvMs4_NtNtCsflbUU710Hyp_3wyn5win3210event_loopNtB6_9EventLoop7executeuNCNvXs_CsghCtTfKLs0F_7executeNtB1f_7TestAppNtNtB8_6events12EventHandler5starts1_0EB1f_
FNDA:1,_RINvMs4_NtNtCsflbUU710Hyp_3wyn5win3210event_loopNtB6_9EventLoop7executeuNCNvMCsghCtTfKLs0F_7executeNtB1d_7TestApp3runs_0EB1d_
FNDA:0,_RNCNvMs3_NtNtCsi8pFR5hElLZ_3wyn5win3210event_loopNtB7_9EventLoop12request_stop0Bb_
FNDA:0,_RNvMs3_NtNtCsi8pFR5hElLZ_3wyn5win3210event_loopNtB5_9EventLoop13await_startup
FNDA:0,_RNvXs1_NtNtCsi8pFR5hElLZ_3wyn5win3210event_loopNtB5_14EventLoopGuardNtNtNtCs1RoSZkFyxqL_4core3ops4drop4Drop4drop
FNDA:0,_RNvMs3_NtNtCsi8pFR5hElLZ_3wyn5win3210event_loopNtB5_9EventLoop12request_stop
FNDA:0,_RNCNvMs3_NtNtCsi8pFR5hElLZ_3wyn5win3210event_loopNtB7_9EventLoop13await_startup0Bb_
FNDA:0,_RNvMs3_NtNtCsi8pFR5hElLZ_3wyn5win3210event_loopNtB5_9EventLoop17await_termination
FNDA:0,_RNvMs5_NtNtCsi8pFR5hElLZ_3wyn5win3210event_loopNtB5_9EventLoop17internal_hookproc
FNDA:0,_RNvMs4_NtNtCsi8pFR5hElLZ_3wyn5win3210event_loopNtB5_9EventLoop12signal_tasks
FNDA:0,_RNvMs_NtNtCsi8pFR5hElLZ_3wyn5win3210event_loopNtB4_9EventLoop3new
FNDA:0,_RINvMs4_NtNtCsi8pFR5hElLZ_3wyn5win3210event_loopNtB6_9EventLoop7executeppEBa_
FNDA:0,_RNCINvMs4_NtNtCsi8pFR5hElLZ_3wyn5win3210event_loopNtB8_9EventLoop7executeppE0Bc_
FNDA:0,_RINvMs4_NtNtCsi8pFR5hElLZ_3wyn5win3210event_loopNtB6_9EventLoop15execute_discardppEBa_
FNDA:0,_RNvMs2_NtNtCsi8pFR5hElLZ_3wyn5win3210event_loopNtB5_9EventLoop3run
FNDA:0,_RNvMs5_NtNtCsi8pFR5hElLZ_3wyn5win3210event_loopNtB5_9EventLoop29internal_close_thread_windows
FNDA:0,_RNvMs4_NtNtCsi8pFR5hElLZ_3wyn5win3210event_loopNtB5_9EventLoop11clear_tasks
FNDA:0,_RNvMs5_NtNtCsi8pFR5hElLZ_3wyn5win3210event_loopNtB5_9EventLoop21internal_wndproc_impl
FNDA:0,_RINvMs4_NtNtCsi8pFR5hElLZ_3wyn5win3210event_loopNtB6_9EventLoop16execute_detachedppEBa_
FNDA:0,_RNvMs5_NtNtCsi8pFR5hElLZ_3wyn5win3210event_loopNtB5_9EventLoop22internal_hookproc_impl
FNDA:0,_RNvMs2_NtNtCsi8pFR5hElLZ_3wyn5win3210event_loopNtB5_9EventLoop12internal_run
FNDA:0,_RNCNvMs5_NtNtCsi8pFR5hElLZ_3wyn5win3210event_loopNtB7_9EventLoop21internal_wndproc_impl0Bb_
FNDA:0,_RNvMs5_NtNtCsi8pFR5hElLZ_3wyn5win3210event_loopNtB5_9EventLoop16internal_wndproc
FNDA:0,_RNCNvMs3_NtNtCsi8pFR5hElLZ_3wyn5win3210event_loopNtB7_9EventLoop17await_termination0Bb_
FNDA:0,_RNvMs5_NtNtCsi8pFR5hElLZ_3wyn5win3210event_loopNtB5_9EventLoop19internal_close_proc
FNDA:0,_RNCNvMs4_NtNtCsi8pFR5hElLZ_3wyn5win3210event_loopNtB7_9EventLoop11clear_tasks0Bb_
FNDA:0,_RNCINvMs4_NtNtCsi8pFR5hElLZ_3wyn5win3210event_loopNtB8_9EventLoop16execute_detachedppE0Bc_
FNDA:0,_RNvMs3_NtNtCsi8pFR5hElLZ_3wyn5win3210event_loopNtB5_9EventLoop14is_this_thread
FNDA:0,_RNCNvMs5_NtNtCsi8pFR5hElLZ_3wyn5win3210event_loopNtB7_9EventLoop17internal_hookproc0Bb_
FNDA:0,_RNvMs0_NtNtCsi8pFR5hElLZ_3wyn5win3210event_loopNtB5_14EventLoopGuard3new
FNDA:0,_RNCNvMs5_NtNtCsi8pFR5hElLZ_3wyn5win3210event_loopNtB7_9EventLoop16internal_wndproc0Bb_
FNDA:0,_RNCINvMs4_NtNtCsi8pFR5hElLZ_3wyn5win3210event_loopNtB8_9EventLoop15execute_discardppE0Bc_
FNDA:0,_RNvMs3_NtNtCsi8pFR5hElLZ_3wyn5win3210event_loopNtB5_9EventLoop10is_running
FNF:31
FNH:31
DA:51,23
DA:52,23
DA:53,20
DA:55,2
DA:58,1
DA:62,20
DA:65,20
DA:67,20
DA:68,20
DA:69,20
DA:70,20
DA:71,20
DA:72,20
DA:73,20
DA:100,19
DA:101,19
DA:102,0
DA:103,19
DA:104,19
DA:105,19
DA:106,19
DA:107,19
DA:108,19
DA:109,19
DA:110,19
DA:111,19
DA:112,19
DA:113,19
DA:117,19
DA:118,19
DA:119,19
DA:120,19
DA:121,19
DA:122,19
DA:123,19
DA:124,19
DA:125,19
DA:134,19
DA:135,19
DA:136,19
DA:137,19
DA:138,19
DA:139,19
DA:140,19
DA:141,19
DA:142,19
DA:143,19
DA:144,19
DA:145,19
DA:151,19
DA:152,38371
DA:153,38371
DA:154,38371
DA:155,38371
DA:156,38371
DA:157,38371
DA:158,38371
DA:159,38371
DA:160,38371
DA:161,38371
DA:162,38371
DA:163,38371
DA:164,38371
DA:165,38371
DA:166,38371
DA:167,19
DA:168,0
DA:170,38352
DA:171,38352
DA:172,38352
DA:173,38352
DA:174,38352
DA:175,38352
DA:176,38352
DA:180,19
DA:187,9250
DA:188,9250
DA:189,9250
DA:190,9250
DA:193,6963
DA:194,6963
DA:195,6963
DA:198,24
DA:199,24
DA:200,24
DA:201,24
DA:202,19
DA:203,19
DA:204,19
DA:205,19
DA:206,19
DA:207,19
DA:208,19
DA:209,24
DA:210,24
DA:211,24
DA:212,24
DA:216,12
DA:217,12
DA:218,12
DA:219,12
DA:220,12
DA:221,23
DA:222,23
DA:223,23
DA:224,12
DA:225,12
DA:226,12
DA:230,1
DA:231,1
DA:232,1
DA:233,1
DA:234,1
DA:235,2
DA:236,2
DA:237,2
DA:238,1
DA:239,1
DA:240,1
DA:253,32
DA:254,32
DA:255,32
DA:256,32
DA:257,32
DA:258,32
DA:259,29
DA:260,29
DA:262,3
DA:263,3
DA:264,3
DA:265,3
DA:266,3
DA:267,3
DA:268,3
DA:269,3
DA:270,3
DA:271,3
DA:272,3
DA:273,3
DA:274,3
DA:275,3
DA:276,3
DA:278,32
DA:282,2
DA:283,2
DA:284,2
DA:285,2
DA:286,2
DA:287,1
DA:288,1
DA:290,1
DA:291,1
DA:292,1
DA:293,1
DA:294,1
DA:295,1
DA:296,1
DA:297,1
DA:298,1
DA:299,1
DA:300,1
DA:301,1
DA:302,1
DA:303,1
DA:304,1
DA:306,2
DA:312,9198
DA:313,9198
DA:314,9198
DA:315,9198
DA:316,9198
DA:317,9193
DA:318,9198
DA:319,9198
DA:320,9198
DA:321,9198
DA:322,9198
DA:323,9198
DA:324,9198
DA:325,9198
DA:326,9198
DA:329,9202
DA:330,9202
DA:333,9202
DA:335,9202
DA:336,9202
DA:339,9197
DA:340,9197
DA:341,9197
DA:345,18394
DA:346,18394
DA:347,18394
DA:348,18394
DA:351,18394
DA:352,9197
DA:353,9197
DA:354,9197
DA:363,175064
DA:364,175064
DA:365,175064
DA:366,175064
DA:367,175064
DA:368,175064
DA:369,175064
DA:370,175064
DA:371,175064
DA:373,175064
DA:374,175063
DA:375,1
DA:377,0
DA:379,1
DA:380,175064
DA:383,175064
DA:384,175064
DA:385,175064
DA:386,175064
DA:387,175064
DA:388,175064
DA:407,175064
DA:408,175064
DA:410,17
DA:411,17
DA:412,17
DA:414,23
DA:415,23
DA:416,23
DA:427,9826
DA:428,9826
DA:429,9826
DA:430,9826
DA:431,9826
DA:432,9826
DA:433,9826
DA:434,9826
DA:435,9826
DA:436,9826
DA:437,9826
DA:440,46
DA:441,46
DA:442,46
DA:443,46
DA:445,14
DA:446,14
DA:447,14
DA:448,14
DA:451,5736
DA:452,5736
DA:453,5736
DA:454,5736
DA:457,23545
DA:458,23545
DA:459,23545
DA:460,23545
DA:461,23545
DA:462,23545
DA:465,26
DA:466,26
DA:467,26
DA:468,26
DA:469,26
DA:470,26
DA:471,26
DA:475,26
DA:476,26
DA:477,26
DA:478,26
DA:479,26
DA:483,8
DA:484,8
DA:485,8
DA:486,8
DA:487,8
DA:491,8
DA:492,8
DA:493,8
DA:494,8
DA:495,8
DA:499,8
DA:500,8
DA:501,8
DA:502,8
DA:503,8
DA:507,8
DA:508,8
DA:509,8
DA:510,8
DA:511,8
DA:514,254
DA:515,254
DA:516,254
DA:517,254
DA:518,254
DA:519,254
DA:520,254
DA:521,254
DA:522,254
DA:523,254
DA:524,254
DA:525,254
DA:527,15
DA:528,15
DA:529,15
DA:530,15
DA:531,15
DA:532,15
DA:533,15
DA:534,15
DA:535,15
DA:536,15
DA:537,15
DA:538,15
DA:540,199
DA:541,199
DA:542,199
DA:543,199
DA:545,152
DA:546,152
DA:547,152
DA:548,152
DA:550,5
DA:551,5
DA:552,5
DA:553,5
DA:555,3
DA:556,3
DA:557,3
DA:558,3
DA:561,118
DA:562,118
DA:564,236
DA:565,118
DA:566,118
DA:568,135027
DA:570,0
DA:571,169328
DA:572,175064
DA:582,53310
DA:583,53310
DA:584,53310
DA:585,53310
DA:586,53310
DA:587,53310
DA:588,53310
DA:589,53310
DA:591,53310
DA:592,53310
DA:593,0
DA:595,0
DA:597,0
DA:598,53310
DA:601,53310
DA:602,53310
DA:603,53310
DA:604,53310
DA:605,53310
DA:606,53310
DA:607,53310
DA:608,53310
DA:609,53310
DA:611,53310
DA:615,53310
DA:616,9197
DA:617,9197
DA:618,9197
DA:619,44113
DA:620,0
DA:622,53310
DA:623,53310
DA:629,38
DA:630,38
DA:631,38
DA:635,2
DA:636,2
DA:637,2
DA:638,2
DA:639,2
DA:640,2
DA:641,2
BRF:0
BRH:0
LF:395
LH:383
end_of_record
SF:C:\Users\luigi\College\Spring 2023\Capstone\EricGrandizio\wyn\src\win32\inputs.rs
FN:30,_RNvXs3_NtNtCsflbUU710Hyp_3wyn5win326inputsNtB5_11MouseButtonNtNtCs1RoSZkFyxqL_4core3cmp9PartialEq2eqB9_
FN:30,_RNvXs0_NtNtCsflbUU710Hyp_3wyn5win326inputsNtB5_11MouseButtonNtNtCs1RoSZkFyxqL_4core5clone5Clone5cloneB9_
FN:35,_RNvXs7_NtNtCsflbUU710Hyp_3wyn5win326inputsNtB5_7KeyCodeNtNtCs1RoSZkFyxqL_4core5clone5Clone5cloneB9_
FN:35,_RNvXsa_NtNtCsflbUU710Hyp_3wyn5win326inputsNtB5_7KeyCodeNtNtCs1RoSZkFyxqL_4core3cmp9PartialEq2eqB9_
FN:327,_RNvXse_NtNtCsflbUU710Hyp_3wyn5win326inputsNtB5_16XInputControllerNtNtCs1RoSZkFyxqL_4core5clone5Clone5cloneB9_
FN:35,_RNvXsd_NtNtCsflbUU710Hyp_3wyn5win326inputsNtB5_7KeyCodeNtNtCs1RoSZkFyxqL_4core3fmt5Debug3fmt
FN:448,_RNvMs_NtNtCsflbUU710Hyp_3wyn5win326inputsNtB4_16XInputController9trigger_r
FN:432,_RNvMs_NtNtCsflbUU710Hyp_3wyn5win326inputsNtB4_16XInputController8bumper_r
FN:402,_RNvMs_NtNtCsflbUU710Hyp_3wyn5win326inputsNtB4_16XInputController5start
FN:417,_RNvMs_NtNtCsflbUU710Hyp_3wyn5win326inputsNtB4_16XInputController6dpad_l
FN:377,_RNvMs_NtNtCsflbUU710Hyp_3wyn5win326inputsNtB4_16XInputController1a
FN:387,_RNvMs_NtNtCsflbUU710Hyp_3wyn5win326inputsNtB4_16XInputController1x
FN:460,_RNvMs_NtNtCsflbUU710Hyp_3wyn5win326inputsNtB4_16XInputController7thumb_r
FN:343,_RNvMNtNtCsflbUU710Hyp_3wyn5win326inputsNtB2_16XInputController7collect
FN:472,_RNvMs_NtNtCsflbUU710Hyp_3wyn5win326inputsNtB4_16XInputController7stick_r
FN:422,_RNvMs_NtNtCsflbUU710Hyp_3wyn5win326inputsNtB4_16XInputController6dpad_r
FN:455,_RNvMs_NtNtCsflbUU710Hyp_3wyn5win326inputsNtB4_16XInputController7thumb_l
FN:397,_RNvMs_NtNtCsflbUU710Hyp_3wyn5win326inputsNtB4_16XInputController4back
FN:407,_RNvMs_NtNtCsflbUU710Hyp_3wyn5win326inputsNtB4_16XInputController6dpad_u
FN:382,_RNvMs_NtNtCsflbUU710Hyp_3wyn5win326inputsNtB4_16XInputController1b
FN:392,_RNvMs_NtNtCsflbUU710Hyp_3wyn5win326inputsNtB4_16XInputController1y
FN:479,_RNvMs_NtNtCsflbUU710Hyp_3wyn5win326inputsNtB4_16XInputController6packet
FN:427,_RNvMs_NtNtCsflbUU710Hyp_3wyn5win326inputsNtB4_16XInputController8bumper_l
FN:439,_RNvMs_NtNtCsflbUU710Hyp_3wyn5win326inputsNtB4_16XInputController9trigger_l
FN:412,_RNvMs_NtNtCsflbUU710Hyp_3wyn5win326inputsNtB4_16XInputController6dpad_d
FN:30,_RNvXs6_NtNtCsflbUU710Hyp_3wyn5win326inputsNtB5_11MouseButtonNtNtCs1RoSZkFyxqL_4core3fmt5Debug3fmt
FN:465,_RNvMs_NtNtCsflbUU710Hyp_3wyn5win326inputsNtB4_16XInputController7stick_l
FN:35,_RNvXsa_NtNtCsflbUU710Hyp_3wyn5win326inputsNtB5_7KeyCodeNtNtCs1RoSZkFyxqL_4core3cmp9PartialEq2eqCsbujzjYX0pAI_3rge
FN:30,_RNvXs3_NtNtCsflbUU710Hyp_3wyn5win326inputsNtB5_11MouseButtonNtNtCs1RoSZkFyxqL_4core3cmp9PartialEq2eqCsbujzjYX0pAI_3rge
FN:35,_RNvXs7_NtNtCsi8pFR5hElLZ_3wyn5win326inputsNtB5_7KeyCodeNtNtCs1RoSZkFyxqL_4core5clone5Clone5cloneB9_
FN:392,_RNvMs_NtNtCsi8pFR5hElLZ_3wyn5win326inputsNtB4_16XInputController1y
FN:412,_RNvMs_NtNtCsi8pFR5hElLZ_3wyn5win326inputsNtB4_16XInputController6dpad_d
FN:432,_RNvMs_NtNtCsi8pFR5hElLZ_3wyn5win326inputsNtB4_16XInputController8bumper_r
FN:387,_RNvMs_NtNtCsi8pFR5hElLZ_3wyn5win326inputsNtB4_16XInputController1x
FN:407,_RNvMs_NtNtCsi8pFR5hElLZ_3wyn5win326inputsNtB4_16XInputController6dpad_u
FN:30,_RNvXs0_NtNtCsi8pFR5hElLZ_3wyn5win326inputsNtB5_11MouseButtonNtNtCs1RoSZkFyxqL_4core5clone5Clone5cloneB9_
FN:479,_RNvMs_NtNtCsi8pFR5hElLZ_3wyn5win326inputsNtB4_16XInputController6packet
FN:382,_RNvMs_NtNtCsi8pFR5hElLZ_3wyn5win326inputsNtB4_16XInputController1b
FN:402,_RNvMs_NtNtCsi8pFR5hElLZ_3wyn5win326inputsNtB4_16XInputController5start
FN:472,_RNvMs_NtNtCsi8pFR5hElLZ_3wyn5win326inputsNtB4_16XInputController7stick_r
FN:35,_RNvXsd_NtNtCsi8pFR5hElLZ_3wyn5win326inputsNtB5_7KeyCodeNtNtCs1RoSZkFyxqL_4core3fmt5Debug3fmt
FN:448,_RNvMs_NtNtCsi8pFR5hElLZ_3wyn5win326inputsNtB4_16XInputController9trigger_r
FN:377,_RNvMs_NtNtCsi8pFR5hElLZ_3wyn5win326inputsNtB4_16XInputController1a
FN:397,_RNvMs_NtNtCsi8pFR5hElLZ_3wyn5win326inputsNtB4_16XInputController4back
FN:439,_RNvMs_NtNtCsi8pFR5hElLZ_3wyn5win326inputsNtB4_16XInputController9trigger_l
FN:417,_RNvMs_NtNtCsi8pFR5hElLZ_3wyn5win326inputsNtB4_16XInputController6dpad_l
FN:460,_RNvMs_NtNtCsi8pFR5hElLZ_3wyn5win326inputsNtB4_16XInputController7thumb_r
FN:35,_RNvXsa_NtNtCsi8pFR5hElLZ_3wyn5win326inputsNtB5_7KeyCodeNtNtCs1RoSZkFyxqL_4core3cmp9PartialEq2eqB9_
FN:30,_RNvXs6_NtNtCsi8pFR5hElLZ_3wyn5win326inputsNtB5_11MouseButtonNtNtCs1RoSZkFyxqL_4core3fmt5Debug3fmt
FN:30,_RNvXs3_NtNtCsi8pFR5hElLZ_3wyn5win326inputsNtB5_11MouseButtonNtNtCs1RoSZkFyxqL_4core3cmp9PartialEq2eqB9_
FN:427,_RNvMs_NtNtCsi8pFR5hElLZ_3wyn5win326inputsNtB4_16XInputController8bumper_l
FN:327,_RNvXse_NtNtCsi8pFR5hElLZ_3wyn5win326inputsNtB5_16XInputControllerNtNtCs1RoSZkFyxqL_4core5clone5Clone5cloneB9_
FN:343,_RNvMNtNtCsi8pFR5hElLZ_3wyn5win326inputsNtB2_16XInputController7collect
FN:422,_RNvMs_NtNtCsi8pFR5hElLZ_3wyn5win326inputsNtB4_16XInputController6dpad_r
FN:455,_RNvMs_NtNtCsi8pFR5hElLZ_3wyn5win326inputsNtB4_16XInputController7thumb_l
FN:465,_RNvMs_NtNtCsi8pFR5hElLZ_3wyn5win326inputsNtB4_16XInputController7stick_l
FNDA:0,_RNvXs3_NtNtCsflbUU710Hyp_3wyn5win326inputsNtB5_11MouseButtonNtNtCs1RoSZkFyxqL_4core3cmp9PartialEq2eqB9_
FNDA:0,_RNvXs0_NtNtCsflbUU710Hyp_3wyn5win326inputsNtB5_11MouseButtonNtNtCs1RoSZkFyxqL_4core5clone5Clone5cloneB9_
FNDA:0,_RNvXs7_NtNtCsflbUU710Hyp_3wyn5win326inputsNtB5_7KeyCodeNtNtCs1RoSZkFyxqL_4core5clone5Clone5cloneB9_
FNDA:0,_RNvXsa_NtNtCsflbUU710Hyp_3wyn5win326inputsNtB5_7KeyCodeNtNtCs1RoSZkFyxqL_4core3cmp9PartialEq2eqB9_
FNDA:0,_RNvXse_NtNtCsflbUU710Hyp_3wyn5win326inputsNtB5_16XInputControllerNtNtCs1RoSZkFyxqL_4core5clone5Clone5cloneB9_
FNDA:133,_RNvXsd_NtNtCsflbUU710Hyp_3wyn5win326inputsNtB5_7KeyCodeNtNtCs1RoSZkFyxqL_4core3fmt5Debug3fmt
FNDA:71,_RNvMs_NtNtCsflbUU710Hyp_3wyn5win326inputsNtB4_16XInputController9trigger_r
FNDA:71,_RNvMs_NtNtCsflbUU710Hyp_3wyn5win326inputsNtB4_16XInputController8bumper_r
FNDA:71,_RNvMs_NtNtCsflbUU710Hyp_3wyn5win326inputsNtB4_16XInputController5start
FNDA:71,_RNvMs_NtNtCsflbUU710Hyp_3wyn5win326inputsNtB4_16XInputController6dpad_l
FNDA:71,_RNvMs_NtNtCsflbUU710Hyp_3wyn5win326inputsNtB4_16XInputController1a
FNDA:71,_RNvMs_NtNtCsflbUU710Hyp_3wyn5win326inputsNtB4_16XInputController1x
FNDA:71,_RNvMs_NtNtCsflbUU710Hyp_3wyn5win326inputsNtB4_16XInputController7thumb_r
FNDA:6915,_RNvMNtNtCsflbUU710Hyp_3wyn5win326inputsNtB2_16XInputController7collect
FNDA:71,_RNvMs_NtNtCsflbUU710Hyp_3wyn5win326inputsNtB4_16XInputController7stick_r
FNDA:71,_RNvMs_NtNtCsflbUU710Hyp_3wyn5win326inputsNtB4_16XInputController6dpad_r
FNDA:71,_RNvMs_NtNtCsflbUU710Hyp_3wyn5win326inputsNtB4_16XInputController7thumb_l
FNDA:71,_RNvMs_NtNtCsflbUU710Hyp_3wyn5win326inputsNtB4_16XInputController4back
FNDA:71,_RNvMs_NtNtCsflbUU710Hyp_3wyn5win326inputsNtB4_16XInputController6dpad_u
FNDA:71,_RNvMs_NtNtCsflbUU710Hyp_3wyn5win326inputsNtB4_16XInputController1b
FNDA:71,_RNvMs_NtNtCsflbUU710Hyp_3wyn5win326inputsNtB4_16XInputController1y
FNDA:71,_RNvMs_NtNtCsflbUU710Hyp_3wyn5win326inputsNtB4_16XInputController6packet
FNDA:71,_RNvMs_NtNtCsflbUU710Hyp_3wyn5win326inputsNtB4_16XInputController8bumper_l
FNDA:71,_RNvMs_NtNtCsflbUU710Hyp_3wyn5win326inputsNtB4_16XInputController9trigger_l
FNDA:71,_RNvMs_NtNtCsflbUU710Hyp_3wyn5win326inputsNtB4_16XInputController6dpad_d
FNDA:56,_RNvXs6_NtNtCsflbUU710Hyp_3wyn5win326inputsNtB5_11MouseButtonNtNtCs1RoSZkFyxqL_4core3fmt5Debug3fmt
FNDA:71,_RNvMs_NtNtCsflbUU710Hyp_3wyn5win326inputsNtB4_16XInputController7stick_l
FNDA:350,_RNvXsa_NtNtCsflbUU710Hyp_3wyn5win326inputsNtB5_7KeyCodeNtNtCs1RoSZkFyxqL_4core3cmp9PartialEq2eqCsbujzjYX0pAI_3rge
FNDA:0,_RNvXs3_NtNtCsflbUU710Hyp_3wyn5win326inputsNtB5_11MouseButtonNtNtCs1RoSZkFyxqL_4core3cmp9PartialEq2eqCsbujzjYX0pAI_3rge
FNDA:0,_RNvXs7_NtNtCsi8pFR5hElLZ_3wyn5win326inputsNtB5_7KeyCodeNtNtCs1RoSZkFyxqL_4core5clone5Clone5cloneB9_
FNDA:0,_RNvMs_NtNtCsi8pFR5hElLZ_3wyn5win326inputsNtB4_16XInputController1y
FNDA:0,_RNvMs_NtNtCsi8pFR5hElLZ_3wyn5win326inputsNtB4_16XInputController6dpad_d
FNDA:0,_RNvMs_NtNtCsi8pFR5hElLZ_3wyn5win326inputsNtB4_16XInputController8bumper_r
FNDA:0,_RNvMs_NtNtCsi8pFR5hElLZ_3wyn5win326inputsNtB4_16XInputController1x
FNDA:0,_RNvMs_NtNtCsi8pFR5hElLZ_3wyn5win326inputsNtB4_16XInputController6dpad_u
FNDA:0,_RNvXs0_NtNtCsi8pFR5hElLZ_3wyn5win326inputsNtB5_11MouseButtonNtNtCs1RoSZkFyxqL_4core5clone5Clone5cloneB9_
FNDA:0,_RNvMs_NtNtCsi8pFR5hElLZ_3wyn5win326inputsNtB4_16XInputController6packet
FNDA:0,_RNvMs_NtNtCsi8pFR5hElLZ_3wyn5win326inputsNtB4_16XInputController1b
FNDA:0,_RNvMs_NtNtCsi8pFR5hElLZ_3wyn5win326inputsNtB4_16XInputController5start
FNDA:0,_RNvMs_NtNtCsi8pFR5hElLZ_3wyn5win326inputsNtB4_16XInputController7stick_r
FNDA:0,_RNvXsd_NtNtCsi8pFR5hElLZ_3wyn5win326inputsNtB5_7KeyCodeNtNtCs1RoSZkFyxqL_4core3fmt5Debug3fmt
FNDA:0,_RNvMs_NtNtCsi8pFR5hElLZ_3wyn5win326inputsNtB4_16XInputController9trigger_r
FNDA:0,_RNvMs_NtNtCsi8pFR5hElLZ_3wyn5win326inputsNtB4_16XInputController1a
FNDA:0,_RNvMs_NtNtCsi8pFR5hElLZ_3wyn5win326inputsNtB4_16XInputController4back
FNDA:0,_RNvMs_NtNtCsi8pFR5hElLZ_3wyn5win326inputsNtB4_16XInputController9trigger_l
FNDA:0,_RNvMs_NtNtCsi8pFR5hElLZ_3wyn5win326inputsNtB4_16XInputController6dpad_l
FNDA:0,_RNvMs_NtNtCsi8pFR5hElLZ_3wyn5win326inputsNtB4_16XInputController7thumb_r
FNDA:0,_RNvXsa_NtNtCsi8pFR5hElLZ_3wyn5win326inputsNtB5_7KeyCodeNtNtCs1RoSZkFyxqL_4core3cmp9PartialEq2eqB9_
FNDA:0,_RNvXs6_NtNtCsi8pFR5hElLZ_3wyn5win326inputsNtB5_11MouseButtonNtNtCs1RoSZkFyxqL_4core3fmt5Debug3fmt
FNDA:0,_RNvXs3_NtNtCsi8pFR5hElLZ_3wyn5win326inputsNtB5_11MouseButtonNtNtCs1RoSZkFyxqL_4core3cmp9PartialEq2eqB9_
FNDA:0,_RNvMs_NtNtCsi8pFR5hElLZ_3wyn5win326inputsNtB4_16XInputController8bumper_l
FNDA:0,_RNvXse_NtNtCsi8pFR5hElLZ_3wyn5win326inputsNtB5_16XInputControllerNtNtCs1RoSZkFyxqL_4core5clone5Clone5cloneB9_
FNDA:0,_RNvMNtNtCsi8pFR5hElLZ_3wyn5win326inputsNtB2_16XInputController7collect
FNDA:0,_RNvMs_NtNtCsi8pFR5hElLZ_3wyn5win326inputsNtB4_16XInputController6dpad_r
FNDA:0,_RNvMs_NtNtCsi8pFR5hElLZ_3wyn5win326inputsNtB4_16XInputController7thumb_l
FNDA:0,_RNvMs_NtNtCsi8pFR5hElLZ_3wyn5win326inputsNtB4_16XInputController7stick_l
FNF:27
FNH:23
DA:30,56
DA:35,350
DA:327,0
DA:343,6915
DA:344,6915
DA:346,27660
DA:348,27660
DA:349,27660
DA:350,27660
DA:351,27660
DA:352,27660
DA:355,6905
DA:357,20755
DA:358,20755
DA:359,20755
DA:360,20755
DA:361,20755
DA:363,0
DA:369,6915
DA:370,6915
DA:377,71
DA:378,71
DA:379,71
DA:382,71
DA:383,71
DA:384,71
DA:387,71
DA:388,71
DA:389,71
DA:392,71
DA:393,71
DA:394,71
DA:397,71
DA:398,71
DA:399,71
DA:402,71
DA:403,71
DA:404,71
DA:407,71
DA:408,71
DA:409,71
DA:412,71
DA:413,71
DA:414,71
DA:417,71
DA:418,71
DA:419,71
DA:422,71
DA:423,71
DA:424,71
DA:427,71
DA:428,71
DA:429,71
DA:432,71
DA:433,71
DA:434,71
DA:439,71
DA:440,71
DA:441,71
DA:442,71
DA:443,71
DA:448,71
DA:449,71
DA:450,71
DA:451,71
DA:452,71
DA:455,71
DA:456,71
DA:457,71
DA:460,71
DA:461,71
DA:462,71
DA:465,71
DA:466,71
DA:467,71
DA:468,71
DA:469,71
DA:472,71
DA:473,71
DA:474,71
DA:475,71
DA:476,71
DA:479,71
DA:480,71
DA:481,71
BRF:0
BRH:0
LF:89
LH:84
end_of_record
SF:C:\Users\luigi\College\Spring 2023\Capstone\EricGrandizio\wyn\src\win32\screen.rs
FN:28,_RNvXs3_NtNtCsflbUU710Hyp_3wyn5win326screenNtB5_10ScreenInfoNtNtCs1RoSZkFyxqL_4core3cmp9PartialEq2eqB9_
FN:28,_RNvXs4_NtNtCsflbUU710Hyp_3wyn5win326screenNtB5_10ScreenInfoNtNtCs1RoSZkFyxqL_4core7default7Default7defaultB9_
FN:28,_RNvXs1_NtNtCsflbUU710Hyp_3wyn5win326screenNtB5_10ScreenInfoNtNtCs1RoSZkFyxqL_4core5clone5Clone5cloneB9_
FN:49,_RNvMNtNtCsflbUU710Hyp_3wyn5win326screenNtB2_6Screen4name
FN:112,_RNvMs0_NtNtCsflbUU710Hyp_3wyn5win326screenNtB5_6Screen21internal_monitor_proc
FN:60,_RNvMNtNtCsflbUU710Hyp_3wyn5win326screenNtB2_6Screen4info
FN:41,_RNvMNtNtCsflbUU710Hyp_3wyn5win326screenNtB2_6Screen4rect
FN:77,_RNvMs_NtNtCsflbUU710Hyp_3wyn5win326screenNtB4_6Screen7primary
FN:126,_RNvMs0_NtNtCsflbUU710Hyp_3wyn5win326screenNtB5_6Screen21internal_monitor_info
FN:28,_RNvXs5_NtNtCsflbUU710Hyp_3wyn5win326screenNtB5_10ScreenInfoNtNtCs1RoSZkFyxqL_4core3fmt5Debug3fmt
FN:72,_RNvMs_NtNtCsflbUU710Hyp_3wyn5win326screenNtB4_6Screen3new
FN:86,_RNvMs_NtNtCsflbUU710Hyp_3wyn5win326screenNtB4_6Screen7collect
FN:49,_RNvMNtNtCsi8pFR5hElLZ_3wyn5win326screenNtB2_6Screen4name
FN:28,_RNvXs4_NtNtCsi8pFR5hElLZ_3wyn5win326screenNtB5_10ScreenInfoNtNtCs1RoSZkFyxqL_4core7default7Default7defaultB9_
FN:126,_RNvMs0_NtNtCsi8pFR5hElLZ_3wyn5win326screenNtB5_6Screen21internal_monitor_info
FN:41,_RNvMNtNtCsi8pFR5hElLZ_3wyn5win326screenNtB2_6Screen4rect
FN:28,_RNvXs1_NtNtCsi8pFR5hElLZ_3wyn5win326screenNtB5_10ScreenInfoNtNtCs1RoSZkFyxqL_4core5clone5Clone5cloneB9_
FN:112,_RNvMs0_NtNtCsi8pFR5hElLZ_3wyn5win326screenNtB5_6Screen21internal_monitor_proc
FN:28,_RNvXs3_NtNtCsi8pFR5hElLZ_3wyn5win326screenNtB5_10ScreenInfoNtNtCs1RoSZkFyxqL_4core3cmp9PartialEq2eqB9_
FN:60,_RNvMNtNtCsi8pFR5hElLZ_3wyn5win326screenNtB2_6Screen4info
FN:86,_RNvMs_NtNtCsi8pFR5hElLZ_3wyn5win326screenNtB4_6Screen7collect
FN:77,_RNvMs_NtNtCsi8pFR5hElLZ_3wyn5win326screenNtB4_6Screen7primary
FN:72,_RNvMs_NtNtCsi8pFR5hElLZ_3wyn5win326screenNtB4_6Screen3new
FN:28,_RNvXs5_NtNtCsi8pFR5hElLZ_3wyn5win326screenNtB5_10ScreenInfoNtNtCs1RoSZkFyxqL_4core3fmt5Debug3fmt
FNDA:0,_RNvXs3_NtNtCsflbUU710Hyp_3wyn5win326screenNtB5_10ScreenInfoNtNtCs1RoSZkFyxqL_4core3cmp9PartialEq2eqB9_
FNDA:0,_RNvXs4_NtNtCsflbUU710Hyp_3wyn5win326screenNtB5_10ScreenInfoNtNtCs1RoSZkFyxqL_4core7default7Default7defaultB9_
FNDA:0,_RNvXs1_NtNtCsflbUU710Hyp_3wyn5win326screenNtB5_10ScreenInfoNtNtCs1RoSZkFyxqL_4core5clone5Clone5cloneB9_
FNDA:6837,_RNvMNtNtCsflbUU710Hyp_3wyn5win326screenNtB2_6Screen4name
FNDA:6835,_RNvMs0_NtNtCsflbUU710Hyp_3wyn5win326screenNtB5_6Screen21internal_monitor_proc
FNDA:6834,_RNvMNtNtCsflbUU710Hyp_3wyn5win326screenNtB2_6Screen4info
FNDA:6842,_RNvMNtNtCsflbUU710Hyp_3wyn5win326screenNtB2_6Screen4rect
FNDA:7,_RNvMs_NtNtCsflbUU710Hyp_3wyn5win326screenNtB4_6Screen7primary
FNDA:13679,_RNvMs0_NtNtCsflbUU710Hyp_3wyn5win326screenNtB5_6Screen21internal_monitor_info
FNDA:0,_RNvXs5_NtNtCsflbUU710Hyp_3wyn5win326screenNtB5_10ScreenInfoNtNtCs1RoSZkFyxqL_4core3fmt5Debug3fmt
FNDA:6843,_RNvMs_NtNtCsflbUU710Hyp_3wyn5win326screenNtB4_6Screen3new
FNDA:6835,_RNvMs_NtNtCsflbUU710Hyp_3wyn5win326screenNtB4_6Screen7collect
FNDA:0,_RNvMNtNtCsi8pFR5hElLZ_3wyn5win326screenNtB2_6Screen4name
FNDA:0,_RNvXs4_NtNtCsi8pFR5hElLZ_3wyn5win326screenNtB5_10ScreenInfoNtNtCs1RoSZkFyxqL_4core7default7Default7defaultB9_
FNDA:0,_RNvMs0_NtNtCsi8pFR5hElLZ_3wyn5win326screenNtB5_6Screen21internal_monitor_info
FNDA:0,_RNvMNtNtCsi8pFR5hElLZ_3wyn5win326screenNtB2_6Screen4rect
FNDA:0,_RNvXs1_NtNtCsi8pFR5hElLZ_3wyn5win326screenNtB5_10ScreenInfoNtNtCs1RoSZkFyxqL_4core5clone5Clone5cloneB9_
FNDA:0,_RNvMs0_NtNtCsi8pFR5hElLZ_3wyn5win326screenNtB5_6Screen21internal_monitor_proc
FNDA:0,_RNvXs3_NtNtCsi8pFR5hElLZ_3wyn5win326screenNtB5_10ScreenInfoNtNtCs1RoSZkFyxqL_4core3cmp9PartialEq2eqB9_
FNDA:0,_RNvMNtNtCsi8pFR5hElLZ_3wyn5win326screenNtB2_6Screen4info
FNDA:0,_RNvMs_NtNtCsi8pFR5hElLZ_3wyn5win326screenNtB4_6Screen7collect
FNDA:0,_RNvMs_NtNtCsi8pFR5hElLZ_3wyn5win326screenNtB4_6Screen7primary
FNDA:0,_RNvMs_NtNtCsi8pFR5hElLZ_3wyn5win326screenNtB4_6Screen3new
FNDA:0,_RNvXs5_NtNtCsi8pFR5hElLZ_3wyn5win326screenNtB5_10ScreenInfoNtNtCs1RoSZkFyxqL_4core3fmt5Debug3fmt
FNF:12
FNH:8
DA:28,0
DA:41,6842
DA:42,6842
DA:43,6842
DA:44,6842
DA:45,6842
DA:46,6842
DA:49,6837
DA:50,6837
DA:51,6837
DA:52,6837
DA:53,6837
DA:54,6837
DA:55,6837
DA:56,6837
DA:57,6837
DA:60,6834
DA:61,6834
DA:62,6834
DA:63,6834
DA:64,6834
DA:65,6834
DA:72,6843
DA:73,6843
DA:74,6843
DA:77,7
DA:78,7
DA:79,7
DA:80,7
DA:81,7
DA:82,7
DA:83,7
DA:86,6835
DA:87,6835
DA:88,6835
DA:89,6835
DA:90,6835
DA:91,6835
DA:92,6835
DA:93,6835
DA:94,6835
DA:95,6835
DA:96,6835
DA:112,6835
DA:113,6835
DA:114,6835
DA:115,6835
DA:118,6835
DA:121,0
DA:123,6835
DA:126,13679
DA:127,13679
DA:128,13679
DA:129,13679
DA:130,13679
DA:131,13679
DA:132,13679
DA:133,13679
DA:134,13679
DA:135,0
DA:137,13679
DA:139,13679
BRF:0
BRH:0
LF:65
LH:59
end_of_record
SF:C:\Users\luigi\College\Spring 2023\Capstone\EricGrandizio\wyn\src\win32\types.rs
FN:73,_RNvXs2_NtNtCsflbUU710Hyp_3wyn5win325typesNtNtNtB9_6common5types4RectINtNtCs1RoSZkFyxqL_4core7convert4FromNtNtNtNtCs3P1CXfHnmvP_11windows_sys7Windows5Win3210Foundation4RECTE4from
FN:37,_RNvXNtNtCsflbUU710Hyp_3wyn5win325typesNtNtNtB6_6common5types5PointINtNtCs1RoSZkFyxqL_4core7convert4FromNtNtNtNtCs3P1CXfHnmvP_11windows_sys7Windows5Win3210Foundation5POINTE4from
FN:55,_RNvXs0_NtNtCsflbUU710Hyp_3wyn5win325typesNtNtNtB9_6common5types4SizeINtNtCs1RoSZkFyxqL_4core7convert4FromNtNtNtNtCs3P1CXfHnmvP_11windows_sys7Windows5Win3210Foundation4SIZEE4from
FN:63,_RNvXs1_NtNtCsflbUU710Hyp_3wyn5win325typesNtNtNtNtCs3P1CXfHnmvP_11windows_sys7Windows5Win3210Foundation4SIZEINtNtCs1RoSZkFyxqL_4core7convert4FromNtNtNtB9_6common5types4SizeE4from
FN:45,_RNvXs_NtNtCsflbUU710Hyp_3wyn5win325typesNtNtNtNtCs3P1CXfHnmvP_11windows_sys7Windows5Win3210Foundation5POINTINtNtCs1RoSZkFyxqL_4core7convert4FromNtNtNtB8_6common5types5PointE4from
FN:85,_RNvXs3_NtNtCsflbUU710Hyp_3wyn5win325typesNtNtNtNtCs3P1CXfHnmvP_11windows_sys7Windows5Win3210Foundation4RECTINtNtCs1RoSZkFyxqL_4core7convert4FromNtNtNtB9_6common5types4RectE4from
FN:63,_RNvXs1_NtNtCsi8pFR5hElLZ_3wyn5win325typesNtNtNtNtCs3P1CXfHnmvP_11windows_sys7Windows5Win3210Foundation4SIZEINtNtCs1RoSZkFyxqL_4core7convert4FromNtNtNtB9_6common5types4SizeE4from
FN:45,_RNvXs_NtNtCsi8pFR5hElLZ_3wyn5win325typesNtNtNtNtCs3P1CXfHnmvP_11windows_sys7Windows5Win3210Foundation5POINTINtNtCs1RoSZkFyxqL_4core7convert4FromNtNtNtB8_6common5types5PointE4from
FN:85,_RNvXs3_NtNtCsi8pFR5hElLZ_3wyn5win325typesNtNtNtNtCs3P1CXfHnmvP_11windows_sys7Windows5Win3210Foundation4RECTINtNtCs1RoSZkFyxqL_4core7convert4FromNtNtNtB9_6common5types4RectE4from
FN:55,_RNvXs0_NtNtCsi8pFR5hElLZ_3wyn5win325typesNtNtNtB9_6common5types4SizeINtNtCs1RoSZkFyxqL_4core7convert4FromNtNtNtNtCs3P1CXfHnmvP_11windows_sys7Windows5Win3210Foundation4SIZEE4from
FN:73,_RNvXs2_NtNtCsi8pFR5hElLZ_3wyn5win325typesNtNtNtB9_6common5types4RectINtNtCs1RoSZkFyxqL_4core7convert4FromNtNtNtNtCs3P1CXfHnmvP_11windows_sys7Windows5Win3210Foundation4RECTE4from
FN:37,_RNvXNtNtCsi8pFR5hElLZ_3wyn5win325typesNtNtNtB6_6common5types5PointINtNtCs1RoSZkFyxqL_4core7convert4FromNtNtNtNtCs3P1CXfHnmvP_11windows_sys7Windows5Win3210Foundation5POINTE4from
FNDA:26253,_RNvXs2_NtNtCsflbUU710Hyp_3wyn5win325typesNtNtNtB9_6common5types4RectINtNtCs1RoSZkFyxqL_4core7convert4FromNtNtNtNtCs3P1CXfHnmvP_11windows_sys7Windows5Win3210Foundation4RECTE4from
FNDA:1,_RNvXNtNtCsflbUU710Hyp_3wyn5win325typesNtNtNtB6_6common5types5PointINtNtCs1RoSZkFyxqL_4core7convert4FromNtNtNtNtCs3P1CXfHnmvP_11windows_sys7Windows5Win3210Foundation5POINTE4from
FNDA:1,_RNvXs0_NtNtCsflbUU710Hyp_3wyn5win325typesNtNtNtB9_6common5types4SizeINtNtCs1RoSZkFyxqL_4core7convert4FromNtNtNtNtCs3P1CXfHnmvP_11windows_sys7Windows5Win3210Foundation4SIZEE4from
FNDA:1,_RNvXs1_NtNtCsflbUU710Hyp_3wyn5win325typesNtNtNtNtCs3P1CXfHnmvP_11windows_sys7Windows5Win3210Foundation4SIZEINtNtCs1RoSZkFyxqL_4core7convert4FromNtNtNtB9_6common5types4SizeE4from
FNDA:1,_RNvXs_NtNtCsflbUU710Hyp_3wyn5win325typesNtNtNtNtCs3P1CXfHnmvP_11windows_sys7Windows5Win3210Foundation5POINTINtNtCs1RoSZkFyxqL_4core7convert4FromNtNtNtB8_6common5types5PointE4from
FNDA:15,_RNvXs3_NtNtCsflbUU710Hyp_3wyn5win325typesNtNtNtNtCs3P1CXfHnmvP_11windows_sys7Windows5Win3210Foundation4RECTINtNtCs1RoSZkFyxqL_4core7convert4FromNtNtNtB9_6common5types4RectE4from
FNDA:0,_RNvXs1_NtNtCsi8pFR5hElLZ_3wyn5win325typesNtNtNtNtCs3P1CXfHnmvP_11windows_sys7Windows5Win3210Foundation4SIZEINtNtCs1RoSZkFyxqL_4core7convert4FromNtNtNtB9_6common5types4SizeE4from
FNDA:0,_RNvXs_NtNtCsi8pFR5hElLZ_3wyn5win325typesNtNtNtNtCs3P1CXfHnmvP_11windows_sys7Windows5Win3210Foundation5POINTINtNtCs1RoSZkFyxqL_4core7convert4FromNtNtNtB8_6common5types5PointE4from
FNDA:0,_RNvXs3_NtNtCsi8pFR5hElLZ_3wyn5win325typesNtNtNtNtCs3P1CXfHnmvP_11windows_sys7Windows5Win3210Foundation4RECTINtNtCs1RoSZkFyxqL_4core7convert4FromNtNtNtB9_6common5types4RectE4from
FNDA:0,_RNvXs0_NtNtCsi8pFR5hElLZ_3wyn5win325typesNtNtNtB9_6common5types4SizeINtNtCs1RoSZkFyxqL_4core7convert4FromNtNtNtNtCs3P1CXfHnmvP_11windows_sys7Windows5Win3210Foundation4SIZEE4from
FNDA:0,_RNvXs2_NtNtCsi8pFR5hElLZ_3wyn5win325typesNtNtNtB9_6common5types4RectINtNtCs1RoSZkFyxqL_4core7convert4FromNtNtNtNtCs3P1CXfHnmvP_11windows_sys7Windows5Win3210Foundation4RECTE4from
FNDA:0,_RNvXNtNtCsi8pFR5hElLZ_3wyn5win325typesNtNtNtB6_6common5types5PointINtNtCs1RoSZkFyxqL_4core7convert4FromNtNtNtNtCs3P1CXfHnmvP_11windows_sys7Windows5Win3210Foundation5POINTE4from
FNF:6
FNH:6
DA:37,1
DA:38,1
DA:39,1
DA:40,1
DA:41,1
DA:45,1
DA:46,1
DA:47,1
DA:48,1
DA:49,1
DA:55,1
DA:56,1
DA:57,1
DA:58,1
DA:59,1
DA:63,1
DA:64,1
DA:65,1
DA:66,1
DA:67,1
DA:73,26253
DA:74,26253
DA:75,26253
DA:76,26253
DA:77,26253
DA:78,26253
DA:79,26253
DA:80,26253
DA:81,26253
DA:85,15
DA:86,15
DA:87,15
DA:88,15
DA:89,15
DA:90,15
DA:91,15
DA:92,15
DA:93,15
DA:94,15
DA:95,15
DA:96,15
BRF:0
BRH:0
LF:41
LH:41
end_of_record
SF:C:\Users\luigi\College\Spring 2023\Capstone\EricGrandizio\wyn\src\win32\window.rs
FN:236,_RNvMs2_NtNtCsflbUU710Hyp_3wyn5win326windowNtB5_6Window13is_fullscreen
FN:413,_RNvXse_NtNtCsflbUU710Hyp_3wyn5win326windowNtB5_11WindowStyleNtNtCs1RoSZkFyxqL_4core3fmt5Debug3fmt
FN:328,_RNvMs4_NtNtCsflbUU710Hyp_3wyn5win326windowNtB5_6Window12content_rect
FN:176,_RNvMs1_NtNtCsflbUU710Hyp_3wyn5win326windowNtB5_6Window4hide
FN:366,_RNvMs4_NtNtCsflbUU710Hyp_3wyn5win326windowNtB5_6Window19internal_reposition
FN:486,_RNvMs5_NtNtCsflbUU710Hyp_3wyn5win326windowNtB5_6Window18internal_get_style
FN:229,_RNvMs2_NtNtCsflbUU710Hyp_3wyn5win326windowNtB5_6Window10fullscreen
FN:441,_RNvMs5_NtNtCsflbUU710Hyp_3wyn5win326windowNtB5_6Window9set_style
FN:205,_RNvMs2_NtNtCsflbUU710Hyp_3wyn5win326windowNtB5_6Window12is_minimized
FN:413,_RNvXsb_NtNtCsflbUU710Hyp_3wyn5win326windowNtB5_11WindowStyleNtNtCs1RoSZkFyxqL_4core3cmp9PartialEq2eqB9_
FN:125,_RNvMs0_NtNtCsflbUU710Hyp_3wyn5win326windowNtB5_6Window14internal_close
FN:45,_RNvXs_NtNtCsflbUU710Hyp_3wyn5win326windowNtB4_6WindowINtNtCs1RoSZkFyxqL_4core7convert7TryFromiE8try_from
FN:352,_RNvMs4_NtNtCsflbUU710Hyp_3wyn5win326windowNtB5_6Window11border_rect
FN:319,_RNvMs4_NtNtCsflbUU710Hyp_3wyn5win326windowNtB5_6Window17reposition_border
FN:153,_RNvMs1_NtNtCsflbUU710Hyp_3wyn5win326windowNtB5_6Window10is_focused
FN:168,_RNvMs1_NtNtCsflbUU710Hyp_3wyn5win326windowNtB5_6Window10is_visible
FN:220,_RNvMs2_NtNtCsflbUU710Hyp_3wyn5win326windowNtB5_6Window12is_maximized
FN:198,_RNvMs2_NtNtCsflbUU710Hyp_3wyn5win326windowNtB5_6Window8minimize
FN:183,_RNvMs1_NtNtCsflbUU710Hyp_3wyn5win326windowNtB5_6Window9is_hidden
FN:213,_RNvMs2_NtNtCsflbUU710Hyp_3wyn5win326windowNtB5_6Window8maximize
FN:265,_RNvMs3_NtNtCsflbUU710Hyp_3wyn5win326windowNtB5_6Window6rename
FN:78,_RNvMs0_NtNtCsflbUU710Hyp_3wyn5win326windowNtB5_6Window13internal_open
FN:246,_RNvMs2_NtNtCsflbUU710Hyp_3wyn5win326windowNtB5_6Window7restore
FN:60,_RNvMs0_NtNtCsflbUU710Hyp_3wyn5win326windowNtB5_6Window4open
FN:70,_RNvMs0_NtNtCsflbUU710Hyp_3wyn5win326windowNtB5_6Window7is_open
FN:141,_RNvMs1_NtNtCsflbUU710Hyp_3wyn5win326windowNtB5_6Window5focus
FN:161,_RNvMs1_NtNtCsflbUU710Hyp_3wyn5win326windowNtB5_6Window4show
FN:468,_RNvMs5_NtNtCsflbUU710Hyp_3wyn5win326windowNtB5_6Window5style
FN:253,_RNvMs2_NtNtCsflbUU710Hyp_3wyn5win326windowNtB5_6Window9is_normal
FN:500,_RNvMs5_NtNtCsflbUU710Hyp_3wyn5win326windowNtB5_6Window18internal_set_style
FN:528,_RNvMs6_NtNtCsflbUU710Hyp_3wyn5win326windowNtB5_6Window6screen
FN:37,_RNvMNtNtCsflbUU710Hyp_3wyn5win326windowNtB2_6Window6handle
FN:542,_RNvMs7_NtNtCsflbUU710Hyp_3wyn5win326windowNtB5_6Window14request_redraw
FN:312,_RNvMs4_NtNtCsflbUU710Hyp_3wyn5win326windowNtB5_6Window18reposition_content
FN:113,_RNvMs0_NtNtCsflbUU710Hyp_3wyn5win326windowNtB5_6Window5close
FN:281,_RNvMs3_NtNtCsflbUU710Hyp_3wyn5win326windowNtB5_6Window4name
FN:413,_RNvXs8_NtNtCsflbUU710Hyp_3wyn5win326windowNtB5_11WindowStyleNtNtCs1RoSZkFyxqL_4core5clone5Clone5cloneB9_
FN:404,_RNCNvMs4_NtNtCsflbUU710Hyp_3wyn5win326windowNtB7_6Window19internal_reposition0Bb_
FN:62,_RNCNvMs0_NtNtCsflbUU710Hyp_3wyn5win326windowNtB7_6Window4open0Bb_
FN:115,_RNCNvMs0_NtNtCsflbUU710Hyp_3wyn5win326windowNtB7_6Window5close0Bb_
FN:128,_RNCNvMs0_NtNtCsflbUU710Hyp_3wyn5win326windowNtB7_6Window14internal_close0Bb_
FN:277,_RNCNvMs3_NtNtCsflbUU710Hyp_3wyn5win326windowNtB7_6Window6rename0Bb_
FN:545,_RNCNvMs7_NtNtCsflbUU710Hyp_3wyn5win326windowNtB7_6Window14request_redraw0Bb_
FN:413,_RNvXsb_NtNtCsflbUU710Hyp_3wyn5win326windowNtB5_11WindowStyleNtNtCs1RoSZkFyxqL_4core3cmp9PartialEq2eqCs4fdV5CZUklp_12style_change
FN:413,_RNvXse_NtNtCsi8pFR5hElLZ_3wyn5win326windowNtB5_11WindowStyleNtNtCs1RoSZkFyxqL_4core3fmt5Debug3fmt
FN:176,_RNvMs1_NtNtCsi8pFR5hElLZ_3wyn5win326windowNtB5_6Window4hide
FN:229,_RNvMs2_NtNtCsi8pFR5hElLZ_3wyn5win326windowNtB5_6Window10fullscreen
FN:205,_RNvMs2_NtNtCsi8pFR5hElLZ_3wyn5win326windowNtB5_6Window12is_minimized
FN:413,_RNvXsb_NtNtCsi8pFR5hElLZ_3wyn5win326windowNtB5_11WindowStyleNtNtCs1RoSZkFyxqL_4core3cmp9PartialEq2eqB9_
FN:404,_RNCNvMs4_NtNtCsi8pFR5hElLZ_3wyn5win326windowNtB7_6Window19internal_reposition0Bb_
FN:352,_RNvMs4_NtNtCsi8pFR5hElLZ_3wyn5win326windowNtB5_6Window11border_rect
FN:168,_RNvMs1_NtNtCsi8pFR5hElLZ_3wyn5win326windowNtB5_6Window10is_visible
FN:220,_RNvMs2_NtNtCsi8pFR5hElLZ_3wyn5win326windowNtB5_6Window12is_maximized
FN:198,_RNvMs2_NtNtCsi8pFR5hElLZ_3wyn5win326windowNtB5_6Window8minimize
FN:78,_RNvMs0_NtNtCsi8pFR5hElLZ_3wyn5win326windowNtB5_6Window13internal_open
FN:277,_RNCNvMs3_NtNtCsi8pFR5hElLZ_3wyn5win326windowNtB7_6Window6rename0Bb_
FN:161,_RNvMs1_NtNtCsi8pFR5hElLZ_3wyn5win326windowNtB5_6Window4show
FN:500,_RNvMs5_NtNtCsi8pFR5hElLZ_3wyn5win326windowNtB5_6Window18internal_set_style
FN:542,_RNvMs7_NtNtCsi8pFR5hElLZ_3wyn5win326windowNtB5_6Window14request_redraw
FN:281,_RNvMs3_NtNtCsi8pFR5hElLZ_3wyn5win326windowNtB5_6Window4name
FN:45,_RNvXs_NtNtCsi8pFR5hElLZ_3wyn5win326windowNtB4_6WindowINtNtCs1RoSZkFyxqL_4core7convert7TryFromiE8try_from
FN:62,_RNCNvMs0_NtNtCsi8pFR5hElLZ_3wyn5win326windowNtB7_6Window4open0Bb_
FN:153,_RNvMs1_NtNtCsi8pFR5hElLZ_3wyn5win326windowNtB5_6Window10is_focused
FN:70,_RNvMs0_NtNtCsi8pFR5hElLZ_3wyn5win326windowNtB5_6Window7is_open
FN:246,_RNvMs2_NtNtCsi8pFR5hElLZ_3wyn5win326windowNtB5_6Window7restore
FN:141,_RNvMs1_NtNtCsi8pFR5hElLZ_3wyn5win326windowNtB5_6Window5focus
FN:468,_RNvMs5_NtNtCsi8pFR5hElLZ_3wyn5win326windowNtB5_6Window5style
FN:528,_RNvMs6_NtNtCsi8pFR5hElLZ_3wyn5win326windowNtB5_6Window6screen
FN:113,_RNvMs0_NtNtCsi8pFR5hElLZ_3wyn5win326windowNtB5_6Window5close
FN:312,_RNvMs4_NtNtCsi8pFR5hElLZ_3wyn5win326windowNtB5_6Window18reposition_content
FN:545,_RNCNvMs7_NtNtCsi8pFR5hElLZ_3wyn5win326windowNtB7_6Window14request_redraw0Bb_
FN:236,_RNvMs2_NtNtCsi8pFR5hElLZ_3wyn5win326windowNtB5_6Window13is_fullscreen
FN:366,_RNvMs4_NtNtCsi8pFR5hElLZ_3wyn5win326windowNtB5_6Window19internal_reposition
FN:441,_RNvMs5_NtNtCsi8pFR5hElLZ_3wyn5win326windowNtB5_6Window9set_style
FN:115,_RNCNvMs0_NtNtCsi8pFR5hElLZ_3wyn5win326windowNtB7_6Window5close0Bb_
FN:413,_RNvXs8_NtNtCsi8pFR5hElLZ_3wyn5win326windowNtB5_11WindowStyleNtNtCs1RoSZkFyxqL_4core5clone5Clone5cloneB9_
FN:60,_RNvMs0_NtNtCsi8pFR5hElLZ_3wyn5win326windowNtB5_6Window4open
FN:253,_RNvMs2_NtNtCsi8pFR5hElLZ_3wyn5win326windowNtB5_6Window9is_normal
FN:37,_RNvMNtNtCsi8pFR5hElLZ_3wyn5win326windowNtB2_6Window6handle
FN:328,_RNvMs4_NtNtCsi8pFR5hElLZ_3wyn5win326windowNtB5_6Window12content_rect
FN:486,_RNvMs5_NtNtCsi8pFR5hElLZ_3wyn5win326windowNtB5_6Window18internal_get_style
FN:128,_RNCNvMs0_NtNtCsi8pFR5hElLZ_3wyn5win326windowNtB7_6Window14internal_close0Bb_
FN:125,_RNvMs0_NtNtCsi8pFR5hElLZ_3wyn5win326windowNtB5_6Window14internal_close
FN:319,_RNvMs4_NtNtCsi8pFR5hElLZ_3wyn5win326windowNtB5_6Window17reposition_border
FN:183,_RNvMs1_NtNtCsi8pFR5hElLZ_3wyn5win326windowNtB5_6Window9is_hidden
FN:213,_RNvMs2_NtNtCsi8pFR5hElLZ_3wyn5win326windowNtB5_6Window8maximize
FN:265,_RNvMs3_NtNtCsi8pFR5hElLZ_3wyn5win326windowNtB5_6Window6rename
FNDA:17552,_RNvMs2_NtNtCsflbUU710Hyp_3wyn5win326windowNtB5_6Window13is_fullscreen
FNDA:0,_RNvXse_NtNtCsflbUU710Hyp_3wyn5win326windowNtB5_11WindowStyleNtNtCs1RoSZkFyxqL_4core3fmt5Debug3fmt
FNDA:17545,_RNvMs4_NtNtCsflbUU710Hyp_3wyn5win326windowNtB5_6Window12content_rect
FNDA:1,_RNvMs1_NtNtCsflbUU710Hyp_3wyn5win326windowNtB5_6Window4hide
FNDA:14,_RNvMs4_NtNtCsflbUU710Hyp_3wyn5win326windowNtB5_6Window19internal_reposition
FNDA:17576,_RNvMs5_NtNtCsflbUU710Hyp_3wyn5win326windowNtB5_6Window18internal_get_style
FNDA:30,_RNvMs2_NtNtCsflbUU710Hyp_3wyn5win326windowNtB5_6Window10fullscreen
FNDA:95,_RNvMs5_NtNtCsflbUU710Hyp_3wyn5win326windowNtB5_6Window9set_style
FNDA:1872,_RNvMs2_NtNtCsflbUU710Hyp_3wyn5win326windowNtB5_6Window12is_minimized
FNDA:17552,_RNvXsb_NtNtCsflbUU710Hyp_3wyn5win326windowNtB5_11WindowStyleNtNtCs1RoSZkFyxqL_4core3cmp9PartialEq2eqB9_
FNDA:9,_RNvMs0_NtNtCsflbUU710Hyp_3wyn5win326windowNtB5_6Window14internal_close
FNDA:17,_RNvXs_NtNtCsflbUU710Hyp_3wyn5win326windowNtB4_6WindowINtNtCs1RoSZkFyxqL_4core7convert7TryFromiE8try_from
FNDA:1865,_RNvMs4_NtNtCsflbUU710Hyp_3wyn5win326windowNtB5_6Window11border_rect
FNDA:1,_RNvMs4_NtNtCsflbUU710Hyp_3wyn5win326windowNtB5_6Window17reposition_border
FNDA:9,_RNvMs1_NtNtCsflbUU710Hyp_3wyn5win326windowNtB5_6Window10is_focused
FNDA:98,_RNvMs1_NtNtCsflbUU710Hyp_3wyn5win326windowNtB5_6Window10is_visible
FNDA:4651,_RNvMs2_NtNtCsflbUU710Hyp_3wyn5win326windowNtB5_6Window12is_maximized
FNDA:3,_RNvMs2_NtNtCsflbUU710Hyp_3wyn5win326windowNtB5_6Window8minimize
FNDA:5,_RNvMs1_NtNtCsflbUU710Hyp_3wyn5win326windowNtB5_6Window9is_hidden
FNDA:34,_RNvMs2_NtNtCsflbUU710Hyp_3wyn5win326windowNtB5_6Window8maximize
FNDA:6195,_RNvMs3_NtNtCsflbUU710Hyp_3wyn5win326windowNtB5_6Window6rename
FNDA:17,_RNvMs0_NtNtCsflbUU710Hyp_3wyn5win326windowNtB5_6Window13internal_open
FNDA:37,_RNvMs2_NtNtCsflbUU710Hyp_3wyn5win326windowNtB5_6Window7restore
FNDA:17,_RNvMs0_NtNtCsflbUU710Hyp_3wyn5win326windowNtB5_6Window4open
FNDA:1,_RNvMs0_NtNtCsflbUU710Hyp_3wyn5win326windowNtB5_6Window7is_open
FNDA:13,_RNvMs1_NtNtCsflbUU710Hyp_3wyn5win326windowNtB5_6Window5focus
FNDA:2,_RNvMs1_NtNtCsflbUU710Hyp_3wyn5win326windowNtB5_6Window4show
FNDA:17563,_RNvMs5_NtNtCsflbUU710Hyp_3wyn5win326windowNtB5_6Window5style
FNDA:5,_RNvMs2_NtNtCsflbUU710Hyp_3wyn5win326windowNtB5_6Window9is_normal
FNDA:95,_RNvMs5_NtNtCsflbUU710Hyp_3wyn5win326windowNtB5_6Window18internal_set_style
FNDA:1,_RNvMs6_NtNtCsflbUU710Hyp_3wyn5win326windowNtB5_6Window6screen
FNDA:120329,_RNvMNtNtCsflbUU710Hyp_3wyn5win326windowNtB2_6Window6handle
FNDA:9174,_RNvMs7_NtNtCsflbUU710Hyp_3wyn5win326windowNtB5_6Window14request_redraw
FNDA:13,_RNvMs4_NtNtCsflbUU710Hyp_3wyn5win326windowNtB5_6Window18reposition_content
FNDA:9,_RNvMs0_NtNtCsflbUU710Hyp_3wyn5win326windowNtB5_6Window5close
FNDA:15682,_RNvMs3_NtNtCsflbUU710Hyp_3wyn5win326windowNtB5_6Window4name
FNDA:0,_RNvXs8_NtNtCsflbUU710Hyp_3wyn5win326windowNtB5_11WindowStyleNtNtCs1RoSZkFyxqL_4core5clone5Clone5cloneB9_
FNDA:14,_RNCNvMs4_NtNtCsflbUU710Hyp_3wyn5win326windowNtB7_6Window19internal_reposition0Bb_
FNDA:17,_RNCNvMs0_NtNtCsflbUU710Hyp_3wyn5win326windowNtB7_6Window4open0Bb_
FNDA:9,_RNCNvMs0_NtNtCsflbUU710Hyp_3wyn5win326windowNtB7_6Window5close0Bb_
FNDA:9,_RNCNvMs0_NtNtCsflbUU710Hyp_3wyn5win326windowNtB7_6Window14internal_close0Bb_
FNDA:6195,_RNCNvMs3_NtNtCsflbUU710Hyp_3wyn5win326windowNtB7_6Window6rename0Bb_
FNDA:9174,_RNCNvMs7_NtNtCsflbUU710Hyp_3wyn5win326windowNtB7_6Window14request_redraw0Bb_
FNDA:11,_RNvXsb_NtNtCsflbUU710Hyp_3wyn5win326windowNtB5_11WindowStyleNtNtCs1RoSZkFyxqL_4core3cmp9PartialEq2eqCs4fdV5CZUklp_12style_change
FNDA:0,_RNvXse_NtNtCsi8pFR5hElLZ_3wyn5win326windowNtB5_11WindowStyleNtNtCs1RoSZkFyxqL_4core3fmt5Debug3fmt
FNDA:0,_RNvMs1_NtNtCsi8pFR5hElLZ_3wyn5win326windowNtB5_6Window4hide
FNDA:0,_RNvMs2_NtNtCsi8pFR5hElLZ_3wyn5win326windowNtB5_6Window10fullscreen
FNDA:0,_RNvMs2_NtNtCsi8pFR5hElLZ_3wyn5win326windowNtB5_6Window12is_minimized
FNDA:0,_RNvXsb_NtNtCsi8pFR5hElLZ_3wyn5win326windowNtB5_11WindowStyleNtNtCs1RoSZkFyxqL_4core3cmp9PartialEq2eqB9_
FNDA:0,_RNCNvMs4_NtNtCsi8pFR5hElLZ_3wyn5win326windowNtB7_6Window19internal_reposition0Bb_
FNDA:0,_RNvMs4_NtNtCsi8pFR5hElLZ_3wyn5win326windowNtB5_6Window11border_rect
FNDA:0,_RNvMs1_NtNtCsi8pFR5hElLZ_3wyn5win326windowNtB5_6Window10is_visible
FNDA:0,_RNvMs2_NtNtCsi8pFR5hElLZ_3wyn5win326windowNtB5_6Window12is_maximized
FNDA:0,_RNvMs2_NtNtCsi8pFR5hElLZ_3wyn5win326windowNtB5_6Window8minimize
FNDA:0,_RNvMs0_NtNtCsi8pFR5hElLZ_3wyn5win326windowNtB5_6Window13internal_open
FNDA:0,_RNCNvMs3_NtNtCsi8pFR5hElLZ_3wyn5win326windowNtB7_6Window6rename0Bb_
FNDA:0,_RNvMs1_NtNtCsi8pFR5hElLZ_3wyn5win326windowNtB5_6Window4show
FNDA:0,_RNvMs5_NtNtCsi8pFR5hElLZ_3wyn5win326windowNtB5_6Window18internal_set_style
FNDA:0,_RNvMs7_NtNtCsi8pFR5hElLZ_3wyn5win326windowNtB5_6Window14request_redraw
FNDA:0,_RNvMs3_NtNtCsi8pFR5hElLZ_3wyn5win326windowNtB5_6Window4name
FNDA:0,_RNvXs_NtNtCsi8pFR5hElLZ_3wyn5win326windowNtB4_6WindowINtNtCs1RoSZkFyxqL_4core7convert7TryFromiE8try_from
FNDA:0,_RNCNvMs0_NtNtCsi8pFR5hElLZ_3wyn5win326windowNtB7_6Window4open0Bb_
FNDA:0,_RNvMs1_NtNtCsi8pFR5hElLZ_3wyn5win326windowNtB5_6Window10is_focused
FNDA:0,_RNvMs0_NtNtCsi8pFR5hElLZ_3wyn5win326windowNtB5_6Window7is_open
FNDA:0,_RNvMs2_NtNtCsi8pFR5hElLZ_3wyn5win326windowNtB5_6Window7restore
FNDA:0,_RNvMs1_NtNtCsi8pFR5hElLZ_3wyn5win326windowNtB5_6Window5focus
FNDA:0,_RNvMs5_NtNtCsi8pFR5hElLZ_3wyn5win326windowNtB5_6Window5style
FNDA:0,_RNvMs6_NtNtCsi8pFR5hElLZ_3wyn5win326windowNtB5_6Window6screen
FNDA:0,_RNvMs0_NtNtCsi8pFR5hElLZ_3wyn5win326windowNtB5_6Window5close
FNDA:0,_RNvMs4_NtNtCsi8pFR5hElLZ_3wyn5win326windowNtB5_6Window18reposition_content
FNDA:0,_RNCNvMs7_NtNtCsi8pFR5hElLZ_3wyn5win326windowNtB7_6Window14request_redraw0Bb_
FNDA:0,_RNvMs2_NtNtCsi8pFR5hElLZ_3wyn5win326windowNtB5_6Window13is_fullscreen
FNDA:0,_RNvMs4_NtNtCsi8pFR5hElLZ_3wyn5win326windowNtB5_6Window19internal_reposition
FNDA:0,_RNvMs5_NtNtCsi8pFR5hElLZ_3wyn5win326windowNtB5_6Window9set_style
FNDA:0,_RNCNvMs0_NtNtCsi8pFR5hElLZ_3wyn5win326windowNtB7_6Window5close0Bb_
FNDA:0,_RNvXs8_NtNtCsi8pFR5hElLZ_3wyn5win326windowNtB5_11WindowStyleNtNtCs1RoSZkFyxqL_4core5clone5Clone5cloneB9_
FNDA:0,_RNvMs0_NtNtCsi8pFR5hElLZ_3wyn5win326windowNtB5_6Window4open
FNDA:0,_RNvMs2_NtNtCsi8pFR5hElLZ_3wyn5win326windowNtB5_6Window9is_normal
FNDA:0,_RNvMNtNtCsi8pFR5hElLZ_3wyn5win326windowNtB2_6Window6handle
FNDA:0,_RNvMs4_NtNtCsi8pFR5hElLZ_3wyn5win326windowNtB5_6Window12content_rect
FNDA:0,_RNvMs5_NtNtCsi8pFR5hElLZ_3wyn5win326windowNtB5_6Window18internal_get_style
FNDA:0,_RNCNvMs0_NtNtCsi8pFR5hElLZ_3wyn5win326windowNtB7_6Window14internal_close0Bb_
FNDA:0,_RNvMs0_NtNtCsi8pFR5hElLZ_3wyn5win326windowNtB5_6Window14internal_close
FNDA:0,_RNvMs4_NtNtCsi8pFR5hElLZ_3wyn5win326windowNtB5_6Window17reposition_border
FNDA:0,_RNvMs1_NtNtCsi8pFR5hElLZ_3wyn5win326windowNtB5_6Window9is_hidden
FNDA:0,_RNvMs2_NtNtCsi8pFR5hElLZ_3wyn5win326windowNtB5_6Window8maximize
FNDA:0,_RNvMs3_NtNtCsi8pFR5hElLZ_3wyn5win326windowNtB5_6Window6rename
FNF:43
FNH:41
DA:37,120329
DA:38,120329
DA:39,120329
DA:45,17
DA:46,17
DA:47,17
DA:48,0
DA:50,17
DA:60,17
DA:61,17
DA:62,17
DA:63,17
DA:64,17
DA:65,17
DA:66,17
DA:67,17
DA:70,1
DA:71,1
DA:72,1
DA:73,1
DA:78,17
DA:79,17
DA:80,17
DA:81,17
DA:82,17
DA:83,17
DA:84,17
DA:85,17
DA:86,17
DA:87,17
DA:88,17
DA:89,17
DA:90,17
DA:91,17
DA:92,17
DA:93,17
DA:94,17
DA:97,17
DA:99,17
DA:100,17
DA:101,17
DA:102,0
DA:103,0
DA:104,0
DA:105,17
DA:107,17
DA:108,17
DA:113,9
DA:114,9
DA:115,9
DA:116,9
DA:117,9
DA:118,9
DA:119,9
DA:120,9
DA:125,9
DA:127,9
DA:128,9
DA:129,9
DA:141,13
DA:142,13
DA:143,13
DA:144,13
DA:145,13
DA:146,13
DA:147,13
DA:148,13
DA:149,13
DA:150,13
DA:153,9
DA:154,9
DA:155,9
DA:156,9
DA:161,2
DA:162,2
DA:163,2
DA:164,2
DA:165,2
DA:168,98
DA:169,98
DA:170,98
DA:171,98
DA:176,1
DA:177,1
DA:178,1
DA:179,1
DA:180,1
DA:183,5
DA:184,5
DA:185,5
DA:186,5
DA:198,3
DA:199,3
DA:200,3
DA:201,3
DA:202,3
DA:205,1872
DA:206,1872
DA:207,1872
DA:208,1872
DA:213,34
DA:214,34
DA:215,34
DA:216,34
DA:217,34
DA:220,4651
DA:221,4651
DA:222,4651
DA:223,4651
DA:229,30
DA:230,30
DA:231,30
DA:232,30
DA:236,17552
DA:237,17552
DA:239,0
DA:241,17552
DA:246,37
DA:247,37
DA:248,37
DA:249,37
DA:250,37
DA:253,5
DA:254,5
DA:255,5
DA:265,6195
DA:266,6195
DA:267,6195
DA:268,6195
DA:269,6195
DA:270,6195
DA:271,6195
DA:272,6195
DA:276,6195
DA:277,6195
DA:278,6195
DA:281,15682
DA:282,15682
DA:286,15682
DA:287,15682
DA:290,15682
DA:292,15682
DA:293,15682
DA:294,15682
DA:297,15682
DA:298,15682
DA:299,15682
DA:300,15682
DA:301,15682
DA:302,15682
DA:312,13
DA:313,13
DA:314,13
DA:315,13
DA:316,13
DA:319,1
DA:320,1
DA:321,1
DA:322,1
DA:323,1
DA:328,17545
DA:329,17545
DA:330,17545
DA:331,17545
DA:332,17545
DA:333,17545
DA:336,17545
DA:338,17545
DA:339,17545
DA:342,17545
DA:343,17545
DA:344,17545
DA:345,17545
DA:346,17545
DA:347,17545
DA:348,17545
DA:349,17545
DA:352,1865
DA:353,1865
DA:354,1865
DA:356,1865
DA:357,1865
DA:359,1865
DA:360,1865
DA:361,1865
DA:366,14
DA:367,14
DA:368,14
DA:369,14
DA:370,14
DA:371,14
DA:372,14
DA:373,13
DA:376,13
DA:377,13
DA:380,13
DA:381,13
DA:382,13
DA:383,13
DA:384,13
DA:385,13
DA:386,13
DA:387,13
DA:388,13
DA:389,13
DA:390,1
DA:393,14
DA:394,14
DA:395,14
DA:396,14
DA:397,14
DA:398,14
DA:399,14
DA:400,14
DA:401,14
DA:402,14
DA:403,14
DA:404,14
DA:405,14
DA:413,17563
DA:441,95
DA:443,95
DA:444,95
DA:446,0
DA:449,95
DA:450,31
DA:451,31
DA:452,31
DA:453,31
DA:454,4
DA:455,4
DA:456,4
DA:457,4
DA:458,60
DA:459,60
DA:460,60
DA:461,60
DA:464,95
DA:465,95
DA:468,17563
DA:469,17563
DA:471,17563
DA:472,17563
DA:473,17563
DA:474,17563
DA:475,14779
DA:476,2784
DA:477,4
DA:479,2780
DA:481,17563
DA:486,17576
DA:488,17576
DA:489,17576
DA:492,17576
DA:493,17576
DA:495,17576
DA:496,17576
DA:497,17576
DA:500,95
DA:501,95
DA:503,95
DA:504,95
DA:505,95
DA:506,95
DA:507,95
DA:509,95
DA:511,95
DA:512,95
DA:513,95
DA:514,95
DA:515,95
DA:517,95
DA:518,95
DA:528,1
DA:529,1
DA:530,1
DA:531,1
DA:532,1
DA:533,1
DA:534,1
DA:542,9174
DA:543,9174
DA:544,9174
DA:545,9174
DA:546,9174
DA:547,9174
DA:548,9174
DA:549,9174
DA:550,9174
DA:551,9174
DA:552,9174
DA:553,9174
DA:554,9174
DA:555,9174
DA:556,9174
DA:557,9174
DA:558,5
DA:560,9169
DA:562,9174
DA:563,9174
DA:564,9174
DA:565,9174
BRF:0
BRH:0
LF:313
LH:305
end_of_record
